

Microchip MPLAB XC8 Assembler V2.20 build 20200326151930 
                                                                                               Mon Apr 27 14:24:36 2020

Microchip MPLAB XC8 C Compiler v2.20 (Free license) build 20200326151930 Og1 
     1                           	processor	18F57Q43
     2                           	fnconf	rparam,??,?,0
     3                           	pagewidth 120
     4                           	opt	flic
     5                           	psect	smallconst,global,reloc=2,class=SMALLCONST,delta=1,noexec
     6                           	psect	nvCOMRAM,global,class=COMRAM,space=1,delta=1,lowdata,noexec
     7                           	psect	nvBANK5,global,class=BANK5,space=1,delta=1,lowdata,noexec
     8                           	psect	cinit,global,reloc=2,class=CODE,delta=1
     9                           	psect	bssCOMRAM,global,class=COMRAM,space=1,delta=1,lowdata,noexec
    10                           	psect	cstackCOMRAM,global,class=COMRAM,space=1,delta=1,lowdata,noexec
    11                           	psect	text0,global,reloc=2,class=CODE,delta=1
    12                           	psect	text1,global,reloc=2,class=CODE,delta=1
    13                           	psect	text2,global,reloc=2,class=CODE,delta=1
    14                           	psect	text3,global,reloc=2,class=CODE,delta=1
    15                           	psect	text4,global,reloc=2,class=CODE,delta=1
    16                           	psect	text5,global,reloc=2,class=CODE,delta=1
    17                           	psect	text6,global,reloc=2,class=CODE,delta=1
    18                           	psect	text7,global,reloc=2,class=CODE,delta=1
    19                           	psect	text8,global,reloc=2,class=CODE,delta=1
    20                           	psect	text9,global,reloc=2,class=CODE,delta=1
    21                           	psect	text10,global,reloc=2,class=CODE,delta=1
    22                           	psect	text11,global,reloc=2,class=CODE,delta=1
    23                           	psect	text12,global,reloc=2,class=CODE,delta=1
    24                           	psect	text13,global,reloc=2,class=CODE,delta=1
    25                           	psect	text14,global,reloc=2,class=CODE,delta=1
    26                           	psect	text15,global,reloc=2,class=CODE,delta=1
    27                           	psect	text16,global,reloc=2,class=CODE,delta=1
    28                           	psect	text17,global,reloc=2,class=CODE,delta=1
    29                           	psect	text18,global,reloc=2,class=CODE,delta=1
    30                           	psect	text19,global,reloc=2,class=CODE,delta=1
    31                           	psect	text20,global,reloc=2,class=CODE,delta=1
    32                           	psect	text21,global,reloc=2,class=CODE,delta=1
    33                           	psect	text22,global,reloc=2,class=CODE,delta=1
    34                           	psect	text23,global,reloc=2,class=CODE,delta=1
    35                           	psect	text24,global,reloc=2,class=CODE,delta=1
    36                           	psect	text25,global,reloc=2,class=CODE,delta=1
    37                           	psect	text26,global,reloc=2,class=CODE,delta=1
    38                           	psect	text27,global,reloc=2,class=CODE,delta=1
    39                           	psect	text28,global,reloc=2,class=CODE,delta=1
    40                           	psect	text29,global,reloc=2,class=CODE,delta=1
    41                           	psect	text30,global,reloc=2,class=CODE,delta=1
    42                           	psect	text31,global,reloc=2,class=CODE,delta=1
    43                           	psect	text32,global,reloc=2,class=CODE,delta=1
    44                           	psect	text33,global,reloc=2,class=CODE,delta=1,inline
    45                           	psect	text34,global,reloc=2,class=CODE,delta=1
    46                           	psect	text35,global,reloc=2,class=CODE,delta=1,inline
    47                           	psect	text36,global,reloc=2,class=CODE,delta=1,inline
    48                           	psect	text37,global,reloc=2,class=CODE,delta=1
    49                           	psect	text38,global,reloc=2,class=CODE,delta=1
    50                           	psect	text39,global,reloc=2,class=CODE,delta=1
    51                           	psect	text40,global,reloc=2,class=CODE,delta=1
    52                           	psect	text41,global,reloc=2,class=CODE,delta=1
    53                           	psect	text42,global,reloc=2,class=CODE,delta=1
    54                           	psect	text43,global,reloc=2,class=CODE,delta=1
    55                           	psect	text44,global,reloc=2,class=CODE,delta=1
    56                           	psect	text45,global,reloc=2,class=CODE,delta=1
    57                           	psect	text46,global,reloc=2,class=CODE,delta=1
    58                           	psect	text47,global,reloc=2,class=CODE,delta=1
    59                           	psect	text48,global,reloc=2,class=CODE,delta=1
    60                           	psect	text49,global,reloc=2,class=CODE,delta=1
    61                           	psect	text50,global,reloc=2,class=CODE,delta=1
    62                           	psect	text51,global,reloc=2,class=CODE,delta=1
    63                           	psect	text52,global,reloc=2,class=CODE,delta=1,inline
    64                           	psect	text53,global,reloc=2,class=CODE,delta=1
    65                           	psect	text54,global,reloc=2,class=CODE,delta=1
    66                           	psect	text55,global,reloc=2,class=CODE,delta=1
    67                           	psect	text56,global,reloc=2,class=CODE,delta=1,inline
    68                           	psect	text57,global,reloc=2,class=CODE,delta=1
    69                           	psect	text58,global,reloc=2,class=CODE,delta=1
    70                           	psect	text59,global,reloc=2,class=CODE,delta=1
    71                           	psect	text60,global,reloc=2,class=CODE,delta=1,inline
    72                           	psect	text61,global,reloc=2,class=CODE,delta=1
    73                           	psect	text62,global,reloc=2,class=CODE,delta=1
    74                           	psect	text63,global,reloc=2,class=CODE,delta=1,inline
    75                           	psect	text64,global,reloc=2,class=CODE,delta=1
    76                           	psect	text65,global,reloc=2,class=CODE,delta=1
    77                           	psect	text66,global,reloc=2,class=CODE,delta=1
    78                           	psect	text67,global,reloc=2,class=CODE,delta=1
    79                           	psect	text68,global,reloc=2,class=CODE,delta=1
    80                           	psect	text69,global,reloc=2,class=CODE,delta=1
    81                           	psect	text70,global,reloc=2,class=CODE,delta=1
    82                           	psect	text71,global,reloc=2,class=CODE,delta=1
    83                           	psect	text72,global,reloc=2,class=CODE,delta=1
    84                           	psect	text73,global,reloc=2,class=CODE,delta=1
    85                           	psect	text74,global,reloc=2,class=CODE,delta=1
    86                           	psect	text75,global,reloc=2,class=CODE,delta=1
    87                           	psect	text76,global,reloc=2,class=CODE,delta=1
    88                           	psect	text77,global,reloc=2,class=CODE,delta=1
    89                           	psect	text78,global,reloc=2,class=CODE,delta=1
    90                           	psect	text79,global,reloc=2,class=CODE,delta=1
    91                           	psect	text80,global,reloc=2,class=CODE,delta=1
    92                           	psect	text81,global,reloc=2,class=CODE,delta=1
    93                           	psect	text82,global,reloc=2,class=CODE,delta=1
    94                           	psect	text83,global,reloc=2,class=CODE,delta=1
    95                           	psect	text84,global,reloc=2,class=CODE,delta=1
    96                           	psect	text85,global,reloc=2,class=CODE,delta=1
    97                           	psect	text86,global,reloc=2,class=CODE,delta=1,inline
    98                           	psect	text87,global,reloc=2,class=CODE,delta=1,inline
    99                           	psect	text88,global,reloc=2,class=CODE,delta=1
   100                           	psect	text89,global,reloc=2,class=CODE,delta=1
   101                           	psect	text90,global,reloc=4,class=CODE,delta=1
   102                           	psect	text91,global,reloc=2,class=CODE,delta=1
   103                           	psect	text92,global,reloc=2,class=CODE,delta=1
   104                           	psect	text93,global,reloc=2,class=CODE,delta=1
   105                           	psect	text94,global,reloc=4,class=CODE,delta=1
   106                           	psect	text95,global,reloc=2,class=CODE,delta=1
   107                           	psect	text96,global,reloc=2,class=CODE,delta=1
   108                           	psect	text97,global,reloc=2,class=CODE,delta=1
   109                           	psect	text98,global,reloc=4,class=CODE,delta=1
   110                           	psect	text99,global,reloc=2,class=CODE,delta=1
   111                           	psect	text100,global,reloc=4,class=CODE,delta=1
   112                           	psect	text101,global,reloc=4,class=CODE,delta=1
   113                           	psect	text102,global,reloc=4,class=CODE,delta=1
   114                           	psect	text103,global,reloc=2,class=CODE,delta=1
   115                           	psect	text104,global,reloc=2,class=CODE,delta=1
   116                           	psect	text105,global,reloc=4,class=CODE,delta=1
   117                           	psect	text106,global,reloc=2,class=CODE,delta=1
   118                           	psect	text107,global,reloc=4,class=CODE,delta=1
   119                           	psect	text108,global,reloc=2,class=CODE,delta=1
   120                           	psect	ivt0x8,global,reloc=2,class=CODE,delta=1,noexec,keep,optim=
   121                           	psect	intsave_regs,global,class=BIGRAM,space=1,delta=1,noexec
   122                           	psect	text109,global,reloc=2,class=CODE,delta=1
   123                           	psect	rparam,global,class=COMRAM,space=1,delta=1,noexec
   124                           	psect	idloc,global,abs,ovrld,class=IDLOC,space=5,delta=1,noexec
   125                           	psect	config,global,abs,ovrld,class=CONFIG,space=4,delta=1,noexec
   126                           	dabs	1,0xB00,2,_gpr11_ping
   127                           	dabs	1,0xC00,2,_gpr12_pong
   128                           	dabs	1,0x2400,2,_gpr_bank36
   129  0000                     
   130                           ; Version 2.20
   131                           ; Generated 12/02/2020 GMT
   132                           ; 
   133                           ; Copyright © 2020, Microchip Technology Inc. and its subsidiaries ("Microchip")
   134                           ; All rights reserved.
   135                           ; 
   136                           ; This software is developed by Microchip Technology Inc. and its subsidiaries ("Microch
      +                          ip").
   137                           ; 
   138                           ; Redistribution and use in source and binary forms, with or without modification, are
   139                           ; permitted provided that the following conditions are met:
   140                           ; 
   141                           ;     1. Redistributions of source code must retain the above copyright notice, this lis
      +                          t of
   142                           ;        conditions and the following disclaimer.
   143                           ; 
   144                           ;     2. Redistributions in binary form must reproduce the above copyright notice, this 
      +                          list
   145                           ;        of conditions and the following disclaimer in the documentation and/or other
   146                           ;        materials provided with the distribution.
   147                           ; 
   148                           ;     3. Microchip's name may not be used to endorse or promote products derived from th
      +                          is
   149                           ;        software without specific prior written permission.
   150                           ; 
   151                           ; THIS SOFTWARE IS PROVIDED BY MICROCHIP "AS IS" AND ANY EXPRESS OR IMPLIED WARRANTIES,
   152                           ; INCLUDING, BUT NOT LIMITED TO, THE IMPLIED WARRANTIES OF MERCHANTABILITY AND FITNESS F
      +                          OR
   153                           ; PURPOSE ARE DISCLAIMED.  IN NO EVENT SHALL MICROCHIP BE LIABLE FOR ANY DIRECT, INDIREC
      +                          T,
   154                           ; INCIDENTAL, SPECIAL, EXEMPLARY, OR CONSEQUENTIAL DAMAGES (INCLUDING BUT NOT LIMITED TO
   155                           ; PROCUREMENT OF SUBSTITUTE GOODS OR SERVICES; LOSS OF USE, DATA OR PROFITS; OR BUSINESS
   156                           ; INTERRUPTION) HOWSOEVER CAUSED AND ON ANY THEORY OF LIABILITY, WHETHER IN CONTRACT, ST
      +                          RICT
   157                           ; LIABILITY, OR TORT (INCLUDING NEGLIGENCE OR OTHERWISE) ARISING IN ANY WAY OUT OF THE U
      +                          SE OF
   158                           ; THIS SOFTWARE, EVEN IF ADVISED OF THE POSSIBILITY OF SUCH DAMAGE.
   159                           ; 
   160                           ; 
   161                           ; Code-generator required, PIC18F57Q43 Definitions
   162                           ; 
   163                           ; SFR Addresses
   164  0000                     
   165 ;; Function _UART1_DefaultFramingErrorHandler is unused but had its address taken
   166  0000                     
   167 ;; Function _UART1_DefaultOverrunErrorHandler is unused but had its address taken
   168  0000                     
   169 ;; Function _UART1_DefaultErrorHandler is unused but had its address taken
   170  0000                     
   171                           	psect	smallconst
   172  002500                     __psmallconst:
   173                           	callstack 0
   174  002500  00                 	db	0
   175  002501                     _spi1_configuration:
   176                           	callstack 0
   177  002501  02                 	db	2
   178  002502  C0                 	db	192
   179  002503  00                 	db	0
   180  002504  1F                 	db	31
   181  002505  00                 	db	0
   182  002506                     __end_of_spi1_configuration:
   183                           	callstack 0
   184  002506  00                 	db	0	; dummy byte at the end
   185  0000                     
   186                           	psect	nvCOMRAM
   187  000548                     __pnvCOMRAM:
   188                           	callstack 0
   189  000548                     _PWM2_16BIT_Period_InterruptHandler:
   190                           	callstack 0
   191  000548                     	ds	3
   192  00054B                     _PWM2_16BIT_Slice1Output2_InterruptHandler:
   193                           	callstack 0
   194  00054B                     	ds	3
   195  00054E                     _PWM2_16BIT_Slice1Output1_InterruptHandler:
   196                           	callstack 0
   197  00054E                     	ds	3
   198  000551                     _TMR6_InterruptHandler:
   199                           	callstack 0
   200  000551                     	ds	3
   201  000554                     _TMR0_InterruptHandler:
   202                           	callstack 0
   203  000554                     	ds	3
   204  000557                     _UART1_FramingErrorHandler:
   205                           	callstack 0
   206  000557                     	ds	3
   207  00055A                     _timer1ReloadVal:
   208                           	callstack 0
   209  00055A                     	ds	2
   210  00055C                     _timer0ReloadVal16bit:
   211                           	callstack 0
   212  00055C                     	ds	2
   213                           
   214                           	psect	nvBANK5
   215  000560                     __pnvBANK5:
   216                           	callstack 0
   217  000560                     _UART1_ErrorHandler:
   218                           	callstack 0
   219  000560                     	ds	3
   220  000563                     _UART1_OverrunErrorHandler:
   221                           	callstack 0
   222  000563                     	ds	3
   223  0000                     _DMAnSPTR	set	244
   224  0000                     _DMAnSSA	set	249
   225  0000                     _SPI1TCNT	set	130
   226  0000                     _NVMDAT	set	70
   227  0000                     _DMAnDPTR	set	236
   228  0000                     _DMAnDSZ	set	238
   229  0000                     _DMAnSSZ	set	247
   230  0000                     _DMAnDSA	set	240
   231  0000                     _DAC1CONbits	set	127
   232  0000                     _SPI1CON2bits	set	134
   233  0000                     _CM1CON0bits	set	112
   234  0000                     _CM1PCH	set	115
   235  0000                     _CM1NCH	set	114
   236  0000                     _CM1CON1	set	113
   237  0000                     _CM1CON0	set	112
   238  0000                     _DMA1PR	set	182
   239  0000                     _DMA3PR	set	184
   240  0000                     _DMA4PR	set	185
   241  0000                     _DMA6PR	set	187
   242  0000                     _DMA5PR	set	186
   243  0000                     _DMA2PR	set	183
   244  0000                     _DMAnCON0bits	set	252
   245  0000                     _DMAnCON1bits	set	253
   246  0000                     _DMAnCON0	set	252
   247  0000                     _DMAnAIRQ	set	254
   248  0000                     _DMAnSIRQ	set	255
   249  0000                     _DMAnCON1	set	253
   250  0000                     _DMASELECT	set	232
   251  0000                     _SPI1TCNTL	set	130
   252  0000                     _SPI1CON0bits	set	132
   253  0000                     _SPI1CON0	set	132
   254  0000                     _SPI1CLK	set	140
   255  0000                     _SPI1BAUD	set	137
   256  0000                     _SPI1CON2	set	134
   257  0000                     _SPI1CON1	set	133
   258  0000                     _NVMDATL	set	70
   259  0000                     _NVMCON0bits	set	64
   260  0000                     _NVMLOCK	set	66
   261  0000                     _NVMCON1bits	set	65
   262  0000                     _NVMADRL	set	67
   263  0000                     _NVMADRH	set	68
   264  0000                     _NVMADRU	set	69
   265  0000                     _DAC1CON	set	127
   266  0000                     _CLCDATAbits	set	212
   267  0000                     _CLCnCON	set	214
   268  0000                     _CLCDATA	set	212
   269  0000                     _CLCnGLS3	set	223
   270  0000                     _CLCnGLS2	set	222
   271  0000                     _CLCnGLS1	set	221
   272  0000                     _CLCnGLS0	set	220
   273  0000                     _CLCnSEL3	set	219
   274  0000                     _CLCnSEL2	set	218
   275  0000                     _CLCnSEL1	set	217
   276  0000                     _CLCnSEL0	set	216
   277  0000                     _CLCnPOL	set	215
   278  0000                     _CLCSELECT	set	213
   279  0000                     _PRLOCKbits	set	180
   280  0000                     _PRLOCK	set	180
   281  0000                     _PMD8	set	104
   282  0000                     _PMD7	set	103
   283  0000                     _PMD6	set	102
   284  0000                     _PMD5	set	101
   285  0000                     _PMD4	set	100
   286  0000                     _PMD3	set	99
   287  0000                     _PMD1	set	97
   288  0000                     _PMD0	set	96
   289  0000                     _ACTCON	set	172
   290  0000                     _OSCTUNE	set	176
   291  0000                     _OSCFRQ	set	177
   292  0000                     _OSCEN	set	179
   293  0000                     _OSCCON3	set	175
   294  0000                     _OSCCON1	set	173
   295  0000                     _SPI1RXB	set	128
   296  0000                     _SPI1TXB	set	129
   297  0000                     _DAC1DATL	set	125
   298  0000                     _T4INPPS	set	585
   299  0000                     _SPI1SDIPPS	set	619
   300  0000                     _RC6PPS	set	535
   301  0000                     _T2INPPS	set	584
   302  0000                     _CLCIN0PPS	set	609
   303  0000                     _RD5PPS	set	542
   304  0000                     _SPI1SCKPPS	set	618
   305  0000                     _PWMIN0PPS	set	599
   306  0000                     _U1RXPPS	set	626
   307  0000                     _RF0PPS	set	553
   308  0000                     _PWM2ERSPPS	set	596
   309  0000                     _RC2PPS	set	531
   310  0000                     _RC4PPS	set	533
   311  0000                     _RB5PPS	set	526
   312  0000                     _RC4I2C	set	646
   313  0000                     _RC3I2C	set	647
   314  0000                     _RB2I2C	set	648
   315  0000                     _RB1I2C	set	649
   316  0000                     _U1TXB	set	675
   317  0000                     _U1RXB	set	673
   318  0000                     _U1ERRIRbits	set	690
   319  0000                     _U1CON0bits	set	683
   320  0000                     _U1ERRIE	set	691
   321  0000                     _U1ERRIR	set	690
   322  0000                     _U1UIR	set	689
   323  0000                     _U1FIFO	set	688
   324  0000                     _U1BRGH	set	687
   325  0000                     _U1BRGL	set	686
   326  0000                     _U1CON2	set	685
   327  0000                     _U1CON1	set	684
   328  0000                     _U1CON0	set	683
   329  0000                     _U1P3H	set	682
   330  0000                     _U1P3L	set	681
   331  0000                     _U1P2H	set	680
   332  0000                     _U1P2L	set	679
   333  0000                     _U1P1H	set	678
   334  0000                     _U1P1L	set	677
   335  0000                     _PR2	set	803
   336  0000                     _TMR2	set	802
   337  0000                     _T2CONbits	set	804
   338  0000                     _T2RSTbits	set	807
   339  0000                     _T2HLTbits	set	805
   340  0000                     _T2CON	set	804
   341  0000                     _T2TMR	set	802
   342  0000                     _T2PR	set	803
   343  0000                     _T2RST	set	807
   344  0000                     _T2HLT	set	805
   345  0000                     _T2CLKCON	set	806
   346  0000                     _ADCON1bits	set	1012
   347  0000                     _ADERRL	set	989
   348  0000                     _ADERRH	set	990
   349  0000                     _ADPREVL	set	1000
   350  0000                     _ADPREVH	set	1001
   351  0000                     _ADFLTRL	set	993
   352  0000                     _ADFLTRH	set	994
   353  0000                     _ADSTATbits	set	1015
   354  0000                     _ADACCL	set	995
   355  0000                     _ADACCH	set	996
   356  0000                     _ADCON2bits	set	1013
   357  0000                     _ADCNT	set	998
   358  0000                     _ADCON3bits	set	1014
   359  0000                     _ADRESL	set	1002
   360  0000                     _ADCON0bits	set	1011
   361  0000                     _ADCON0	set	1011
   362  0000                     _ADCLK	set	1018
   363  0000                     _ADACT	set	1017
   364  0000                     _ADREF	set	1016
   365  0000                     _ADSTAT	set	1015
   366  0000                     _ADCON3	set	1014
   367  0000                     _ADCON2	set	1013
   368  0000                     _ADCON1	set	1012
   369  0000                     _ADPREH	set	1010
   370  0000                     _ADPREL	set	1009
   371  0000                     _ADCAP	set	1008
   372  0000                     _ADACQH	set	1007
   373  0000                     _ADACQL	set	1006
   374  0000                     _ADPCH	set	1004
   375  0000                     _ADRPT	set	999
   376  0000                     _ADACCU	set	997
   377  0000                     _ADSTPTH	set	992
   378  0000                     _ADSTPTL	set	991
   379  0000                     _ADUTHH	set	988
   380  0000                     _ADUTHL	set	987
   381  0000                     _ADLTHH	set	986
   382  0000                     _ADLTHL	set	985
   383  0000                     _T1GCONbits	set	799
   384  0000                     _T1CONbits	set	798
   385  0000                     _T1CON	set	798
   386  0000                     _TMR1L	set	796
   387  0000                     _TMR1H	set	797
   388  0000                     _T1CLK	set	801
   389  0000                     _T1GATE	set	800
   390  0000                     _T1GCON	set	799
   391  0000                     _PR4	set	815
   392  0000                     _TMR4	set	814
   393  0000                     _T4CONbits	set	816
   394  0000                     _T4RSTbits	set	819
   395  0000                     _T4HLTbits	set	817
   396  0000                     _T4CON	set	816
   397  0000                     _T4TMR	set	814
   398  0000                     _T4PR	set	815
   399  0000                     _T4RST	set	819
   400  0000                     _T4HLT	set	817
   401  0000                     _T4CLKCON	set	818
   402  0000                     _IPR15bits	set	881
   403  0000                     _IPR3bits	set	869
   404  0000                     _IPR0bits	set	866
   405  0000                     _IPR6bits	set	872
   406  0000                     _PR6	set	827
   407  0000                     _TMR6	set	826
   408  0000                     _T6CONbits	set	828
   409  0000                     _T6RSTbits	set	831
   410  0000                     _T6HLTbits	set	829
   411  0000                     _T6CON	set	828
   412  0000                     _T6TMR	set	826
   413  0000                     _T6PR	set	827
   414  0000                     _T6RST	set	831
   415  0000                     _T6HLT	set	829
   416  0000                     _T6CLKCON	set	830
   417  0000                     _T0CON0bits	set	794
   418  0000                     _T0CON0	set	794
   419  0000                     _TMR0L	set	792
   420  0000                     _TMR0H	set	793
   421  0000                     _T0CON1	set	795
   422  0000                     _ADRESH	set	1003
   423  0000                     _IVTBASEL	set	1117
   424  0000                     _IVTBASEH	set	1118
   425  0000                     _IVTBASEU	set	1119
   426  0000                     _IVTLOCKbits	set	1113
   427  0000                     _IVTLOCK	set	1113
   428  0000                     _INLVLF	set	1068
   429  0000                     _INLVLE	set	1060
   430  0000                     _INLVLD	set	1052
   431  0000                     _INLVLC	set	1044
   432  0000                     _INLVLB	set	1036
   433  0000                     _INLVLA	set	1028
   434  0000                     _SLRCONF	set	1067
   435  0000                     _SLRCONE	set	1059
   436  0000                     _SLRCOND	set	1051
   437  0000                     _SLRCONC	set	1043
   438  0000                     _SLRCONB	set	1035
   439  0000                     _SLRCONA	set	1027
   440  0000                     _ODCOND	set	1050
   441  0000                     _ODCONC	set	1042
   442  0000                     _ODCONB	set	1034
   443  0000                     _ODCONA	set	1026
   444  0000                     _ODCONF	set	1066
   445  0000                     _ODCONE	set	1058
   446  0000                     _WPUC	set	1041
   447  0000                     _WPUA	set	1025
   448  0000                     _WPUB	set	1033
   449  0000                     _WPUE	set	1057
   450  0000                     _WPUF	set	1065
   451  0000                     _WPUD	set	1049
   452  0000                     _ANSELA	set	1024
   453  0000                     _ANSELF	set	1064
   454  0000                     _ANSELE	set	1056
   455  0000                     _ANSELB	set	1032
   456  0000                     _ANSELC	set	1040
   457  0000                     _ANSELD	set	1048
   458  0000                     _LATCbits	set	1216
   459  0000                     _LATBbits	set	1215
   460  0000                     _LATFbits	set	1219
   461  0000                     _LATDbits	set	1217
   462  0000                     _PWM2GIEbits	set	1143
   463  0000                     _PWM2CONbits	set	1144
   464  0000                     _PWM2CON	set	1144
   465  0000                     _PIE5bits	set	1187
   466  0000                     _PWM2GIRbits	set	1142
   467  0000                     _PIR5bits	set	1203
   468  0000                     _PWM2S1P2H	set	1149
   469  0000                     _PWM2S1P2L	set	1148
   470  0000                     _PWM2S1P1H	set	1147
   471  0000                     _PWM2S1P1L	set	1146
   472  0000                     _PWM2S1CFG	set	1145
   473  0000                     _PWM2GIE	set	1143
   474  0000                     _PWM2GIR	set	1142
   475  0000                     _PWM2PIPOS	set	1141
   476  0000                     _PWM2CPRE	set	1140
   477  0000                     _PWM2PRH	set	1139
   478  0000                     _PWM2PRL	set	1138
   479  0000                     _PWM2LDS	set	1137
   480  0000                     _PWM2CLK	set	1136
   481  0000                     _PWM2ERS	set	1135
   482  0000                     _PIE2bits	set	1184
   483  0000                     _PIR2bits	set	1200
   484  0000                     _PIE10bits	set	1192
   485  0000                     _PIR10bits	set	1208
   486  0000                     _PIE11bits	set	1193
   487  0000                     _PIE13bits	set	1195
   488  0000                     _PIR13bits	set	1211
   489  0000                     _PIE12bits	set	1194
   490  0000                     _PIR12bits	set	1210
   491  0000                     _PIE6bits	set	1188
   492  0000                     _PIR6bits	set	1204
   493  0000                     _TRISCbits	set	1224
   494  0000                     _TABLAT	set	1269
   495  0000                     _TBLPTRL	set	1270
   496  0000                     _TBLPTRH	set	1271
   497  0000                     _TBLPTRU	set	1272
   498  0000                     _PIR11bits	set	1209
   499  0000                     _INTCON0bits	set	1238
   500  0000                     _PIE0bits	set	1182
   501  0000                     _PIR0bits	set	1198
   502  0000                     _PIE15bits	set	1197
   503  0000                     _PIR15bits	set	1213
   504  0000                     _PIE3bits	set	1185
   505  0000                     _PIR3bits	set	1201
   506  0000                     _TRISD	set	1225
   507  0000                     _TRISC	set	1224
   508  0000                     _TRISB	set	1223
   509  0000                     _TRISA	set	1222
   510  0000                     _TRISF	set	1227
   511  0000                     _TRISE	set	1226
   512  0000                     _LATC	set	1216
   513  0000                     _LATB	set	1215
   514  0000                     _LATF	set	1219
   515  0000                     _LATA	set	1214
   516  0000                     _LATD	set	1217
   517  0000                     _LATE	set	1218
   518  0000                     _PIR4bits	set	1202
   519  0000                     _GIE	set	9911
   520                           
   521                           ; #config settings
   522                           
   523                           	psect	cinit
   524  003B54                     __pcinit:
   525                           	callstack 0
   526  003B54                     start_initialization:
   527                           	callstack 0
   528  003B54                     __initialization:
   529                           	callstack 0
   530                           
   531                           ; Clear objects allocated to COMRAM (32 bytes)
   532  003B54  EE01  F128         	lfsr	0,__pbssCOMRAM
   533  003B58  0E20               	movlw	32
   534  003B5A                     clear_0:
   535  003B5A  6AEE               	clrf	postinc0,c
   536  003B5C  06E8               	decf	wreg,f,c
   537  003B5E  E1FD               	bnz	clear_0
   538                           
   539                           ;
   540                           ; Setup IVTBASE
   541                           ;
   542  003B60  0104               	movlb	4
   543  003B62  0E08               	movlw	(ivt0x8_base shr 0)& (0+255)
   544  003B64  6F5D               	movwf	93,b
   545  003B66  0E00               	movlw	(ivt0x8_base shr (0+8))& (0+255)
   546  003B68  6F5E               	movwf	94,b
   547  003B6A  0E00               	movlw	(ivt0x8_base shr (0+16))& (0+255)
   548  003B6C  6F5F               	movwf	95,b
   549  003B6E                     end_of_initialization:
   550                           	callstack 0
   551  003B6E                     __end_of__initialization:
   552                           	callstack 0
   553  003B6E  0100               	movlb	0
   554  003B70  EF5D  F018         	goto	_main	;jump to C main() function
   555                           
   556                           	psect	bssCOMRAM
   557  000528                     __pbssCOMRAM:
   558                           	callstack 0
   559  000528                     _extMemAudio:
   560                           	callstack 0
   561  000528                     	ds	6
   562  00052E                     _pfmAudio:
   563                           	callstack 0
   564  00052E                     	ds	6
   565  000534                     TimerTick_ISR@count:
   566                           	callstack 0
   567  000534                     	ds	2
   568  000536                     _SrcVarName3:
   569                           	callstack 0
   570  000536                     	ds	2
   571  000538                     _DstVarName4:
   572                           	callstack 0
   573  000538                     	ds	2
   574  00053A                     _SrcVarName4:
   575                           	callstack 0
   576  00053A                     	ds	2
   577  00053C                     _DstVarName1:
   578                           	callstack 0
   579  00053C                     	ds	2
   580  00053E                     PingPong2SPI@src:
   581                           	callstack 0
   582  00053E                     	ds	1
   583  00053F                     _mode:
   584                           	callstack 0
   585  00053F                     	ds	1
   586  000540                     _tickOccured:
   587                           	callstack 0
   588  000540                     	ds	1
   589  000541                     _transferToStorage:
   590                           	callstack 0
   591  000541                     	ds	1
   592  000542                     _extMem:
   593                           	callstack 0
   594  000542                     	ds	1
   595  000543                     _sw1_released:
   596                           	callstack 0
   597  000543                     	ds	1
   598  000544                     _sw1_pressed:
   599                           	callstack 0
   600  000544                     	ds	1
   601  000545                     _sw0_released:
   602                           	callstack 0
   603  000545                     	ds	1
   604  000546                     _sw0_pressed:
   605                           	callstack 0
   606  000546                     	ds	1
   607  000547                     _uart1RxLastError:
   608                           	callstack 0
   609  000547                     	ds	1
   610                           
   611                           	psect	cstackCOMRAM
   612  000501                     __pcstackCOMRAM:
   613                           	callstack 0
   614  000501                     ??_BlinkTimer_ISR:
   615  000501                     
   616                           ; 1 bytes @ 0x0
   617  000501                     	ds	1
   618  000502                     ??_TMR1_Initialize:
   619  000502                     UART1_Write@txData:
   620                           	callstack 0
   621  000502                     INTERRUPT_Initialize@state:
   622                           	callstack 0
   623  000502                     SPI1_ExchangeByte@data:
   624                           	callstack 0
   625  000502                     ResetDMA@dma:
   626                           	callstack 0
   627  000502                     ResetAllDMA@dma:
   628                           	callstack 0
   629  000502                     SST26VF064B_Hold@state:
   630                           	callstack 0
   631  000502                     TMR1_WriteTimer@timerVal:
   632                           	callstack 0
   633  000502                     DATAEE_WriteByte@bAdd:
   634                           	callstack 0
   635  000502                     DATAEE_ReadByte@bAdd:
   636                           	callstack 0
   637  000502                     UART1_SetFramingErrorHandler@interruptHandler:
   638                           	callstack 0
   639  000502                     UART1_SetOverrunErrorHandler@interruptHandler:
   640                           	callstack 0
   641  000502                     UART1_SetErrorHandler@interruptHandler:
   642                           	callstack 0
   643  000502                     TMR0_SetInterruptHandler@InterruptHandler:
   644                           	callstack 0
   645  000502                     TMR6_SetInterruptHandler@InterruptHandler:
   646                           	callstack 0
   647  000502                     PWM2_16BIT_Slice1Output1_SetInterruptHandler@InterruptHandler:
   648                           	callstack 0
   649  000502                     PWM2_16BIT_Slice1Output2_SetInterruptHandler@InterruptHandler:
   650                           	callstack 0
   651  000502                     PWM2_16BIT_Period_SetInterruptHandler@InterruptHandler:
   652                           	callstack 0
   653  000502                     FLASH_EraseBlock@flashAddr:
   654                           	callstack 0
   655  000502                     FLASH_WriteWord_ByWord@flashAddr:
   656                           	callstack 0
   657                           
   658                           ; 4 bytes @ 0x1
   659  000502                     	ds	1
   660  000503                     SST26VF064B_Command@command:
   661                           	callstack 0
   662  000503                     SST26VF064B_SPI_ReadByte@value:
   663                           	callstack 0
   664  000503                     SST26VF064B_SPI_ReadBuffer@buffer:
   665                           	callstack 0
   666  000503                     SST26VF064B_WriteAddress@address:
   667                           	callstack 0
   668                           
   669                           ; 4 bytes @ 0x2
   670  000503                     	ds	1
   671  000504                     ??_AUDIO_ReadMetaData:
   672  000504                     DATAEE_WriteByte@bData:
   673                           	callstack 0
   674  000504                     SST26VF064B_Busy@temp:
   675                           	callstack 0
   676  000504                     TMR1_StopAndStartTimer@delay:
   677                           	callstack 0
   678                           
   679                           ; 2 bytes @ 0x3
   680  000504                     	ds	1
   681  000505                     ??_TMR0_Initialize:
   682  000505                     DATAEE_WriteByte@GIEBitValue:
   683                           	callstack 0
   684  000505                     SST26VF064B_SPI_ReadBuffer@count:
   685                           	callstack 0
   686                           
   687                           ; 2 bytes @ 0x4
   688  000505                     	ds	1
   689  000506                     FLASH_EraseBlock@GIEBitValue:
   690                           	callstack 0
   691  000506                     FLASH_WriteWord_ByWord@GIEBitValue:
   692                           	callstack 0
   693                           
   694                           ; 1 bytes @ 0x5
   695  000506                     	ds	1
   696  000507                     SST26VF064B_WriteAddress@addr_hi:
   697                           	callstack 0
   698  000507                     SST26VF064B_GetDeviceInfo@info:
   699                           	callstack 0
   700  000507                     FLASH_EraseBlock@blockStartAddr:
   701                           	callstack 0
   702                           
   703                           ; 4 bytes @ 0x6
   704  000507                     	ds	1
   705  000508                     SST26VF064B_WriteAddress@addr_mi:
   706                           	callstack 0
   707                           
   708                           ; 1 bytes @ 0x7
   709  000508                     	ds	1
   710  000509                     SST26VF064B_WriteAddress@addr_lo:
   711                           	callstack 0
   712  000509                     SST26VF064B_Initialize@deviceInfo:
   713                           	callstack 0
   714                           
   715                           ; 3 bytes @ 0x8
   716  000509                     	ds	1
   717  00050A                     AUDIO_Playback@flashAddr:
   718                           	callstack 0
   719                           
   720                           ; 4 bytes @ 0x9
   721  00050A                     	ds	1
   722  00050B                     FLASH_ErasePages@flashAddr:
   723                           	callstack 0
   724                           
   725                           ; 4 bytes @ 0xA
   726  00050B                     	ds	1
   727  00050C                     
   728                           ; 1 bytes @ 0xB
   729  00050C                     	ds	2
   730  00050E                     AUDIO_Playback@numPages:
   731                           	callstack 0
   732                           
   733                           ; 2 bytes @ 0xD
   734  00050E                     	ds	1
   735  00050F                     FLASH_ErasePages@numPages:
   736                           	callstack 0
   737                           
   738                           ; 2 bytes @ 0xE
   739  00050F                     	ds	1
   740  000510                     AUDIO_Playback@i:
   741                           	callstack 0
   742                           
   743                           ; 2 bytes @ 0xF
   744  000510                     	ds	1
   745  000511                     FLASH_ErasePages@i:
   746                           	callstack 0
   747                           
   748                           ; 2 bytes @ 0x10
   749  000511                     	ds	1
   750  000512                     AUDIO_Playback@i_3992:
   751                           	callstack 0
   752                           
   753                           ; 2 bytes @ 0x11
   754  000512                     	ds	1
   755  000513                     ??_AUDIO_Record:
   756                           
   757                           ; 1 bytes @ 0x12
   758  000513                     	ds	3
   759  000516                     AUDIO_Record@blockStartAddr:
   760                           	callstack 0
   761                           
   762                           ; 4 bytes @ 0x15
   763  000516                     	ds	4
   764  00051A                     AUDIO_Record@maxFlashAddr:
   765                           	callstack 0
   766                           
   767                           ; 4 bytes @ 0x19
   768  00051A                     	ds	4
   769  00051E                     AUDIO_Record@bufferRamPtr:
   770                           	callstack 0
   771                           
   772                           ; 2 bytes @ 0x1D
   773  00051E                     	ds	2
   774  000520                     AUDIO_Record@numPagesWritten:
   775                           	callstack 0
   776                           
   777                           ; 2 bytes @ 0x1F
   778  000520                     	ds	2
   779  000522                     AUDIO_Record@i:
   780                           	callstack 0
   781                           
   782                           ; 2 bytes @ 0x21
   783  000522                     	ds	2
   784  000524                     AUDIO_Record@flashAddr:
   785                           	callstack 0
   786                           
   787                           ; 4 bytes @ 0x23
   788  000524                     	ds	4
   789  000528                     
   790                           ; 1 bytes @ 0x27
   791 ;;
   792 ;;Main: autosize = 0, tempsize = 0, incstack = 0, save=0
   793 ;;
   794 ;; *************** function _main *****************
   795 ;; Defined at:
   796 ;;		line 985 in file "main.c"
   797 ;; Parameters:    Size  Location     Type
   798 ;;		None
   799 ;; Auto vars:     Size  Location     Type
   800 ;;		None
   801 ;; Return value:  Size  Location     Type
   802 ;;                  1    wreg      void 
   803 ;; Registers used:
   804 ;;		wreg, fsr2l, fsr2h, status,2, status,0, cstack
   805 ;; Tracked objects:
   806 ;;		On entry : 0/0
   807 ;;		On exit  : 0/0
   808 ;;		Unchanged: 0/0
   809 ;; Data sizes:     COMRAM   BANK5   BANK6   BANK7   BANK8   BANK9  BANK10  BANK11  BANK12  BANK13  BANK14  BANK15  BANK1
      +6  BANK17  BANK18  BANK19  BANK20  BANK21  BANK22  BANK23  BANK24  BANK25  BANK26  BANK27  BANK28  BANK29  BANK30  BANK3
      +1  BANK32  BANK33  BANK34  BANK35  BANK36
   810 ;;      Params:         0       0       0       0       0       0       0       0       0       0       0       0       
      +0       0       0       0       0       0       0       0       0       0       0       0       0       0       0       
      +0       0       0       0       0       0
   811 ;;      Locals:         0       0       0       0       0       0       0       0       0       0       0       0       
      +0       0       0       0       0       0       0       0       0       0       0       0       0       0       0       
      +0       0       0       0       0       0
   812 ;;      Temps:          0       0       0       0       0       0       0       0       0       0       0       0       
      +0       0       0       0       0       0       0       0       0       0       0       0       0       0       0       
      +0       0       0       0       0       0
   813 ;;      Totals:         0       0       0       0       0       0       0       0       0       0       0       0       
      +0       0       0       0       0       0       0       0       0       0       0       0       0       0       0       
      +0       0       0       0       0       0
   814 ;;Total ram usage:        0 bytes
   815 ;; Hardware stack levels required when called:    9
   816 ;; This function calls:
   817 ;;		_APP_Initialize
   818 ;;		_AUDIO_Erase
   819 ;;		_AUDIO_Idle
   820 ;;		_AUDIO_Passthrough
   821 ;;		_AUDIO_Playback
   822 ;;		_AUDIO_Record
   823 ;;		_SYSTEM_Initialize
   824 ;; This function is called by:
   825 ;;		Startup code after reset
   826 ;; This function uses a non-reentrant model
   827 ;;
   828                           
   829                           	psect	text0
   830  0030BA                     __ptext0:
   831                           	callstack 0
   832  0030BA                     _main:
   833                           	callstack 119
   834  0030BA                     
   835                           ;main.c: 988:     SYSTEM_Initialize();
   836  0030BA  EC52  F019         	call	_SYSTEM_Initialize	;wreg free
   837  0030BE                     
   838                           ;main.c: 995:     (INTCON0bits.GIEH = 1);
   839  0030BE  8ED6               	bsf	214,7,c	;volatile
   840  0030C0                     
   841                           ;main.c: 998:     (INTCON0bits.GIEL = 1);
   842  0030C0  8CD6               	bsf	214,6,c	;volatile
   843  0030C2                     
   844                           ;main.c: 1010:     APP_Initialize();
   845  0030C2  ECE4  F019         	call	_APP_Initialize	;wreg free
   846  0030C6                     l5627:
   847                           
   848                           ;main.c: 1014:     {;main.c: 1015:         if(mode == Idle) {
   849  0030C6  503F               	movf	_mode^(0+1280),w,c
   850  0030C8  A4D8               	btfss	status,2,c
   851  0030CA  EF69  F018         	goto	u1971
   852  0030CE  EF6B  F018         	goto	u1970
   853  0030D2                     u1971:
   854  0030D2  EF6F  F018         	goto	l5631
   855  0030D6                     u1970:
   856  0030D6                     
   857                           ;main.c: 1016:             AUDIO_Idle();
   858  0030D6  EC07  F016         	call	_AUDIO_Idle	;wreg free
   859                           
   860                           ;main.c: 1017:         }
   861  0030DA  EF63  F018         	goto	l5627
   862  0030DE                     l5631:
   863  0030DE  043F               	decf	_mode^(0+1280),w,c
   864  0030E0  A4D8               	btfss	status,2,c
   865  0030E2  EF75  F018         	goto	u1981
   866  0030E6  EF77  F018         	goto	u1980
   867  0030EA                     u1981:
   868  0030EA  EF7B  F018         	goto	l5635
   869  0030EE                     u1980:
   870  0030EE                     
   871                           ;main.c: 1020:             AUDIO_Record();
   872  0030EE  EC84  F012         	call	_AUDIO_Record	;wreg free
   873                           
   874                           ;main.c: 1021:         }
   875  0030F2  EF63  F018         	goto	l5627
   876  0030F6                     l5635:
   877  0030F6  0E02               	movlw	2
   878  0030F8  183F               	xorwf	_mode^(0+1280),w,c
   879  0030FA  A4D8               	btfss	status,2,c
   880  0030FC  EF82  F018         	goto	u1991
   881  003100  EF84  F018         	goto	u1990
   882  003104                     u1991:
   883  003104  EF88  F018         	goto	l5639
   884  003108                     u1990:
   885  003108                     
   886                           ;main.c: 1024:             AUDIO_Playback();
   887  003108  EC1C  F015         	call	_AUDIO_Playback	;wreg free
   888                           
   889                           ;main.c: 1025:         }
   890  00310C  EF63  F018         	goto	l5627
   891  003110                     l5639:
   892  003110  0E03               	movlw	3
   893  003112  183F               	xorwf	_mode^(0+1280),w,c
   894  003114  A4D8               	btfss	status,2,c
   895  003116  EF8F  F018         	goto	u2001
   896  00311A  EF91  F018         	goto	u2000
   897  00311E                     u2001:
   898  00311E  EF95  F018         	goto	l5643
   899  003122                     u2000:
   900  003122                     
   901                           ;main.c: 1028:             AUDIO_Erase();
   902  003122  EC6C  F017         	call	_AUDIO_Erase	;wreg free
   903                           
   904                           ;main.c: 1029:         }
   905  003126  EF63  F018         	goto	l5627
   906  00312A                     l5643:
   907  00312A  0E04               	movlw	4
   908  00312C  183F               	xorwf	_mode^(0+1280),w,c
   909  00312E  A4D8               	btfss	status,2,c
   910  003130  EF9C  F018         	goto	u2011
   911  003134  EF9E  F018         	goto	u2010
   912  003138                     u2011:
   913  003138  EFA2  F018         	goto	l2118
   914  00313C                     u2010:
   915  00313C                     
   916                           ;main.c: 1032:             AUDIO_Passthrough();
   917  00313C  ECB4  F019         	call	_AUDIO_Passthrough	;wreg free
   918                           
   919                           ;main.c: 1033:         }
   920  003140  EF63  F018         	goto	l5627
   921  003144                     l2118:
   922  003144  EF63  F018         	goto	l5627
   923  003148  EF81  F000         	goto	start
   924  00314C                     __end_of_main:
   925                           	callstack 0
   926                           
   927 ;; *************** function _SYSTEM_Initialize *****************
   928 ;; Defined at:
   929 ;;		line 50 in file "mcc_generated_files/mcc.c"
   930 ;; Parameters:    Size  Location     Type
   931 ;;		None
   932 ;; Auto vars:     Size  Location     Type
   933 ;;		None
   934 ;; Return value:  Size  Location     Type
   935 ;;                  1    wreg      void 
   936 ;; Registers used:
   937 ;;		wreg, status,2, status,0, cstack
   938 ;; Tracked objects:
   939 ;;		On entry : 0/0
   940 ;;		On exit  : 0/0
   941 ;;		Unchanged: 0/0
   942 ;; Data sizes:     COMRAM   BANK5   BANK6   BANK7   BANK8   BANK9  BANK10  BANK11  BANK12  BANK13  BANK14  BANK15  BANK1
      +6  BANK17  BANK18  BANK19  BANK20  BANK21  BANK22  BANK23  BANK24  BANK25  BANK26  BANK27  BANK28  BANK29  BANK30  BANK3
      +1  BANK32  BANK33  BANK34  BANK35  BANK36
   943 ;;      Params:         0       0       0       0       0       0       0       0       0       0       0       0       
      +0       0       0       0       0       0       0       0       0       0       0       0       0       0       0       
      +0       0       0       0       0       0
   944 ;;      Locals:         0       0       0       0       0       0       0       0       0       0       0       0       
      +0       0       0       0       0       0       0       0       0       0       0       0       0       0       0       
      +0       0       0       0       0       0
   945 ;;      Temps:          0       0       0       0       0       0       0       0       0       0       0       0       
      +0       0       0       0       0       0       0       0       0       0       0       0       0       0       0       
      +0       0       0       0       0       0
   946 ;;      Totals:         0       0       0       0       0       0       0       0       0       0       0       0       
      +0       0       0       0       0       0       0       0       0       0       0       0       0       0       0       
      +0       0       0       0       0       0
   947 ;;Total ram usage:        0 bytes
   948 ;; Hardware stack levels used:    1
   949 ;; Hardware stack levels required when called:    5
   950 ;; This function calls:
   951 ;;		_ADCC_Initialize
   952 ;;		_CLC1_Initialize
   953 ;;		_CLC2_Initialize
   954 ;;		_CMP1_Initialize
   955 ;;		_DAC1_Initialize
   956 ;;		_DMA1_Initialize
   957 ;;		_DMA2_Initialize
   958 ;;		_DMA3_Initialize
   959 ;;		_DMA4_Initialize
   960 ;;		_DMA5_Initialize
   961 ;;		_DMA6_Initialize
   962 ;;		_INTERRUPT_Initialize
   963 ;;		_OSCILLATOR_Initialize
   964 ;;		_PIN_MANAGER_Initialize
   965 ;;		_PMD_Initialize
   966 ;;		_PWM2_16BIT_Initialize
   967 ;;		_SPI1_Initialize
   968 ;;		_SystemArbiter_Initialize
   969 ;;		_TMR0_Initialize
   970 ;;		_TMR1_Initialize
   971 ;;		_TMR2_Initialize
   972 ;;		_TMR4_Initialize
   973 ;;		_TMR6_Initialize
   974 ;;		_UART1_Initialize
   975 ;; This function is called by:
   976 ;;		_main
   977 ;; This function uses a non-reentrant model
   978 ;;
   979                           
   980                           	psect	text1
   981  0032A4                     __ptext1:
   982                           	callstack 0
   983  0032A4                     _SYSTEM_Initialize:
   984                           	callstack 122
   985  0032A4                     
   986                           ;mcc_generated_files/mcc.c: 52:     INTERRUPT_Initialize();
   987  0032A4  ECA4  F01B         	call	_INTERRUPT_Initialize	;wreg free
   988                           
   989                           ;mcc_generated_files/mcc.c: 53:     PMD_Initialize();
   990  0032A8  EC3F  F01D         	call	_PMD_Initialize	;wreg free
   991                           
   992                           ;mcc_generated_files/mcc.c: 54:     PIN_MANAGER_Initialize();
   993  0032AC  EC8E  F016         	call	_PIN_MANAGER_Initialize	;wreg free
   994                           
   995                           ;mcc_generated_files/mcc.c: 55:     OSCILLATOR_Initialize();
   996  0032B0  ECF7  F01D         	call	_OSCILLATOR_Initialize	;wreg free
   997                           
   998                           ;mcc_generated_files/mcc.c: 56:     DMA2_Initialize();
   999  0032B4  EC58  F01B         	call	_DMA2_Initialize	;wreg free
  1000                           
  1001                           ;mcc_generated_files/mcc.c: 57:     DMA6_Initialize();
  1002  0032B8  ECC0  F01A         	call	_DMA6_Initialize	;wreg free
  1003                           
  1004                           ;mcc_generated_files/mcc.c: 58:     DMA4_Initialize();
  1005  0032BC  EC0C  F01B         	call	_DMA4_Initialize	;wreg free
  1006                           
  1007                           ;mcc_generated_files/mcc.c: 59:     ADCC_Initialize();
  1008  0032C0  EC14  F01A         	call	_ADCC_Initialize	;wreg free
  1009                           
  1010                           ;mcc_generated_files/mcc.c: 60:     DMA1_Initialize();
  1011  0032C4  EC7E  F01B         	call	_DMA1_Initialize	;wreg free
  1012                           
  1013                           ;mcc_generated_files/mcc.c: 61:     CLC2_Initialize();
  1014  0032C8  EC07  F01C         	call	_CLC2_Initialize	;wreg free
  1015                           
  1016                           ;mcc_generated_files/mcc.c: 62:     TMR4_Initialize();
  1017  0032CC  ECCA  F01D         	call	_TMR4_Initialize	;wreg free
  1018                           
  1019                           ;mcc_generated_files/mcc.c: 63:     TMR2_Initialize();
  1020  0032D0  ECD9  F01D         	call	_TMR2_Initialize	;wreg free
  1021  0032D4                     
  1022                           ;mcc_generated_files/mcc.c: 64:     TMR0_Initialize();
  1023  0032D4  ECC6  F01B         	call	_TMR0_Initialize	;wreg free
  1024  0032D8                     
  1025                           ;mcc_generated_files/mcc.c: 65:     TMR6_Initialize();
  1026  0032D8  EC76  F01C         	call	_TMR6_Initialize	;wreg free
  1027                           
  1028                           ;mcc_generated_files/mcc.c: 66:     CLC1_Initialize();
  1029  0032DC  EC23  F01C         	call	_CLC1_Initialize	;wreg free
  1030                           
  1031                           ;mcc_generated_files/mcc.c: 67:     CMP1_Initialize();
  1032  0032E0  EC73  F01E         	call	_CMP1_Initialize	;wreg free
  1033                           
  1034                           ;mcc_generated_files/mcc.c: 68:     DMA3_Initialize();
  1035  0032E4  EC32  F01B         	call	_DMA3_Initialize	;wreg free
  1036                           
  1037                           ;mcc_generated_files/mcc.c: 69:     DMA5_Initialize();
  1038  0032E8  ECE6  F01A         	call	_DMA5_Initialize	;wreg free
  1039                           
  1040                           ;mcc_generated_files/mcc.c: 70:     DAC1_Initialize();
  1041  0032EC  ECE0  F01E         	call	_DAC1_Initialize	;wreg free
  1042  0032F0                     
  1043                           ;mcc_generated_files/mcc.c: 71:     TMR1_Initialize();
  1044  0032F0  EC5B  F01C         	call	_TMR1_Initialize	;wreg free
  1045  0032F4                     
  1046                           ;mcc_generated_files/mcc.c: 72:     UART1_Initialize();
  1047  0032F4  ECE3  F018         	call	_UART1_Initialize	;wreg free
  1048                           
  1049                           ;mcc_generated_files/mcc.c: 73:     SPI1_Initialize();
  1050  0032F8  EC2E  F01E         	call	_SPI1_Initialize	;wreg free
  1051  0032FC                     
  1052                           ;mcc_generated_files/mcc.c: 74:     PWM2_16BIT_Initialize();
  1053  0032FC  ECA6  F018         	call	_PWM2_16BIT_Initialize	;wreg free
  1054  003300                     
  1055                           ;mcc_generated_files/mcc.c: 75:     SystemArbiter_Initialize();
  1056  003300  ECAF  F01E         	call	_SystemArbiter_Initialize	;wreg free
  1057  003304  0012               	return		;funcret
  1058  003306                     __end_of_SYSTEM_Initialize:
  1059                           	callstack 0
  1060                           
  1061 ;; *************** function _UART1_Initialize *****************
  1062 ;; Defined at:
  1063 ;;		line 66 in file "mcc_generated_files/uart1.c"
  1064 ;; Parameters:    Size  Location     Type
  1065 ;;		None
  1066 ;; Auto vars:     Size  Location     Type
  1067 ;;		None
  1068 ;; Return value:  Size  Location     Type
  1069 ;;                  1    wreg      void 
  1070 ;; Registers used:
  1071 ;;		wreg, status,2, status,0, cstack
  1072 ;; Tracked objects:
  1073 ;;		On entry : 0/0
  1074 ;;		On exit  : 0/0
  1075 ;;		Unchanged: 0/0
  1076 ;; Data sizes:     COMRAM   BANK5   BANK6   BANK7   BANK8   BANK9  BANK10  BANK11  BANK12  BANK13  BANK14  BANK15  BANK1
      +6  BANK17  BANK18  BANK19  BANK20  BANK21  BANK22  BANK23  BANK24  BANK25  BANK26  BANK27  BANK28  BANK29  BANK30  BANK3
      +1  BANK32  BANK33  BANK34  BANK35  BANK36
  1077 ;;      Params:         0       0       0       0       0       0       0       0       0       0       0       0       
      +0       0       0       0       0       0       0       0       0       0       0       0       0       0       0       
      +0       0       0       0       0       0
  1078 ;;      Locals:         0       0       0       0       0       0       0       0       0       0       0       0       
      +0       0       0       0       0       0       0       0       0       0       0       0       0       0       0       
      +0       0       0       0       0       0
  1079 ;;      Temps:          0       0       0       0       0       0       0       0       0       0       0       0       
      +0       0       0       0       0       0       0       0       0       0       0       0       0       0       0       
      +0       0       0       0       0       0
  1080 ;;      Totals:         0       0       0       0       0       0       0       0       0       0       0       0       
      +0       0       0       0       0       0       0       0       0       0       0       0       0       0       0       
      +0       0       0       0       0       0
  1081 ;;Total ram usage:        0 bytes
  1082 ;; Hardware stack levels used:    1
  1083 ;; Hardware stack levels required when called:    4
  1084 ;; This function calls:
  1085 ;;		_UART1_SetErrorHandler
  1086 ;;		_UART1_SetFramingErrorHandler
  1087 ;;		_UART1_SetOverrunErrorHandler
  1088 ;; This function is called by:
  1089 ;;		_SYSTEM_Initialize
  1090 ;; This function uses a non-reentrant model
  1091 ;;
  1092                           
  1093                           	psect	text2
  1094  0031C6                     __ptext2:
  1095                           	callstack 0
  1096  0031C6                     _UART1_Initialize:
  1097                           	callstack 122
  1098  0031C6                     
  1099                           ;mcc_generated_files/uart1.c: 73:     U1P1L = 0x00;
  1100  0031C6  0E00               	movlw	0
  1101  0031C8  0102               	movlb	2	; () banked
  1102  0031CA  6FA5               	movwf	165,b	;volatile
  1103                           
  1104                           ;mcc_generated_files/uart1.c: 76:     U1P1H = 0x00;
  1105  0031CC  0E00               	movlw	0
  1106  0031CE  6FA6               	movwf	166,b	;volatile
  1107                           
  1108                           ;mcc_generated_files/uart1.c: 79:     U1P2L = 0x00;
  1109  0031D0  0E00               	movlw	0
  1110  0031D2  6FA7               	movwf	167,b	;volatile
  1111                           
  1112                           ;mcc_generated_files/uart1.c: 82:     U1P2H = 0x00;
  1113  0031D4  0E00               	movlw	0
  1114  0031D6  6FA8               	movwf	168,b	;volatile
  1115                           
  1116                           ;mcc_generated_files/uart1.c: 85:     U1P3L = 0x00;
  1117  0031D8  0E00               	movlw	0
  1118  0031DA  6FA9               	movwf	169,b	;volatile
  1119                           
  1120                           ;mcc_generated_files/uart1.c: 88:     U1P3H = 0x00;
  1121  0031DC  0E00               	movlw	0
  1122  0031DE  6FAA               	movwf	170,b	;volatile
  1123                           
  1124                           ;mcc_generated_files/uart1.c: 91:     U1CON0 = 0xB0;
  1125  0031E0  0EB0               	movlw	176
  1126  0031E2  6FAB               	movwf	171,b	;volatile
  1127                           
  1128                           ;mcc_generated_files/uart1.c: 94:     U1CON1 = 0x80;
  1129  0031E4  0E80               	movlw	128
  1130  0031E6  6FAC               	movwf	172,b	;volatile
  1131                           
  1132                           ;mcc_generated_files/uart1.c: 97:     U1CON2 = 0x00;
  1133  0031E8  0E00               	movlw	0
  1134  0031EA  6FAD               	movwf	173,b	;volatile
  1135                           
  1136                           ;mcc_generated_files/uart1.c: 100:     U1BRGL = 0x8A;
  1137  0031EC  0E8A               	movlw	138
  1138  0031EE  6FAE               	movwf	174,b	;volatile
  1139                           
  1140                           ;mcc_generated_files/uart1.c: 103:     U1BRGH = 0x00;
  1141  0031F0  0E00               	movlw	0
  1142  0031F2  6FAF               	movwf	175,b	;volatile
  1143                           
  1144                           ;mcc_generated_files/uart1.c: 106:     U1FIFO = 0x00;
  1145  0031F4  0E00               	movlw	0
  1146  0031F6  6FB0               	movwf	176,b	;volatile
  1147                           
  1148                           ;mcc_generated_files/uart1.c: 109:     U1UIR = 0x00;
  1149  0031F8  0E00               	movlw	0
  1150  0031FA  6FB1               	movwf	177,b	;volatile
  1151                           
  1152                           ;mcc_generated_files/uart1.c: 112:     U1ERRIR = 0x00;
  1153  0031FC  0E00               	movlw	0
  1154  0031FE  6FB2               	movwf	178,b	;volatile
  1155                           
  1156                           ;mcc_generated_files/uart1.c: 115:     U1ERRIE = 0x00;
  1157  003200  0E00               	movlw	0
  1158  003202  6FB3               	movwf	179,b	;volatile
  1159  003204                     
  1160                           ; BSR set to: 2
  1161                           ;mcc_generated_files/uart1.c: 118:     UART1_SetFramingErrorHandler(UART1_DefaultFraming
      +                          ErrorHandler);
  1162  003204  0E00               	movlw	0
  1163  003206  6E02               	movwf	UART1_SetFramingErrorHandler@interruptHandler^(0+1280),c
  1164  003208  0E00               	movlw	0
  1165  00320A  6E03               	movwf	(UART1_SetFramingErrorHandler@interruptHandler+1)^(0+1280),c
  1166  00320C  0E00               	movlw	0
  1167  00320E  6E04               	movwf	(UART1_SetFramingErrorHandler@interruptHandler+2)^(0+1280),c
  1168  003210  ECA1  F01E         	call	_UART1_SetFramingErrorHandler	;wreg free
  1169  003214                     
  1170                           ;mcc_generated_files/uart1.c: 119:     UART1_SetOverrunErrorHandler(UART1_DefaultOverrun
      +                          ErrorHandler);
  1171  003214  0E00               	movlw	0
  1172  003216  6E02               	movwf	UART1_SetOverrunErrorHandler@interruptHandler^(0+1280),c
  1173  003218  0E00               	movlw	0
  1174  00321A  6E03               	movwf	(UART1_SetOverrunErrorHandler@interruptHandler+1)^(0+1280),c
  1175  00321C  0E00               	movlw	0
  1176  00321E  6E04               	movwf	(UART1_SetOverrunErrorHandler@interruptHandler+2)^(0+1280),c
  1177  003220  EC9A  F01E         	call	_UART1_SetOverrunErrorHandler	;wreg free
  1178  003224                     
  1179                           ;mcc_generated_files/uart1.c: 120:     UART1_SetErrorHandler(UART1_DefaultErrorHandler);
  1180  003224  0E00               	movlw	0
  1181  003226  6E02               	movwf	UART1_SetErrorHandler@interruptHandler^(0+1280),c
  1182  003228  0E00               	movlw	0
  1183  00322A  6E03               	movwf	(UART1_SetErrorHandler@interruptHandler+1)^(0+1280),c
  1184  00322C  0E00               	movlw	0
  1185  00322E  6E04               	movwf	(UART1_SetErrorHandler@interruptHandler+2)^(0+1280),c
  1186  003230  ECA8  F01E         	call	_UART1_SetErrorHandler	;wreg free
  1187  003234                     
  1188                           ;mcc_generated_files/uart1.c: 122:     uart1RxLastError.status = 0;
  1189  003234  0E00               	movlw	0
  1190  003236  6E47               	movwf	_uart1RxLastError^(0+1280),c	;volatile
  1191  003238  0012               	return		;funcret
  1192  00323A                     __end_of_UART1_Initialize:
  1193                           	callstack 0
  1194                           
  1195 ;; *************** function _UART1_SetOverrunErrorHandler *****************
  1196 ;; Defined at:
  1197 ;;		line 194 in file "mcc_generated_files/uart1.c"
  1198 ;; Parameters:    Size  Location     Type
  1199 ;;  interruptHan    3    1[COMRAM] PTR FTN()void 
  1200 ;;		 -> UART1_DefaultOverrunErrorHandler(1), 
  1201 ;; Auto vars:     Size  Location     Type
  1202 ;;		None
  1203 ;; Return value:  Size  Location     Type
  1204 ;;                  1    wreg      void 
  1205 ;; Registers used:
  1206 ;;		wreg, status,2, status,0
  1207 ;; Tracked objects:
  1208 ;;		On entry : 0/0
  1209 ;;		On exit  : 0/0
  1210 ;;		Unchanged: 0/0
  1211 ;; Data sizes:     COMRAM   BANK5   BANK6   BANK7   BANK8   BANK9  BANK10  BANK11  BANK12  BANK13  BANK14  BANK15  BANK1
      +6  BANK17  BANK18  BANK19  BANK20  BANK21  BANK22  BANK23  BANK24  BANK25  BANK26  BANK27  BANK28  BANK29  BANK30  BANK3
      +1  BANK32  BANK33  BANK34  BANK35  BANK36
  1212 ;;      Params:         3       0       0       0       0       0       0       0       0       0       0       0       
      +0       0       0       0       0       0       0       0       0       0       0       0       0       0       0       
      +0       0       0       0       0       0
  1213 ;;      Locals:         0       0       0       0       0       0       0       0       0       0       0       0       
      +0       0       0       0       0       0       0       0       0       0       0       0       0       0       0       
      +0       0       0       0       0       0
  1214 ;;      Temps:          0       0       0       0       0       0       0       0       0       0       0       0       
      +0       0       0       0       0       0       0       0       0       0       0       0       0       0       0       
      +0       0       0       0       0       0
  1215 ;;      Totals:         3       0       0       0       0       0       0       0       0       0       0       0       
      +0       0       0       0       0       0       0       0       0       0       0       0       0       0       0       
      +0       0       0       0       0       0
  1216 ;;Total ram usage:        3 bytes
  1217 ;; Hardware stack levels used:    1
  1218 ;; Hardware stack levels required when called:    3
  1219 ;; This function calls:
  1220 ;;		Nothing
  1221 ;; This function is called by:
  1222 ;;		_UART1_Initialize
  1223 ;; This function uses a non-reentrant model
  1224 ;;
  1225                           
  1226                           	psect	text3
  1227  003D34                     __ptext3:
  1228                           	callstack 0
  1229  003D34                     _UART1_SetOverrunErrorHandler:
  1230                           	callstack 122
  1231  003D34                     
  1232                           ;mcc_generated_files/uart1.c: 195:     UART1_OverrunErrorHandler = interruptHandler;
  1233  003D34  C502  F563         	movff	UART1_SetOverrunErrorHandler@interruptHandler,_UART1_OverrunErrorHandler
  1234  003D38  C503  F564         	movff	UART1_SetOverrunErrorHandler@interruptHandler+1,_UART1_OverrunErrorHandler+1
  1235  003D3C  C504  F565         	movff	UART1_SetOverrunErrorHandler@interruptHandler+2,_UART1_OverrunErrorHandler+2
  1236  003D40  0012               	return		;funcret
  1237  003D42                     __end_of_UART1_SetOverrunErrorHandler:
  1238                           	callstack 0
  1239                           
  1240 ;; *************** function _UART1_SetFramingErrorHandler *****************
  1241 ;; Defined at:
  1242 ;;		line 190 in file "mcc_generated_files/uart1.c"
  1243 ;; Parameters:    Size  Location     Type
  1244 ;;  interruptHan    3    1[COMRAM] PTR FTN()void 
  1245 ;;		 -> UART1_DefaultFramingErrorHandler(1), 
  1246 ;; Auto vars:     Size  Location     Type
  1247 ;;		None
  1248 ;; Return value:  Size  Location     Type
  1249 ;;                  1    wreg      void 
  1250 ;; Registers used:
  1251 ;;		wreg, status,2, status,0
  1252 ;; Tracked objects:
  1253 ;;		On entry : 0/0
  1254 ;;		On exit  : 0/0
  1255 ;;		Unchanged: 0/0
  1256 ;; Data sizes:     COMRAM   BANK5   BANK6   BANK7   BANK8   BANK9  BANK10  BANK11  BANK12  BANK13  BANK14  BANK15  BANK1
      +6  BANK17  BANK18  BANK19  BANK20  BANK21  BANK22  BANK23  BANK24  BANK25  BANK26  BANK27  BANK28  BANK29  BANK30  BANK3
      +1  BANK32  BANK33  BANK34  BANK35  BANK36
  1257 ;;      Params:         3       0       0       0       0       0       0       0       0       0       0       0       
      +0       0       0       0       0       0       0       0       0       0       0       0       0       0       0       
      +0       0       0       0       0       0
  1258 ;;      Locals:         0       0       0       0       0       0       0       0       0       0       0       0       
      +0       0       0       0       0       0       0       0       0       0       0       0       0       0       0       
      +0       0       0       0       0       0
  1259 ;;      Temps:          0       0       0       0       0       0       0       0       0       0       0       0       
      +0       0       0       0       0       0       0       0       0       0       0       0       0       0       0       
      +0       0       0       0       0       0
  1260 ;;      Totals:         3       0       0       0       0       0       0       0       0       0       0       0       
      +0       0       0       0       0       0       0       0       0       0       0       0       0       0       0       
      +0       0       0       0       0       0
  1261 ;;Total ram usage:        3 bytes
  1262 ;; Hardware stack levels used:    1
  1263 ;; Hardware stack levels required when called:    3
  1264 ;; This function calls:
  1265 ;;		Nothing
  1266 ;; This function is called by:
  1267 ;;		_UART1_Initialize
  1268 ;; This function uses a non-reentrant model
  1269 ;;
  1270                           
  1271                           	psect	text4
  1272  003D42                     __ptext4:
  1273                           	callstack 0
  1274  003D42                     _UART1_SetFramingErrorHandler:
  1275                           	callstack 122
  1276  003D42                     
  1277                           ;mcc_generated_files/uart1.c: 191:     UART1_FramingErrorHandler = interruptHandler;
  1278  003D42  C502  F557         	movff	UART1_SetFramingErrorHandler@interruptHandler,_UART1_FramingErrorHandler
  1279  003D46  C503  F558         	movff	UART1_SetFramingErrorHandler@interruptHandler+1,_UART1_FramingErrorHandler+1
  1280  003D4A  C504  F559         	movff	UART1_SetFramingErrorHandler@interruptHandler+2,_UART1_FramingErrorHandler+2
  1281  003D4E  0012               	return		;funcret
  1282  003D50                     __end_of_UART1_SetFramingErrorHandler:
  1283                           	callstack 0
  1284                           
  1285 ;; *************** function _UART1_SetErrorHandler *****************
  1286 ;; Defined at:
  1287 ;;		line 198 in file "mcc_generated_files/uart1.c"
  1288 ;; Parameters:    Size  Location     Type
  1289 ;;  interruptHan    3    1[COMRAM] PTR FTN()void 
  1290 ;;		 -> UART1_DefaultErrorHandler(1), 
  1291 ;; Auto vars:     Size  Location     Type
  1292 ;;		None
  1293 ;; Return value:  Size  Location     Type
  1294 ;;                  1    wreg      void 
  1295 ;; Registers used:
  1296 ;;		wreg, status,2, status,0
  1297 ;; Tracked objects:
  1298 ;;		On entry : 0/0
  1299 ;;		On exit  : 0/0
  1300 ;;		Unchanged: 0/0
  1301 ;; Data sizes:     COMRAM   BANK5   BANK6   BANK7   BANK8   BANK9  BANK10  BANK11  BANK12  BANK13  BANK14  BANK15  BANK1
      +6  BANK17  BANK18  BANK19  BANK20  BANK21  BANK22  BANK23  BANK24  BANK25  BANK26  BANK27  BANK28  BANK29  BANK30  BANK3
      +1  BANK32  BANK33  BANK34  BANK35  BANK36
  1302 ;;      Params:         3       0       0       0       0       0       0       0       0       0       0       0       
      +0       0       0       0       0       0       0       0       0       0       0       0       0       0       0       
      +0       0       0       0       0       0
  1303 ;;      Locals:         0       0       0       0       0       0       0       0       0       0       0       0       
      +0       0       0       0       0       0       0       0       0       0       0       0       0       0       0       
      +0       0       0       0       0       0
  1304 ;;      Temps:          0       0       0       0       0       0       0       0       0       0       0       0       
      +0       0       0       0       0       0       0       0       0       0       0       0       0       0       0       
      +0       0       0       0       0       0
  1305 ;;      Totals:         3       0       0       0       0       0       0       0       0       0       0       0       
      +0       0       0       0       0       0       0       0       0       0       0       0       0       0       0       
      +0       0       0       0       0       0
  1306 ;;Total ram usage:        3 bytes
  1307 ;; Hardware stack levels used:    1
  1308 ;; Hardware stack levels required when called:    3
  1309 ;; This function calls:
  1310 ;;		Nothing
  1311 ;; This function is called by:
  1312 ;;		_UART1_Initialize
  1313 ;; This function uses a non-reentrant model
  1314 ;;
  1315                           
  1316                           	psect	text5
  1317  003D50                     __ptext5:
  1318                           	callstack 0
  1319  003D50                     _UART1_SetErrorHandler:
  1320                           	callstack 122
  1321  003D50                     
  1322                           ;mcc_generated_files/uart1.c: 199:     UART1_ErrorHandler = interruptHandler;
  1323  003D50  C502  F560         	movff	UART1_SetErrorHandler@interruptHandler,_UART1_ErrorHandler
  1324  003D54  C503  F561         	movff	UART1_SetErrorHandler@interruptHandler+1,_UART1_ErrorHandler+1
  1325  003D58  C504  F562         	movff	UART1_SetErrorHandler@interruptHandler+2,_UART1_ErrorHandler+2
  1326  003D5C  0012               	return		;funcret
  1327  003D5E                     __end_of_UART1_SetErrorHandler:
  1328                           	callstack 0
  1329                           
  1330 ;; *************** function _TMR6_Initialize *****************
  1331 ;; Defined at:
  1332 ;;		line 65 in file "mcc_generated_files/tmr6.c"
  1333 ;; Parameters:    Size  Location     Type
  1334 ;;		None
  1335 ;; Auto vars:     Size  Location     Type
  1336 ;;		None
  1337 ;; Return value:  Size  Location     Type
  1338 ;;                  1    wreg      void 
  1339 ;; Registers used:
  1340 ;;		wreg, status,2, status,0, cstack
  1341 ;; Tracked objects:
  1342 ;;		On entry : 0/0
  1343 ;;		On exit  : 0/0
  1344 ;;		Unchanged: 0/0
  1345 ;; Data sizes:     COMRAM   BANK5   BANK6   BANK7   BANK8   BANK9  BANK10  BANK11  BANK12  BANK13  BANK14  BANK15  BANK1
      +6  BANK17  BANK18  BANK19  BANK20  BANK21  BANK22  BANK23  BANK24  BANK25  BANK26  BANK27  BANK28  BANK29  BANK30  BANK3
      +1  BANK32  BANK33  BANK34  BANK35  BANK36
  1346 ;;      Params:         0       0       0       0       0       0       0       0       0       0       0       0       
      +0       0       0       0       0       0       0       0       0       0       0       0       0       0       0       
      +0       0       0       0       0       0
  1347 ;;      Locals:         0       0       0       0       0       0       0       0       0       0       0       0       
      +0       0       0       0       0       0       0       0       0       0       0       0       0       0       0       
      +0       0       0       0       0       0
  1348 ;;      Temps:          0       0       0       0       0       0       0       0       0       0       0       0       
      +0       0       0       0       0       0       0       0       0       0       0       0       0       0       0       
      +0       0       0       0       0       0
  1349 ;;      Totals:         0       0       0       0       0       0       0       0       0       0       0       0       
      +0       0       0       0       0       0       0       0       0       0       0       0       0       0       0       
      +0       0       0       0       0       0
  1350 ;;Total ram usage:        0 bytes
  1351 ;; Hardware stack levels used:    1
  1352 ;; Hardware stack levels required when called:    4
  1353 ;; This function calls:
  1354 ;;		_TMR6_SetInterruptHandler
  1355 ;; This function is called by:
  1356 ;;		_SYSTEM_Initialize
  1357 ;; This function uses a non-reentrant model
  1358 ;;
  1359                           
  1360                           	psect	text6
  1361  0038EC                     __ptext6:
  1362                           	callstack 0
  1363  0038EC                     _TMR6_Initialize:
  1364                           	callstack 122
  1365  0038EC                     
  1366                           ;mcc_generated_files/tmr6.c: 70:     T6CLKCON = 0x06;
  1367  0038EC  0E06               	movlw	6
  1368  0038EE  0103               	movlb	3	; () banked
  1369  0038F0  6F3E               	movwf	62,b	;volatile
  1370                           
  1371                           ;mcc_generated_files/tmr6.c: 73:     T6HLT = 0x00;
  1372  0038F2  0E00               	movlw	0
  1373  0038F4  6F3D               	movwf	61,b	;volatile
  1374                           
  1375                           ;mcc_generated_files/tmr6.c: 76:     T6RST = 0x00;
  1376  0038F6  0E00               	movlw	0
  1377  0038F8  6F3F               	movwf	63,b	;volatile
  1378                           
  1379                           ;mcc_generated_files/tmr6.c: 79:     T6PR = 0x9B;
  1380  0038FA  0E9B               	movlw	155
  1381  0038FC  6F3B               	movwf	59,b	;volatile
  1382                           
  1383                           ;mcc_generated_files/tmr6.c: 82:     T6TMR = 0x00;
  1384  0038FE  0E00               	movlw	0
  1385  003900  6F3A               	movwf	58,b	;volatile
  1386  003902                     
  1387                           ; BSR set to: 3
  1388                           ;mcc_generated_files/tmr6.c: 85:     PIR15bits.TMR6IF = 0;
  1389  003902  96BD               	bcf	189,3,c	;volatile
  1390  003904                     
  1391                           ; BSR set to: 3
  1392                           ;mcc_generated_files/tmr6.c: 88:     PIE15bits.TMR6IE = 1;
  1393  003904  86AD               	bsf	173,3,c	;volatile
  1394  003906                     
  1395                           ; BSR set to: 3
  1396                           ;mcc_generated_files/tmr6.c: 91:     TMR6_SetInterruptHandler(TMR6_DefaultInterruptHandl
      +                          er);
  1397  003906  0E8A               	movlw	low _TMR6_DefaultInterruptHandler
  1398  003908  6E02               	movwf	TMR6_SetInterruptHandler@InterruptHandler^(0+1280),c
  1399  00390A  0E3E               	movlw	high _TMR6_DefaultInterruptHandler
  1400  00390C  6E03               	movwf	(TMR6_SetInterruptHandler@InterruptHandler+1)^(0+1280),c
  1401  00390E  0E00               	movlw	low (_TMR6_DefaultInterruptHandler shr (0+16))
  1402  003910  6E04               	movwf	(TMR6_SetInterruptHandler@InterruptHandler+2)^(0+1280),c
  1403  003912  ECCB  F01E         	call	_TMR6_SetInterruptHandler	;wreg free
  1404  003916                     
  1405                           ;mcc_generated_files/tmr6.c: 94:     T6CON = 0x40;
  1406  003916  0E40               	movlw	64
  1407  003918  0103               	movlb	3	; () banked
  1408  00391A  6F3C               	movwf	60,b	;volatile
  1409  00391C                     
  1410                           ; BSR set to: 3
  1411  00391C  0012               	return		;funcret
  1412  00391E                     __end_of_TMR6_Initialize:
  1413                           	callstack 0
  1414                           
  1415 ;; *************** function _TMR4_Initialize *****************
  1416 ;; Defined at:
  1417 ;;		line 62 in file "mcc_generated_files/tmr4.c"
  1418 ;; Parameters:    Size  Location     Type
  1419 ;;		None
  1420 ;; Auto vars:     Size  Location     Type
  1421 ;;		None
  1422 ;; Return value:  Size  Location     Type
  1423 ;;                  1    wreg      void 
  1424 ;; Registers used:
  1425 ;;		wreg, status,2
  1426 ;; Tracked objects:
  1427 ;;		On entry : 0/0
  1428 ;;		On exit  : 0/0
  1429 ;;		Unchanged: 0/0
  1430 ;; Data sizes:     COMRAM   BANK5   BANK6   BANK7   BANK8   BANK9  BANK10  BANK11  BANK12  BANK13  BANK14  BANK15  BANK1
      +6  BANK17  BANK18  BANK19  BANK20  BANK21  BANK22  BANK23  BANK24  BANK25  BANK26  BANK27  BANK28  BANK29  BANK30  BANK3
      +1  BANK32  BANK33  BANK34  BANK35  BANK36
  1431 ;;      Params:         0       0       0       0       0       0       0       0       0       0       0       0       
      +0       0       0       0       0       0       0       0       0       0       0       0       0       0       0       
      +0       0       0       0       0       0
  1432 ;;      Locals:         0       0       0       0       0       0       0       0       0       0       0       0       
      +0       0       0       0       0       0       0       0       0       0       0       0       0       0       0       
      +0       0       0       0       0       0
  1433 ;;      Temps:          0       0       0       0       0       0       0       0       0       0       0       0       
      +0       0       0       0       0       0       0       0       0       0       0       0       0       0       0       
      +0       0       0       0       0       0
  1434 ;;      Totals:         0       0       0       0       0       0       0       0       0       0       0       0       
      +0       0       0       0       0       0       0       0       0       0       0       0       0       0       0       
      +0       0       0       0       0       0
  1435 ;;Total ram usage:        0 bytes
  1436 ;; Hardware stack levels used:    1
  1437 ;; Hardware stack levels required when called:    3
  1438 ;; This function calls:
  1439 ;;		Nothing
  1440 ;; This function is called by:
  1441 ;;		_SYSTEM_Initialize
  1442 ;; This function uses a non-reentrant model
  1443 ;;
  1444                           
  1445                           	psect	text7
  1446  003B94                     __ptext7:
  1447                           	callstack 0
  1448  003B94                     _TMR4_Initialize:
  1449                           	callstack 123
  1450  003B94                     
  1451                           ;mcc_generated_files/tmr4.c: 67:     T4CLKCON = 0x06;
  1452  003B94  0E06               	movlw	6
  1453  003B96  0103               	movlb	3	; () banked
  1454  003B98  6F32               	movwf	50,b	;volatile
  1455                           
  1456                           ;mcc_generated_files/tmr4.c: 70:     T4HLT = 0x13;
  1457  003B9A  0E13               	movlw	19
  1458  003B9C  6F31               	movwf	49,b	;volatile
  1459                           
  1460                           ;mcc_generated_files/tmr4.c: 73:     T4RST = 0x00;
  1461  003B9E  0E00               	movlw	0
  1462  003BA0  6F33               	movwf	51,b	;volatile
  1463                           
  1464                           ;mcc_generated_files/tmr4.c: 76:     T4PR = 0xE9;
  1465  003BA2  0EE9               	movlw	233
  1466  003BA4  6F2F               	movwf	47,b	;volatile
  1467                           
  1468                           ;mcc_generated_files/tmr4.c: 79:     T4TMR = 0x00;
  1469  003BA6  0E00               	movlw	0
  1470  003BA8  6F2E               	movwf	46,b	;volatile
  1471  003BAA                     
  1472                           ; BSR set to: 3
  1473                           ;mcc_generated_files/tmr4.c: 82:     PIR11bits.TMR4IF = 0;
  1474  003BAA  96B9               	bcf	185,3,c	;volatile
  1475                           
  1476                           ;mcc_generated_files/tmr4.c: 85:     T4CON = 0xA0;
  1477  003BAC  0EA0               	movlw	160
  1478  003BAE  6F30               	movwf	48,b	;volatile
  1479  003BB0                     
  1480                           ; BSR set to: 3
  1481  003BB0  0012               	return		;funcret
  1482  003BB2                     __end_of_TMR4_Initialize:
  1483                           	callstack 0
  1484                           
  1485 ;; *************** function _TMR2_Initialize *****************
  1486 ;; Defined at:
  1487 ;;		line 62 in file "mcc_generated_files/tmr2.c"
  1488 ;; Parameters:    Size  Location     Type
  1489 ;;		None
  1490 ;; Auto vars:     Size  Location     Type
  1491 ;;		None
  1492 ;; Return value:  Size  Location     Type
  1493 ;;                  1    wreg      void 
  1494 ;; Registers used:
  1495 ;;		wreg, status,2
  1496 ;; Tracked objects:
  1497 ;;		On entry : 0/0
  1498 ;;		On exit  : 0/0
  1499 ;;		Unchanged: 0/0
  1500 ;; Data sizes:     COMRAM   BANK5   BANK6   BANK7   BANK8   BANK9  BANK10  BANK11  BANK12  BANK13  BANK14  BANK15  BANK1
      +6  BANK17  BANK18  BANK19  BANK20  BANK21  BANK22  BANK23  BANK24  BANK25  BANK26  BANK27  BANK28  BANK29  BANK30  BANK3
      +1  BANK32  BANK33  BANK34  BANK35  BANK36
  1501 ;;      Params:         0       0       0       0       0       0       0       0       0       0       0       0       
      +0       0       0       0       0       0       0       0       0       0       0       0       0       0       0       
      +0       0       0       0       0       0
  1502 ;;      Locals:         0       0       0       0       0       0       0       0       0       0       0       0       
      +0       0       0       0       0       0       0       0       0       0       0       0       0       0       0       
      +0       0       0       0       0       0
  1503 ;;      Temps:          0       0       0       0       0       0       0       0       0       0       0       0       
      +0       0       0       0       0       0       0       0       0       0       0       0       0       0       0       
      +0       0       0       0       0       0
  1504 ;;      Totals:         0       0       0       0       0       0       0       0       0       0       0       0       
      +0       0       0       0       0       0       0       0       0       0       0       0       0       0       0       
      +0       0       0       0       0       0
  1505 ;;Total ram usage:        0 bytes
  1506 ;; Hardware stack levels used:    1
  1507 ;; Hardware stack levels required when called:    3
  1508 ;; This function calls:
  1509 ;;		Nothing
  1510 ;; This function is called by:
  1511 ;;		_SYSTEM_Initialize
  1512 ;; This function uses a non-reentrant model
  1513 ;;
  1514                           
  1515                           	psect	text8
  1516  003BB2                     __ptext8:
  1517                           	callstack 0
  1518  003BB2                     _TMR2_Initialize:
  1519                           	callstack 123
  1520  003BB2                     
  1521                           ;mcc_generated_files/tmr2.c: 67:     T2CLKCON = 0x06;
  1522  003BB2  0E06               	movlw	6
  1523  003BB4  0103               	movlb	3	; () banked
  1524  003BB6  6F26               	movwf	38,b	;volatile
  1525                           
  1526                           ;mcc_generated_files/tmr2.c: 70:     T2HLT = 0x13;
  1527  003BB8  0E13               	movlw	19
  1528  003BBA  6F25               	movwf	37,b	;volatile
  1529                           
  1530                           ;mcc_generated_files/tmr2.c: 73:     T2RST = 0x00;
  1531  003BBC  0E00               	movlw	0
  1532  003BBE  6F27               	movwf	39,b	;volatile
  1533                           
  1534                           ;mcc_generated_files/tmr2.c: 76:     T2PR = 0xE9;
  1535  003BC0  0EE9               	movlw	233
  1536  003BC2  6F23               	movwf	35,b	;volatile
  1537                           
  1538                           ;mcc_generated_files/tmr2.c: 79:     T2TMR = 0x00;
  1539  003BC4  0E00               	movlw	0
  1540  003BC6  6F22               	movwf	34,b	;volatile
  1541  003BC8                     
  1542                           ; BSR set to: 3
  1543                           ;mcc_generated_files/tmr2.c: 82:     PIR3bits.TMR2IF = 0;
  1544  003BC8  96B1               	bcf	177,3,c	;volatile
  1545                           
  1546                           ;mcc_generated_files/tmr2.c: 85:     T2CON = 0xA0;
  1547  003BCA  0EA0               	movlw	160
  1548  003BCC  6F24               	movwf	36,b	;volatile
  1549  003BCE                     
  1550                           ; BSR set to: 3
  1551  003BCE  0012               	return		;funcret
  1552  003BD0                     __end_of_TMR2_Initialize:
  1553                           	callstack 0
  1554                           
  1555 ;; *************** function _TMR1_Initialize *****************
  1556 ;; Defined at:
  1557 ;;		line 63 in file "mcc_generated_files/tmr1.c"
  1558 ;; Parameters:    Size  Location     Type
  1559 ;;		None
  1560 ;; Auto vars:     Size  Location     Type
  1561 ;;		None
  1562 ;; Return value:  Size  Location     Type
  1563 ;;                  1    wreg      void 
  1564 ;; Registers used:
  1565 ;;		wreg, status,2, status,0
  1566 ;; Tracked objects:
  1567 ;;		On entry : 0/0
  1568 ;;		On exit  : 0/0
  1569 ;;		Unchanged: 0/0
  1570 ;; Data sizes:     COMRAM   BANK5   BANK6   BANK7   BANK8   BANK9  BANK10  BANK11  BANK12  BANK13  BANK14  BANK15  BANK1
      +6  BANK17  BANK18  BANK19  BANK20  BANK21  BANK22  BANK23  BANK24  BANK25  BANK26  BANK27  BANK28  BANK29  BANK30  BANK3
      +1  BANK32  BANK33  BANK34  BANK35  BANK36
  1571 ;;      Params:         0       0       0       0       0       0       0       0       0       0       0       0       
      +0       0       0       0       0       0       0       0       0       0       0       0       0       0       0       
      +0       0       0       0       0       0
  1572 ;;      Locals:         0       0       0       0       0       0       0       0       0       0       0       0       
      +0       0       0       0       0       0       0       0       0       0       0       0       0       0       0       
      +0       0       0       0       0       0
  1573 ;;      Temps:          2       0       0       0       0       0       0       0       0       0       0       0       
      +0       0       0       0       0       0       0       0       0       0       0       0       0       0       0       
      +0       0       0       0       0       0
  1574 ;;      Totals:         2       0       0       0       0       0       0       0       0       0       0       0       
      +0       0       0       0       0       0       0       0       0       0       0       0       0       0       0       
      +0       0       0       0       0       0
  1575 ;;Total ram usage:        2 bytes
  1576 ;; Hardware stack levels used:    1
  1577 ;; Hardware stack levels required when called:    3
  1578 ;; This function calls:
  1579 ;;		Nothing
  1580 ;; This function is called by:
  1581 ;;		_SYSTEM_Initialize
  1582 ;; This function uses a non-reentrant model
  1583 ;;
  1584                           
  1585                           	psect	text9
  1586  0038B6                     __ptext9:
  1587                           	callstack 0
  1588  0038B6                     _TMR1_Initialize:
  1589                           	callstack 123
  1590  0038B6                     
  1591                           ;mcc_generated_files/tmr1.c: 68:     T1GCON = 0x00;
  1592  0038B6  0E00               	movlw	0
  1593  0038B8  0103               	movlb	3	; () banked
  1594  0038BA  6F1F               	movwf	31,b	;volatile
  1595                           
  1596                           ;mcc_generated_files/tmr1.c: 71:     T1GATE = 0x00;
  1597  0038BC  0E00               	movlw	0
  1598  0038BE  6F20               	movwf	32,b	;volatile
  1599                           
  1600                           ;mcc_generated_files/tmr1.c: 74:     T1CLK = 0x06;
  1601  0038C0  0E06               	movlw	6
  1602  0038C2  6F21               	movwf	33,b	;volatile
  1603                           
  1604                           ;mcc_generated_files/tmr1.c: 77:     TMR1H = 0x0B;
  1605  0038C4  0E0B               	movlw	11
  1606  0038C6  6F1D               	movwf	29,b	;volatile
  1607                           
  1608                           ;mcc_generated_files/tmr1.c: 80:     TMR1L = 0xDC;
  1609  0038C8  0EDC               	movlw	220
  1610  0038CA  6F1C               	movwf	28,b	;volatile
  1611  0038CC                     
  1612                           ; BSR set to: 3
  1613                           ;mcc_generated_files/tmr1.c: 83:     PIR3bits.TMR1IF = 0;
  1614  0038CC  98B1               	bcf	177,4,c	;volatile
  1615  0038CE                     
  1616                           ; BSR set to: 3
  1617                           ;mcc_generated_files/tmr1.c: 86:     timer1ReloadVal=(uint16_t)((TMR1H << 8) | TMR1L);
  1618  0038CE  511C               	movf	28,w,b	;volatile
  1619  0038D0  0060 FC74  F502    	movff	797,??_TMR1_Initialize	;volatile
  1620  0038D6  6A03               	clrf	(??_TMR1_Initialize+1)^(0+1280),c
  1621  0038D8  C502  F503         	movff	??_TMR1_Initialize,??_TMR1_Initialize+1
  1622  0038DC  6A02               	clrf	??_TMR1_Initialize^(0+1280),c
  1623  0038DE  1002               	iorwf	??_TMR1_Initialize^(0+1280),w,c
  1624  0038E0  6E5A               	movwf	_timer1ReloadVal^(0+1280),c	;volatile
  1625  0038E2  5003               	movf	(??_TMR1_Initialize+1)^(0+1280),w,c
  1626  0038E4  6E5B               	movwf	(_timer1ReloadVal+1)^(0+1280),c	;volatile
  1627  0038E6                     
  1628                           ; BSR set to: 3
  1629                           ;mcc_generated_files/tmr1.c: 89:     T1CON = 0x11;
  1630  0038E6  0E11               	movlw	17
  1631  0038E8  6F1E               	movwf	30,b	;volatile
  1632  0038EA                     
  1633                           ; BSR set to: 3
  1634  0038EA  0012               	return		;funcret
  1635  0038EC                     __end_of_TMR1_Initialize:
  1636                           	callstack 0
  1637                           
  1638 ;; *************** function _TMR0_Initialize *****************
  1639 ;; Defined at:
  1640 ;;		line 67 in file "mcc_generated_files/tmr0.c"
  1641 ;; Parameters:    Size  Location     Type
  1642 ;;		None
  1643 ;; Auto vars:     Size  Location     Type
  1644 ;;		None
  1645 ;; Return value:  Size  Location     Type
  1646 ;;                  1    wreg      void 
  1647 ;; Registers used:
  1648 ;;		wreg, status,2, status,0, cstack
  1649 ;; Tracked objects:
  1650 ;;		On entry : 0/0
  1651 ;;		On exit  : 0/0
  1652 ;;		Unchanged: 0/0
  1653 ;; Data sizes:     COMRAM   BANK5   BANK6   BANK7   BANK8   BANK9  BANK10  BANK11  BANK12  BANK13  BANK14  BANK15  BANK1
      +6  BANK17  BANK18  BANK19  BANK20  BANK21  BANK22  BANK23  BANK24  BANK25  BANK26  BANK27  BANK28  BANK29  BANK30  BANK3
      +1  BANK32  BANK33  BANK34  BANK35  BANK36
  1654 ;;      Params:         0       0       0       0       0       0       0       0       0       0       0       0       
      +0       0       0       0       0       0       0       0       0       0       0       0       0       0       0       
      +0       0       0       0       0       0
  1655 ;;      Locals:         0       0       0       0       0       0       0       0       0       0       0       0       
      +0       0       0       0       0       0       0       0       0       0       0       0       0       0       0       
      +0       0       0       0       0       0
  1656 ;;      Temps:          2       0       0       0       0       0       0       0       0       0       0       0       
      +0       0       0       0       0       0       0       0       0       0       0       0       0       0       0       
      +0       0       0       0       0       0
  1657 ;;      Totals:         2       0       0       0       0       0       0       0       0       0       0       0       
      +0       0       0       0       0       0       0       0       0       0       0       0       0       0       0       
      +0       0       0       0       0       0
  1658 ;;Total ram usage:        2 bytes
  1659 ;; Hardware stack levels used:    1
  1660 ;; Hardware stack levels required when called:    4
  1661 ;; This function calls:
  1662 ;;		_TMR0_SetInterruptHandler
  1663 ;; This function is called by:
  1664 ;;		_SYSTEM_Initialize
  1665 ;; This function uses a non-reentrant model
  1666 ;;
  1667                           
  1668                           	psect	text10
  1669  00378C                     __ptext10:
  1670                           	callstack 0
  1671  00378C                     _TMR0_Initialize:
  1672                           	callstack 122
  1673  00378C                     
  1674                           ;mcc_generated_files/tmr0.c: 72:     T0CON1 = 0x40;
  1675  00378C  0E40               	movlw	64
  1676  00378E  0103               	movlb	3	; () banked
  1677  003790  6F1B               	movwf	27,b	;volatile
  1678                           
  1679                           ;mcc_generated_files/tmr0.c: 75:     TMR0H = 0xF9;
  1680  003792  0EF9               	movlw	249
  1681  003794  6F19               	movwf	25,b	;volatile
  1682                           
  1683                           ;mcc_generated_files/tmr0.c: 78:     TMR0L = 0xC0;
  1684  003796  0EC0               	movlw	192
  1685  003798  6F18               	movwf	24,b	;volatile
  1686  00379A                     
  1687                           ; BSR set to: 3
  1688                           ;mcc_generated_files/tmr0.c: 81:     timer0ReloadVal16bit = (TMR0H << 8) | TMR0L;
  1689  00379A  5118               	movf	24,w,b	;volatile
  1690  00379C  0060 FC64  F505    	movff	793,??_TMR0_Initialize	;volatile
  1691  0037A2  6A06               	clrf	(??_TMR0_Initialize+1)^(0+1280),c
  1692  0037A4  C505  F506         	movff	??_TMR0_Initialize,??_TMR0_Initialize+1
  1693  0037A8  6A05               	clrf	??_TMR0_Initialize^(0+1280),c
  1694  0037AA  1005               	iorwf	??_TMR0_Initialize^(0+1280),w,c
  1695  0037AC  6E5C               	movwf	_timer0ReloadVal16bit^(0+1280),c	;volatile
  1696  0037AE  5006               	movf	(??_TMR0_Initialize+1)^(0+1280),w,c
  1697  0037B0  6E5D               	movwf	(_timer0ReloadVal16bit+1)^(0+1280),c	;volatile
  1698  0037B2                     
  1699                           ; BSR set to: 3
  1700                           ;mcc_generated_files/tmr0.c: 84:     PIR3bits.TMR0IF = 0;
  1701  0037B2  9EB1               	bcf	177,7,c	;volatile
  1702  0037B4                     
  1703                           ; BSR set to: 3
  1704                           ;mcc_generated_files/tmr0.c: 87:     PIE3bits.TMR0IE = 1;
  1705  0037B4  8EA1               	bsf	161,7,c	;volatile
  1706  0037B6                     
  1707                           ; BSR set to: 3
  1708                           ;mcc_generated_files/tmr0.c: 90:     TMR0_SetInterruptHandler(TMR0_DefaultInterruptHandl
      +                          er);
  1709  0037B6  0E88               	movlw	low _TMR0_DefaultInterruptHandler
  1710  0037B8  6E02               	movwf	TMR0_SetInterruptHandler@InterruptHandler^(0+1280),c
  1711  0037BA  0E3E               	movlw	high _TMR0_DefaultInterruptHandler
  1712  0037BC  6E03               	movwf	(TMR0_SetInterruptHandler@InterruptHandler+1)^(0+1280),c
  1713  0037BE  0E00               	movlw	low (_TMR0_DefaultInterruptHandler shr (0+16))
  1714  0037C0  6E04               	movwf	(TMR0_SetInterruptHandler@InterruptHandler+2)^(0+1280),c
  1715  0037C2  ECD2  F01E         	call	_TMR0_SetInterruptHandler	;wreg free
  1716  0037C6                     
  1717                           ;mcc_generated_files/tmr0.c: 93:     T0CON0 = 0x90;
  1718  0037C6  0E90               	movlw	144
  1719  0037C8  0103               	movlb	3	; () banked
  1720  0037CA  6F1A               	movwf	26,b	;volatile
  1721  0037CC                     
  1722                           ; BSR set to: 3
  1723  0037CC  0012               	return		;funcret
  1724  0037CE                     __end_of_TMR0_Initialize:
  1725                           	callstack 0
  1726                           
  1727 ;; *************** function _SystemArbiter_Initialize *****************
  1728 ;; Defined at:
  1729 ;;		line 115 in file "mcc_generated_files/mcc.c"
  1730 ;; Parameters:    Size  Location     Type
  1731 ;;		None
  1732 ;; Auto vars:     Size  Location     Type
  1733 ;;		None
  1734 ;; Return value:  Size  Location     Type
  1735 ;;                  1    wreg      void 
  1736 ;; Registers used:
  1737 ;;		wreg, status,2
  1738 ;; Tracked objects:
  1739 ;;		On entry : 0/0
  1740 ;;		On exit  : 0/0
  1741 ;;		Unchanged: 0/0
  1742 ;; Data sizes:     COMRAM   BANK5   BANK6   BANK7   BANK8   BANK9  BANK10  BANK11  BANK12  BANK13  BANK14  BANK15  BANK1
      +6  BANK17  BANK18  BANK19  BANK20  BANK21  BANK22  BANK23  BANK24  BANK25  BANK26  BANK27  BANK28  BANK29  BANK30  BANK3
      +1  BANK32  BANK33  BANK34  BANK35  BANK36
  1743 ;;      Params:         0       0       0       0       0       0       0       0       0       0       0       0       
      +0       0       0       0       0       0       0       0       0       0       0       0       0       0       0       
      +0       0       0       0       0       0
  1744 ;;      Locals:         0       0       0       0       0       0       0       0       0       0       0       0       
      +0       0       0       0       0       0       0       0       0       0       0       0       0       0       0       
      +0       0       0       0       0       0
  1745 ;;      Temps:          0       0       0       0       0       0       0       0       0       0       0       0       
      +0       0       0       0       0       0       0       0       0       0       0       0       0       0       0       
      +0       0       0       0       0       0
  1746 ;;      Totals:         0       0       0       0       0       0       0       0       0       0       0       0       
      +0       0       0       0       0       0       0       0       0       0       0       0       0       0       0       
      +0       0       0       0       0       0
  1747 ;;Total ram usage:        0 bytes
  1748 ;; Hardware stack levels used:    1
  1749 ;; Hardware stack levels required when called:    3
  1750 ;; This function calls:
  1751 ;;		Nothing
  1752 ;; This function is called by:
  1753 ;;		_SYSTEM_Initialize
  1754 ;; This function uses a non-reentrant model
  1755 ;;
  1756                           
  1757                           	psect	text11
  1758  003D5E                     __ptext11:
  1759                           	callstack 0
  1760  003D5E                     _SystemArbiter_Initialize:
  1761                           	callstack 123
  1762  003D5E                     
  1763                           ;mcc_generated_files/mcc.c: 118:     PRLOCK = 0x55;
  1764  003D5E  0E55               	movlw	85
  1765  003D60  0100               	movlb	0	; () banked
  1766  003D62  6FB4               	movwf	180,b	;volatile
  1767                           
  1768                           ;mcc_generated_files/mcc.c: 119:     PRLOCK = 0xAA;
  1769  003D64  0EAA               	movlw	170
  1770  003D66  6FB4               	movwf	180,b	;volatile
  1771  003D68                     
  1772                           ; BSR set to: 0
  1773                           ;mcc_generated_files/mcc.c: 120:     PRLOCKbits.PRLOCKED = 1;
  1774  003D68  81B4               	bsf	180,0,b	;volatile
  1775  003D6A                     
  1776                           ; BSR set to: 0
  1777  003D6A  0012               	return		;funcret
  1778  003D6C                     __end_of_SystemArbiter_Initialize:
  1779                           	callstack 0
  1780                           
  1781 ;; *************** function _SPI1_Initialize *****************
  1782 ;; Defined at:
  1783 ;;		line 64 in file "mcc_generated_files/spi1.c"
  1784 ;; Parameters:    Size  Location     Type
  1785 ;;		None
  1786 ;; Auto vars:     Size  Location     Type
  1787 ;;		None
  1788 ;; Return value:  Size  Location     Type
  1789 ;;                  1    wreg      void 
  1790 ;; Registers used:
  1791 ;;		wreg, status,2
  1792 ;; Tracked objects:
  1793 ;;		On entry : 0/0
  1794 ;;		On exit  : 0/0
  1795 ;;		Unchanged: 0/0
  1796 ;; Data sizes:     COMRAM   BANK5   BANK6   BANK7   BANK8   BANK9  BANK10  BANK11  BANK12  BANK13  BANK14  BANK15  BANK1
      +6  BANK17  BANK18  BANK19  BANK20  BANK21  BANK22  BANK23  BANK24  BANK25  BANK26  BANK27  BANK28  BANK29  BANK30  BANK3
      +1  BANK32  BANK33  BANK34  BANK35  BANK36
  1797 ;;      Params:         0       0       0       0       0       0       0       0       0       0       0       0       
      +0       0       0       0       0       0       0       0       0       0       0       0       0       0       0       
      +0       0       0       0       0       0
  1798 ;;      Locals:         0       0       0       0       0       0       0       0       0       0       0       0       
      +0       0       0       0       0       0       0       0       0       0       0       0       0       0       0       
      +0       0       0       0       0       0
  1799 ;;      Temps:          0       0       0       0       0       0       0       0       0       0       0       0       
      +0       0       0       0       0       0       0       0       0       0       0       0       0       0       0       
      +0       0       0       0       0       0
  1800 ;;      Totals:         0       0       0       0       0       0       0       0       0       0       0       0       
      +0       0       0       0       0       0       0       0       0       0       0       0       0       0       0       
      +0       0       0       0       0       0
  1801 ;;Total ram usage:        0 bytes
  1802 ;; Hardware stack levels used:    1
  1803 ;; Hardware stack levels required when called:    3
  1804 ;; This function calls:
  1805 ;;		Nothing
  1806 ;; This function is called by:
  1807 ;;		_SYSTEM_Initialize
  1808 ;; This function uses a non-reentrant model
  1809 ;;
  1810                           
  1811                           	psect	text12
  1812  003C5C                     __ptext12:
  1813                           	callstack 0
  1814  003C5C                     _SPI1_Initialize:
  1815                           	callstack 123
  1816  003C5C                     
  1817                           ;mcc_generated_files/spi1.c: 81:     SPI1CON1 = 0xC0;
  1818  003C5C  0EC0               	movlw	192
  1819  003C5E  0100               	movlb	0	; () banked
  1820  003C60  6F85               	movwf	133,b	;volatile
  1821                           
  1822                           ;mcc_generated_files/spi1.c: 83:     SPI1CON2 = 0x03;
  1823  003C62  0E03               	movlw	3
  1824  003C64  6F86               	movwf	134,b	;volatile
  1825                           
  1826                           ;mcc_generated_files/spi1.c: 85:     SPI1BAUD = 0x1F;
  1827  003C66  0E1F               	movlw	31
  1828  003C68  6F89               	movwf	137,b	;volatile
  1829                           
  1830                           ;mcc_generated_files/spi1.c: 87:     SPI1CLK = 0x00;
  1831  003C6A  0E00               	movlw	0
  1832  003C6C  6F8C               	movwf	140,b	;volatile
  1833                           
  1834                           ;mcc_generated_files/spi1.c: 89:     SPI1CON0 = 0x82;
  1835  003C6E  0E82               	movlw	130
  1836  003C70  6F84               	movwf	132,b	;volatile
  1837  003C72                     
  1838                           ; BSR set to: 0
  1839  003C72  0012               	return		;funcret
  1840  003C74                     __end_of_SPI1_Initialize:
  1841                           	callstack 0
  1842                           
  1843 ;; *************** function _PWM2_16BIT_Initialize *****************
  1844 ;; Defined at:
  1845 ;;		line 63 in file "mcc_generated_files/pwm2_16bit.c"
  1846 ;; Parameters:    Size  Location     Type
  1847 ;;		None
  1848 ;; Auto vars:     Size  Location     Type
  1849 ;;		None
  1850 ;; Return value:  Size  Location     Type
  1851 ;;                  1    wreg      void 
  1852 ;; Registers used:
  1853 ;;		wreg, status,2, status,0, cstack
  1854 ;; Tracked objects:
  1855 ;;		On entry : 0/0
  1856 ;;		On exit  : 0/0
  1857 ;;		Unchanged: 0/0
  1858 ;; Data sizes:     COMRAM   BANK5   BANK6   BANK7   BANK8   BANK9  BANK10  BANK11  BANK12  BANK13  BANK14  BANK15  BANK1
      +6  BANK17  BANK18  BANK19  BANK20  BANK21  BANK22  BANK23  BANK24  BANK25  BANK26  BANK27  BANK28  BANK29  BANK30  BANK3
      +1  BANK32  BANK33  BANK34  BANK35  BANK36
  1859 ;;      Params:         0       0       0       0       0       0       0       0       0       0       0       0       
      +0       0       0       0       0       0       0       0       0       0       0       0       0       0       0       
      +0       0       0       0       0       0
  1860 ;;      Locals:         0       0       0       0       0       0       0       0       0       0       0       0       
      +0       0       0       0       0       0       0       0       0       0       0       0       0       0       0       
      +0       0       0       0       0       0
  1861 ;;      Temps:          0       0       0       0       0       0       0       0       0       0       0       0       
      +0       0       0       0       0       0       0       0       0       0       0       0       0       0       0       
      +0       0       0       0       0       0
  1862 ;;      Totals:         0       0       0       0       0       0       0       0       0       0       0       0       
      +0       0       0       0       0       0       0       0       0       0       0       0       0       0       0       
      +0       0       0       0       0       0
  1863 ;;Total ram usage:        0 bytes
  1864 ;; Hardware stack levels used:    1
  1865 ;; Hardware stack levels required when called:    4
  1866 ;; This function calls:
  1867 ;;		_PWM2_16BIT_Period_SetInterruptHandler
  1868 ;;		_PWM2_16BIT_Slice1Output1_SetInterruptHandler
  1869 ;;		_PWM2_16BIT_Slice1Output2_SetInterruptHandler
  1870 ;; This function is called by:
  1871 ;;		_SYSTEM_Initialize
  1872 ;; This function uses a non-reentrant model
  1873 ;;
  1874                           
  1875                           	psect	text13
  1876  00314C                     __ptext13:
  1877                           	callstack 0
  1878  00314C                     _PWM2_16BIT_Initialize:
  1879                           	callstack 122
  1880  00314C                     
  1881                           ;mcc_generated_files/pwm2_16bit.c: 66:     PWM2ERS = 0x00;
  1882  00314C  0E00               	movlw	0
  1883  00314E  6E6F               	movwf	111,c	;volatile
  1884                           
  1885                           ;mcc_generated_files/pwm2_16bit.c: 69:     PWM2CLK = 0x02;
  1886  003150  0E02               	movlw	2
  1887  003152  6E70               	movwf	112,c	;volatile
  1888                           
  1889                           ;mcc_generated_files/pwm2_16bit.c: 72:     PWM2LDS = 0x00;
  1890  003154  0E00               	movlw	0
  1891  003156  6E71               	movwf	113,c	;volatile
  1892                           
  1893                           ;mcc_generated_files/pwm2_16bit.c: 75:     PWM2PRL = 0xD4;
  1894  003158  0ED4               	movlw	212
  1895  00315A  6E72               	movwf	114,c	;volatile
  1896                           
  1897                           ;mcc_generated_files/pwm2_16bit.c: 78:     PWM2PRH = 0x00;
  1898  00315C  0E00               	movlw	0
  1899  00315E  6E73               	movwf	115,c	;volatile
  1900                           
  1901                           ;mcc_generated_files/pwm2_16bit.c: 81:     PWM2CPRE = 0x00;
  1902  003160  0E00               	movlw	0
  1903  003162  6E74               	movwf	116,c	;volatile
  1904                           
  1905                           ;mcc_generated_files/pwm2_16bit.c: 84:     PWM2PIPOS = 0x00;
  1906  003164  0E00               	movlw	0
  1907  003166  6E75               	movwf	117,c	;volatile
  1908                           
  1909                           ;mcc_generated_files/pwm2_16bit.c: 87:     PWM2GIR = 0x00;
  1910  003168  0E00               	movlw	0
  1911  00316A  6E76               	movwf	118,c	;volatile
  1912                           
  1913                           ;mcc_generated_files/pwm2_16bit.c: 90:     PWM2GIE = 0x00;
  1914  00316C  0E00               	movlw	0
  1915  00316E  6E77               	movwf	119,c	;volatile
  1916                           
  1917                           ;mcc_generated_files/pwm2_16bit.c: 93:     PWM2S1CFG = 0x00;
  1918  003170  0E00               	movlw	0
  1919  003172  6E79               	movwf	121,c	;volatile
  1920                           
  1921                           ;mcc_generated_files/pwm2_16bit.c: 96:     PWM2S1P1L = 0xCA;
  1922  003174  0ECA               	movlw	202
  1923  003176  6E7A               	movwf	122,c	;volatile
  1924                           
  1925                           ;mcc_generated_files/pwm2_16bit.c: 99:     PWM2S1P1H = 0x00;
  1926  003178  0E00               	movlw	0
  1927  00317A  6E7B               	movwf	123,c	;volatile
  1928                           
  1929                           ;mcc_generated_files/pwm2_16bit.c: 102:     PWM2S1P2L = 0x6A;
  1930  00317C  0E6A               	movlw	106
  1931  00317E  6E7C               	movwf	124,c	;volatile
  1932                           
  1933                           ;mcc_generated_files/pwm2_16bit.c: 105:     PWM2S1P2H = 0x00;
  1934  003180  0E00               	movlw	0
  1935  003182  6E7D               	movwf	125,c	;volatile
  1936  003184                     
  1937                           ;mcc_generated_files/pwm2_16bit.c: 108:     PIR5bits.PWM2PIF = 0;
  1938  003184  9CB3               	bcf	179,6,c	;volatile
  1939  003186                     
  1940                           ;mcc_generated_files/pwm2_16bit.c: 111:     PIR5bits.PWM2IF = 0;
  1941  003186  9EB3               	bcf	179,7,c	;volatile
  1942  003188                     
  1943                           ;mcc_generated_files/pwm2_16bit.c: 114:     PWM2GIRbits.S1P1IF = 0;
  1944  003188  9076               	bcf	118,0,c	;volatile
  1945  00318A                     
  1946                           ;mcc_generated_files/pwm2_16bit.c: 117:     PWM2GIRbits.S1P2IF = 0;
  1947  00318A  9276               	bcf	118,1,c	;volatile
  1948  00318C                     
  1949                           ;mcc_generated_files/pwm2_16bit.c: 120:     PIE5bits.PWM2IE = 0;
  1950  00318C  9EA3               	bcf	163,7,c	;volatile
  1951  00318E                     
  1952                           ;mcc_generated_files/pwm2_16bit.c: 123:     PIE5bits.PWM2PIE = 0;
  1953  00318E  9CA3               	bcf	163,6,c	;volatile
  1954  003190                     
  1955                           ;mcc_generated_files/pwm2_16bit.c: 126:     PWM2_16BIT_Slice1Output1_SetInterruptHandler
      +                          (PWM2_16BIT_Slice1Output1_DefaultInterruptHandler);
  1956  003190  0E90               	movlw	low _PWM2_16BIT_Slice1Output1_DefaultInterruptHandler
  1957  003192  6E02               	movwf	PWM2_16BIT_Slice1Output1_SetInterruptHandler@InterruptHandler^(0+1280),c
  1958  003194  0E3E               	movlw	high _PWM2_16BIT_Slice1Output1_DefaultInterruptHandler
  1959  003196  6E03               	movwf	(PWM2_16BIT_Slice1Output1_SetInterruptHandler@InterruptHandler+1)^(0+1280),c
  1960  003198  0E00               	movlw	low (_PWM2_16BIT_Slice1Output1_DefaultInterruptHandler shr (0+16))
  1961  00319A  6E04               	movwf	(PWM2_16BIT_Slice1Output1_SetInterruptHandler@InterruptHandler+2)^(0+1280),c
  1962  00319C  ECBD  F01E         	call	_PWM2_16BIT_Slice1Output1_SetInterruptHandler	;wreg free
  1963  0031A0                     
  1964                           ;mcc_generated_files/pwm2_16bit.c: 127:     PWM2_16BIT_Slice1Output2_SetInterruptHandler
      +                          (PWM2_16BIT_Slice1Output2_DefaultInterruptHandler);
  1965  0031A0  0E8E               	movlw	low _PWM2_16BIT_Slice1Output2_DefaultInterruptHandler
  1966  0031A2  6E02               	movwf	PWM2_16BIT_Slice1Output2_SetInterruptHandler@InterruptHandler^(0+1280),c
  1967  0031A4  0E3E               	movlw	high _PWM2_16BIT_Slice1Output2_DefaultInterruptHandler
  1968  0031A6  6E03               	movwf	(PWM2_16BIT_Slice1Output2_SetInterruptHandler@InterruptHandler+1)^(0+1280),c
  1969  0031A8  0E00               	movlw	low (_PWM2_16BIT_Slice1Output2_DefaultInterruptHandler shr (0+16))
  1970  0031AA  6E04               	movwf	(PWM2_16BIT_Slice1Output2_SetInterruptHandler@InterruptHandler+2)^(0+1280),c
  1971  0031AC  ECB6  F01E         	call	_PWM2_16BIT_Slice1Output2_SetInterruptHandler	;wreg free
  1972  0031B0                     
  1973                           ;mcc_generated_files/pwm2_16bit.c: 128:     PWM2_16BIT_Period_SetInterruptHandler(PWM2_1
      +                          6BIT_Period_DefaultInterruptHandler);
  1974  0031B0  0E92               	movlw	low _PWM2_16BIT_Period_DefaultInterruptHandler
  1975  0031B2  6E02               	movwf	PWM2_16BIT_Period_SetInterruptHandler@InterruptHandler^(0+1280),c
  1976  0031B4  0E3E               	movlw	high _PWM2_16BIT_Period_DefaultInterruptHandler
  1977  0031B6  6E03               	movwf	(PWM2_16BIT_Period_SetInterruptHandler@InterruptHandler+1)^(0+1280),c
  1978  0031B8  0E00               	movlw	low (_PWM2_16BIT_Period_DefaultInterruptHandler shr (0+16))
  1979  0031BA  6E04               	movwf	(PWM2_16BIT_Period_SetInterruptHandler@InterruptHandler+2)^(0+1280),c
  1980  0031BC  ECC4  F01E         	call	_PWM2_16BIT_Period_SetInterruptHandler	;wreg free
  1981  0031C0                     
  1982                           ;mcc_generated_files/pwm2_16bit.c: 131:     PWM2CON = 0x80;
  1983  0031C0  0E80               	movlw	128
  1984  0031C2  6E78               	movwf	120,c	;volatile
  1985  0031C4  0012               	return		;funcret
  1986  0031C6                     __end_of_PWM2_16BIT_Initialize:
  1987                           	callstack 0
  1988                           
  1989 ;; *************** function _PWM2_16BIT_Slice1Output2_SetInterruptHandler *****************
  1990 ;; Defined at:
  1991 ;;		line 197 in file "mcc_generated_files/pwm2_16bit.c"
  1992 ;; Parameters:    Size  Location     Type
  1993 ;;  InterruptHan    3    1[COMRAM] PTR FTN()void 
  1994 ;;		 -> PWM2_16BIT_Slice1Output2_DefaultInterruptHandler(1), 
  1995 ;; Auto vars:     Size  Location     Type
  1996 ;;		None
  1997 ;; Return value:  Size  Location     Type
  1998 ;;                  1    wreg      void 
  1999 ;; Registers used:
  2000 ;;		wreg, status,2, status,0
  2001 ;; Tracked objects:
  2002 ;;		On entry : 0/0
  2003 ;;		On exit  : 0/0
  2004 ;;		Unchanged: 0/0
  2005 ;; Data sizes:     COMRAM   BANK5   BANK6   BANK7   BANK8   BANK9  BANK10  BANK11  BANK12  BANK13  BANK14  BANK15  BANK1
      +6  BANK17  BANK18  BANK19  BANK20  BANK21  BANK22  BANK23  BANK24  BANK25  BANK26  BANK27  BANK28  BANK29  BANK30  BANK3
      +1  BANK32  BANK33  BANK34  BANK35  BANK36
  2006 ;;      Params:         3       0       0       0       0       0       0       0       0       0       0       0       
      +0       0       0       0       0       0       0       0       0       0       0       0       0       0       0       
      +0       0       0       0       0       0
  2007 ;;      Locals:         0       0       0       0       0       0       0       0       0       0       0       0       
      +0       0       0       0       0       0       0       0       0       0       0       0       0       0       0       
      +0       0       0       0       0       0
  2008 ;;      Temps:          0       0       0       0       0       0       0       0       0       0       0       0       
      +0       0       0       0       0       0       0       0       0       0       0       0       0       0       0       
      +0       0       0       0       0       0
  2009 ;;      Totals:         3       0       0       0       0       0       0       0       0       0       0       0       
      +0       0       0       0       0       0       0       0       0       0       0       0       0       0       0       
      +0       0       0       0       0       0
  2010 ;;Total ram usage:        3 bytes
  2011 ;; Hardware stack levels used:    1
  2012 ;; Hardware stack levels required when called:    3
  2013 ;; This function calls:
  2014 ;;		Nothing
  2015 ;; This function is called by:
  2016 ;;		_PWM2_16BIT_Initialize
  2017 ;; This function uses a non-reentrant model
  2018 ;;
  2019                           
  2020                           	psect	text14
  2021  003D6C                     __ptext14:
  2022                           	callstack 0
  2023  003D6C                     _PWM2_16BIT_Slice1Output2_SetInterruptHandler:
  2024                           	callstack 122
  2025  003D6C                     
  2026                           ;mcc_generated_files/pwm2_16bit.c: 197: void PWM2_16BIT_Slice1Output2_SetInterruptHandle
      +                          r(void (* InterruptHandler)(void));mcc_generated_files/pwm2_16bit.c: 198: {;mcc_generate
      +                          d_files/pwm2_16bit.c: 199:     PWM2_16BIT_Slice1Output2_InterruptHandler = InterruptHand
      +                          ler;
  2027  003D6C  C502  F54B         	movff	PWM2_16BIT_Slice1Output2_SetInterruptHandler@InterruptHandler,_PWM2_16BIT_Slice1O
      +                          utput2_InterruptHandler
  2028  003D70  C503  F54C         	movff	PWM2_16BIT_Slice1Output2_SetInterruptHandler@InterruptHandler+1,_PWM2_16BIT_Slice
      +                          1Output2_InterruptHandler+1
  2029  003D74  C504  F54D         	movff	PWM2_16BIT_Slice1Output2_SetInterruptHandler@InterruptHandler+2,_PWM2_16BIT_Slice
      +                          1Output2_InterruptHandler+2
  2030  003D78  0012               	return		;funcret
  2031  003D7A                     __end_of_PWM2_16BIT_Slice1Output2_SetInterruptHandler:
  2032                           	callstack 0
  2033                           
  2034 ;; *************** function _PWM2_16BIT_Slice1Output1_SetInterruptHandler *****************
  2035 ;; Defined at:
  2036 ;;		line 192 in file "mcc_generated_files/pwm2_16bit.c"
  2037 ;; Parameters:    Size  Location     Type
  2038 ;;  InterruptHan    3    1[COMRAM] PTR FTN()void 
  2039 ;;		 -> PWM2_16BIT_Slice1Output1_DefaultInterruptHandler(1), 
  2040 ;; Auto vars:     Size  Location     Type
  2041 ;;		None
  2042 ;; Return value:  Size  Location     Type
  2043 ;;                  1    wreg      void 
  2044 ;; Registers used:
  2045 ;;		wreg, status,2, status,0
  2046 ;; Tracked objects:
  2047 ;;		On entry : 0/0
  2048 ;;		On exit  : 0/0
  2049 ;;		Unchanged: 0/0
  2050 ;; Data sizes:     COMRAM   BANK5   BANK6   BANK7   BANK8   BANK9  BANK10  BANK11  BANK12  BANK13  BANK14  BANK15  BANK1
      +6  BANK17  BANK18  BANK19  BANK20  BANK21  BANK22  BANK23  BANK24  BANK25  BANK26  BANK27  BANK28  BANK29  BANK30  BANK3
      +1  BANK32  BANK33  BANK34  BANK35  BANK36
  2051 ;;      Params:         3       0       0       0       0       0       0       0       0       0       0       0       
      +0       0       0       0       0       0       0       0       0       0       0       0       0       0       0       
      +0       0       0       0       0       0
  2052 ;;      Locals:         0       0       0       0       0       0       0       0       0       0       0       0       
      +0       0       0       0       0       0       0       0       0       0       0       0       0       0       0       
      +0       0       0       0       0       0
  2053 ;;      Temps:          0       0       0       0       0       0       0       0       0       0       0       0       
      +0       0       0       0       0       0       0       0       0       0       0       0       0       0       0       
      +0       0       0       0       0       0
  2054 ;;      Totals:         3       0       0       0       0       0       0       0       0       0       0       0       
      +0       0       0       0       0       0       0       0       0       0       0       0       0       0       0       
      +0       0       0       0       0       0
  2055 ;;Total ram usage:        3 bytes
  2056 ;; Hardware stack levels used:    1
  2057 ;; Hardware stack levels required when called:    3
  2058 ;; This function calls:
  2059 ;;		Nothing
  2060 ;; This function is called by:
  2061 ;;		_PWM2_16BIT_Initialize
  2062 ;; This function uses a non-reentrant model
  2063 ;;
  2064                           
  2065                           	psect	text15
  2066  003D7A                     __ptext15:
  2067                           	callstack 0
  2068  003D7A                     _PWM2_16BIT_Slice1Output1_SetInterruptHandler:
  2069                           	callstack 122
  2070  003D7A                     
  2071                           ;mcc_generated_files/pwm2_16bit.c: 192: void PWM2_16BIT_Slice1Output1_SetInterruptHandle
      +                          r(void (* InterruptHandler)(void));mcc_generated_files/pwm2_16bit.c: 193: {;mcc_generate
      +                          d_files/pwm2_16bit.c: 194:     PWM2_16BIT_Slice1Output1_InterruptHandler = InterruptHand
      +                          ler;
  2072  003D7A  C502  F54E         	movff	PWM2_16BIT_Slice1Output1_SetInterruptHandler@InterruptHandler,_PWM2_16BIT_Slice1O
      +                          utput1_InterruptHandler
  2073  003D7E  C503  F54F         	movff	PWM2_16BIT_Slice1Output1_SetInterruptHandler@InterruptHandler+1,_PWM2_16BIT_Slice
      +                          1Output1_InterruptHandler+1
  2074  003D82  C504  F550         	movff	PWM2_16BIT_Slice1Output1_SetInterruptHandler@InterruptHandler+2,_PWM2_16BIT_Slice
      +                          1Output1_InterruptHandler+2
  2075  003D86  0012               	return		;funcret
  2076  003D88                     __end_of_PWM2_16BIT_Slice1Output1_SetInterruptHandler:
  2077                           	callstack 0
  2078                           
  2079 ;; *************** function _PWM2_16BIT_Period_SetInterruptHandler *****************
  2080 ;; Defined at:
  2081 ;;		line 202 in file "mcc_generated_files/pwm2_16bit.c"
  2082 ;; Parameters:    Size  Location     Type
  2083 ;;  InterruptHan    3    1[COMRAM] PTR FTN()void 
  2084 ;;		 -> PWM2_16BIT_Period_DefaultInterruptHandler(1), 
  2085 ;; Auto vars:     Size  Location     Type
  2086 ;;		None
  2087 ;; Return value:  Size  Location     Type
  2088 ;;                  1    wreg      void 
  2089 ;; Registers used:
  2090 ;;		wreg, status,2, status,0
  2091 ;; Tracked objects:
  2092 ;;		On entry : 0/0
  2093 ;;		On exit  : 0/0
  2094 ;;		Unchanged: 0/0
  2095 ;; Data sizes:     COMRAM   BANK5   BANK6   BANK7   BANK8   BANK9  BANK10  BANK11  BANK12  BANK13  BANK14  BANK15  BANK1
      +6  BANK17  BANK18  BANK19  BANK20  BANK21  BANK22  BANK23  BANK24  BANK25  BANK26  BANK27  BANK28  BANK29  BANK30  BANK3
      +1  BANK32  BANK33  BANK34  BANK35  BANK36
  2096 ;;      Params:         3       0       0       0       0       0       0       0       0       0       0       0       
      +0       0       0       0       0       0       0       0       0       0       0       0       0       0       0       
      +0       0       0       0       0       0
  2097 ;;      Locals:         0       0       0       0       0       0       0       0       0       0       0       0       
      +0       0       0       0       0       0       0       0       0       0       0       0       0       0       0       
      +0       0       0       0       0       0
  2098 ;;      Temps:          0       0       0       0       0       0       0       0       0       0       0       0       
      +0       0       0       0       0       0       0       0       0       0       0       0       0       0       0       
      +0       0       0       0       0       0
  2099 ;;      Totals:         3       0       0       0       0       0       0       0       0       0       0       0       
      +0       0       0       0       0       0       0       0       0       0       0       0       0       0       0       
      +0       0       0       0       0       0
  2100 ;;Total ram usage:        3 bytes
  2101 ;; Hardware stack levels used:    1
  2102 ;; Hardware stack levels required when called:    3
  2103 ;; This function calls:
  2104 ;;		Nothing
  2105 ;; This function is called by:
  2106 ;;		_PWM2_16BIT_Initialize
  2107 ;; This function uses a non-reentrant model
  2108 ;;
  2109                           
  2110                           	psect	text16
  2111  003D88                     __ptext16:
  2112                           	callstack 0
  2113  003D88                     _PWM2_16BIT_Period_SetInterruptHandler:
  2114                           	callstack 122
  2115  003D88                     
  2116                           ;mcc_generated_files/pwm2_16bit.c: 202: void PWM2_16BIT_Period_SetInterruptHandler(void 
      +                          (* InterruptHandler)(void));mcc_generated_files/pwm2_16bit.c: 203: {;mcc_generated_files
      +                          /pwm2_16bit.c: 204:     PWM2_16BIT_Period_InterruptHandler = InterruptHandler;
  2117  003D88  C502  F548         	movff	PWM2_16BIT_Period_SetInterruptHandler@InterruptHandler,_PWM2_16BIT_Period_Interru
      +                          ptHandler
  2118  003D8C  C503  F549         	movff	PWM2_16BIT_Period_SetInterruptHandler@InterruptHandler+1,_PWM2_16BIT_Period_Inter
      +                          ruptHandler+1
  2119  003D90  C504  F54A         	movff	PWM2_16BIT_Period_SetInterruptHandler@InterruptHandler+2,_PWM2_16BIT_Period_Inter
      +                          ruptHandler+2
  2120  003D94  0012               	return		;funcret
  2121  003D96                     __end_of_PWM2_16BIT_Period_SetInterruptHandler:
  2122                           	callstack 0
  2123                           
  2124 ;; *************** function _PMD_Initialize *****************
  2125 ;; Defined at:
  2126 ;;		line 94 in file "mcc_generated_files/mcc.c"
  2127 ;; Parameters:    Size  Location     Type
  2128 ;;		None
  2129 ;; Auto vars:     Size  Location     Type
  2130 ;;		None
  2131 ;; Return value:  Size  Location     Type
  2132 ;;                  1    wreg      void 
  2133 ;; Registers used:
  2134 ;;		wreg, status,2
  2135 ;; Tracked objects:
  2136 ;;		On entry : 0/0
  2137 ;;		On exit  : 0/0
  2138 ;;		Unchanged: 0/0
  2139 ;; Data sizes:     COMRAM   BANK5   BANK6   BANK7   BANK8   BANK9  BANK10  BANK11  BANK12  BANK13  BANK14  BANK15  BANK1
      +6  BANK17  BANK18  BANK19  BANK20  BANK21  BANK22  BANK23  BANK24  BANK25  BANK26  BANK27  BANK28  BANK29  BANK30  BANK3
      +1  BANK32  BANK33  BANK34  BANK35  BANK36
  2140 ;;      Params:         0       0       0       0       0       0       0       0       0       0       0       0       
      +0       0       0       0       0       0       0       0       0       0       0       0       0       0       0       
      +0       0       0       0       0       0
  2141 ;;      Locals:         0       0       0       0       0       0       0       0       0       0       0       0       
      +0       0       0       0       0       0       0       0       0       0       0       0       0       0       0       
      +0       0       0       0       0       0
  2142 ;;      Temps:          0       0       0       0       0       0       0       0       0       0       0       0       
      +0       0       0       0       0       0       0       0       0       0       0       0       0       0       0       
      +0       0       0       0       0       0
  2143 ;;      Totals:         0       0       0       0       0       0       0       0       0       0       0       0       
      +0       0       0       0       0       0       0       0       0       0       0       0       0       0       0       
      +0       0       0       0       0       0
  2144 ;;Total ram usage:        0 bytes
  2145 ;; Hardware stack levels used:    1
  2146 ;; Hardware stack levels required when called:    3
  2147 ;; This function calls:
  2148 ;;		Nothing
  2149 ;; This function is called by:
  2150 ;;		_SYSTEM_Initialize
  2151 ;; This function uses a non-reentrant model
  2152 ;;
  2153                           
  2154                           	psect	text17
  2155  003A7E                     __ptext17:
  2156                           	callstack 0
  2157  003A7E                     _PMD_Initialize:
  2158                           	callstack 123
  2159  003A7E                     
  2160                           ;mcc_generated_files/mcc.c: 97:     PMD0 = 0x00;
  2161  003A7E  0E00               	movlw	0
  2162  003A80  0100               	movlb	0	; () banked
  2163  003A82  6F60               	movwf	96,b	;volatile
  2164                           
  2165                           ;mcc_generated_files/mcc.c: 99:     PMD1 = 0x00;
  2166  003A84  0E00               	movlw	0
  2167  003A86  6F61               	movwf	97,b	;volatile
  2168                           
  2169                           ;mcc_generated_files/mcc.c: 101:     PMD3 = 0x00;
  2170  003A88  0E00               	movlw	0
  2171  003A8A  6F63               	movwf	99,b	;volatile
  2172                           
  2173                           ;mcc_generated_files/mcc.c: 103:     PMD4 = 0x00;
  2174  003A8C  0E00               	movlw	0
  2175  003A8E  6F64               	movwf	100,b	;volatile
  2176                           
  2177                           ;mcc_generated_files/mcc.c: 105:     PMD5 = 0x00;
  2178  003A90  0E00               	movlw	0
  2179  003A92  6F65               	movwf	101,b	;volatile
  2180                           
  2181                           ;mcc_generated_files/mcc.c: 107:     PMD6 = 0x00;
  2182  003A94  0E00               	movlw	0
  2183  003A96  6F66               	movwf	102,b	;volatile
  2184                           
  2185                           ;mcc_generated_files/mcc.c: 109:     PMD7 = 0x00;
  2186  003A98  0E00               	movlw	0
  2187  003A9A  6F67               	movwf	103,b	;volatile
  2188                           
  2189                           ;mcc_generated_files/mcc.c: 111:     PMD8 = 0x00;
  2190  003A9C  0E00               	movlw	0
  2191  003A9E  6F68               	movwf	104,b	;volatile
  2192  003AA0                     
  2193                           ; BSR set to: 0
  2194  003AA0  0012               	return		;funcret
  2195  003AA2                     __end_of_PMD_Initialize:
  2196                           	callstack 0
  2197                           
  2198 ;; *************** function _PIN_MANAGER_Initialize *****************
  2199 ;; Defined at:
  2200 ;;		line 55 in file "mcc_generated_files/pin_manager.c"
  2201 ;; Parameters:    Size  Location     Type
  2202 ;;		None
  2203 ;; Auto vars:     Size  Location     Type
  2204 ;;		None
  2205 ;; Return value:  Size  Location     Type
  2206 ;;                  1    wreg      void 
  2207 ;; Registers used:
  2208 ;;		wreg, status,2
  2209 ;; Tracked objects:
  2210 ;;		On entry : 0/0
  2211 ;;		On exit  : 0/0
  2212 ;;		Unchanged: 0/0
  2213 ;; Data sizes:     COMRAM   BANK5   BANK6   BANK7   BANK8   BANK9  BANK10  BANK11  BANK12  BANK13  BANK14  BANK15  BANK1
      +6  BANK17  BANK18  BANK19  BANK20  BANK21  BANK22  BANK23  BANK24  BANK25  BANK26  BANK27  BANK28  BANK29  BANK30  BANK3
      +1  BANK32  BANK33  BANK34  BANK35  BANK36
  2214 ;;      Params:         0       0       0       0       0       0       0       0       0       0       0       0       
      +0       0       0       0       0       0       0       0       0       0       0       0       0       0       0       
      +0       0       0       0       0       0
  2215 ;;      Locals:         0       0       0       0       0       0       0       0       0       0       0       0       
      +0       0       0       0       0       0       0       0       0       0       0       0       0       0       0       
      +0       0       0       0       0       0
  2216 ;;      Temps:          0       0       0       0       0       0       0       0       0       0       0       0       
      +0       0       0       0       0       0       0       0       0       0       0       0       0       0       0       
      +0       0       0       0       0       0
  2217 ;;      Totals:         0       0       0       0       0       0       0       0       0       0       0       0       
      +0       0       0       0       0       0       0       0       0       0       0       0       0       0       0       
      +0       0       0       0       0       0
  2218 ;;Total ram usage:        0 bytes
  2219 ;; Hardware stack levels used:    1
  2220 ;; Hardware stack levels required when called:    3
  2221 ;; This function calls:
  2222 ;;		Nothing
  2223 ;; This function is called by:
  2224 ;;		_SYSTEM_Initialize
  2225 ;; This function uses a non-reentrant model
  2226 ;;
  2227                           
  2228                           	psect	text18
  2229  002D1C                     __ptext18:
  2230                           	callstack 0
  2231  002D1C                     _PIN_MANAGER_Initialize:
  2232                           	callstack 123
  2233  002D1C                     
  2234                           ;mcc_generated_files/pin_manager.c: 60:     LATE = 0x00;
  2235  002D1C  0E00               	movlw	0
  2236  002D1E  6EC2               	movwf	194,c	;volatile
  2237                           
  2238                           ;mcc_generated_files/pin_manager.c: 61:     LATD = 0x00;
  2239  002D20  0E00               	movlw	0
  2240  002D22  6EC1               	movwf	193,c	;volatile
  2241                           
  2242                           ;mcc_generated_files/pin_manager.c: 62:     LATA = 0x00;
  2243  002D24  0E00               	movlw	0
  2244  002D26  6EBE               	movwf	190,c	;volatile
  2245                           
  2246                           ;mcc_generated_files/pin_manager.c: 63:     LATF = 0x08;
  2247  002D28  0E08               	movlw	8
  2248  002D2A  6EC3               	movwf	195,c	;volatile
  2249                           
  2250                           ;mcc_generated_files/pin_manager.c: 64:     LATB = 0x00;
  2251  002D2C  0E00               	movlw	0
  2252  002D2E  6EBF               	movwf	191,c	;volatile
  2253                           
  2254                           ;mcc_generated_files/pin_manager.c: 65:     LATC = 0x00;
  2255  002D30  0E00               	movlw	0
  2256  002D32  6EC0               	movwf	192,c	;volatile
  2257                           
  2258                           ;mcc_generated_files/pin_manager.c: 70:     TRISE = 0x07;
  2259  002D34  0E07               	movlw	7
  2260  002D36  6ECA               	movwf	202,c	;volatile
  2261                           
  2262                           ;mcc_generated_files/pin_manager.c: 71:     TRISF = 0xF6;
  2263  002D38  0EF6               	movlw	246
  2264  002D3A  6ECB               	movwf	203,c	;volatile
  2265                           
  2266                           ;mcc_generated_files/pin_manager.c: 72:     TRISA = 0xFB;
  2267  002D3C  0EFB               	movlw	251
  2268  002D3E  6EC6               	movwf	198,c	;volatile
  2269                           
  2270                           ;mcc_generated_files/pin_manager.c: 73:     TRISB = 0xD7;
  2271  002D40  0ED7               	movlw	215
  2272  002D42  6EC7               	movwf	199,c	;volatile
  2273                           
  2274                           ;mcc_generated_files/pin_manager.c: 74:     TRISC = 0x2B;
  2275  002D44  0E2B               	movlw	43
  2276  002D46  6EC8               	movwf	200,c	;volatile
  2277                           
  2278                           ;mcc_generated_files/pin_manager.c: 75:     TRISD = 0x90;
  2279  002D48  0E90               	movlw	144
  2280  002D4A  6EC9               	movwf	201,c	;volatile
  2281                           
  2282                           ;mcc_generated_files/pin_manager.c: 80:     ANSELD = 0xB0;
  2283  002D4C  0EB0               	movlw	176
  2284  002D4E  0104               	movlb	4	; () banked
  2285  002D50  6F18               	movwf	24,b	;volatile
  2286                           
  2287                           ;mcc_generated_files/pin_manager.c: 81:     ANSELC = 0x16;
  2288  002D52  0E16               	movlw	22
  2289  002D54  6F10               	movwf	16,b	;volatile
  2290                           
  2291                           ;mcc_generated_files/pin_manager.c: 82:     ANSELB = 0x8B;
  2292  002D56  0E8B               	movlw	139
  2293  002D58  6F08               	movwf	8,b	;volatile
  2294                           
  2295                           ;mcc_generated_files/pin_manager.c: 83:     ANSELE = 0x07;
  2296  002D5A  0E07               	movlw	7
  2297  002D5C  6F20               	movwf	32,b	;volatile
  2298                           
  2299                           ;mcc_generated_files/pin_manager.c: 84:     ANSELF = 0xF6;
  2300  002D5E  0EF6               	movlw	246
  2301  002D60  6F28               	movwf	40,b	;volatile
  2302                           
  2303                           ;mcc_generated_files/pin_manager.c: 85:     ANSELA = 0x5F;
  2304  002D62  0E5F               	movlw	95
  2305  002D64  6F00               	movwf	0,b	;volatile
  2306                           
  2307                           ;mcc_generated_files/pin_manager.c: 90:     WPUD = 0x00;
  2308  002D66  0E00               	movlw	0
  2309  002D68  6F19               	movwf	25,b	;volatile
  2310                           
  2311                           ;mcc_generated_files/pin_manager.c: 91:     WPUF = 0x00;
  2312  002D6A  0E00               	movlw	0
  2313  002D6C  6F29               	movwf	41,b	;volatile
  2314                           
  2315                           ;mcc_generated_files/pin_manager.c: 92:     WPUE = 0x00;
  2316  002D6E  0E00               	movlw	0
  2317  002D70  6F21               	movwf	33,b	;volatile
  2318                           
  2319                           ;mcc_generated_files/pin_manager.c: 93:     WPUB = 0x10;
  2320  002D72  0E10               	movlw	16
  2321  002D74  6F09               	movwf	9,b	;volatile
  2322                           
  2323                           ;mcc_generated_files/pin_manager.c: 94:     WPUA = 0x20;
  2324  002D76  0E20               	movlw	32
  2325  002D78  6F01               	movwf	1,b	;volatile
  2326                           
  2327                           ;mcc_generated_files/pin_manager.c: 95:     WPUC = 0x00;
  2328  002D7A  0E00               	movlw	0
  2329  002D7C  6F11               	movwf	17,b	;volatile
  2330                           
  2331                           ;mcc_generated_files/pin_manager.c: 100:     RB1I2C = 0x00;
  2332  002D7E  0E00               	movlw	0
  2333  002D80  0102               	movlb	2	; () banked
  2334  002D82  6F89               	movwf	137,b	;volatile
  2335                           
  2336                           ;mcc_generated_files/pin_manager.c: 101:     RB2I2C = 0x00;
  2337  002D84  0E00               	movlw	0
  2338  002D86  6F88               	movwf	136,b	;volatile
  2339                           
  2340                           ;mcc_generated_files/pin_manager.c: 102:     RC3I2C = 0x00;
  2341  002D88  0E00               	movlw	0
  2342  002D8A  6F87               	movwf	135,b	;volatile
  2343                           
  2344                           ;mcc_generated_files/pin_manager.c: 103:     RC4I2C = 0x00;
  2345  002D8C  0E00               	movlw	0
  2346  002D8E  6F86               	movwf	134,b	;volatile
  2347                           
  2348                           ;mcc_generated_files/pin_manager.c: 108:     ODCONE = 0x00;
  2349  002D90  0E00               	movlw	0
  2350  002D92  0104               	movlb	4	; () banked
  2351  002D94  6F22               	movwf	34,b	;volatile
  2352                           
  2353                           ;mcc_generated_files/pin_manager.c: 109:     ODCONF = 0x00;
  2354  002D96  0E00               	movlw	0
  2355  002D98  6F2A               	movwf	42,b	;volatile
  2356                           
  2357                           ;mcc_generated_files/pin_manager.c: 110:     ODCONA = 0x00;
  2358  002D9A  0E00               	movlw	0
  2359  002D9C  6F02               	movwf	2,b	;volatile
  2360                           
  2361                           ;mcc_generated_files/pin_manager.c: 111:     ODCONB = 0x20;
  2362  002D9E  0E20               	movlw	32
  2363  002DA0  6F0A               	movwf	10,b	;volatile
  2364                           
  2365                           ;mcc_generated_files/pin_manager.c: 112:     ODCONC = 0x00;
  2366  002DA2  0E00               	movlw	0
  2367  002DA4  6F12               	movwf	18,b	;volatile
  2368                           
  2369                           ;mcc_generated_files/pin_manager.c: 113:     ODCOND = 0x00;
  2370  002DA6  0E00               	movlw	0
  2371  002DA8  6F1A               	movwf	26,b	;volatile
  2372  002DAA                     
  2373                           ; BSR set to: 4
  2374                           ;mcc_generated_files/pin_manager.c: 118:     SLRCONA = 0xFF;
  2375  002DAA  6903               	setf	3,b	;volatile
  2376  002DAC                     
  2377                           ; BSR set to: 4
  2378                           ;mcc_generated_files/pin_manager.c: 119:     SLRCONB = 0xFF;
  2379  002DAC  690B               	setf	11,b	;volatile
  2380  002DAE                     
  2381                           ; BSR set to: 4
  2382                           ;mcc_generated_files/pin_manager.c: 120:     SLRCONC = 0xFF;
  2383  002DAE  6913               	setf	19,b	;volatile
  2384  002DB0                     
  2385                           ; BSR set to: 4
  2386                           ;mcc_generated_files/pin_manager.c: 121:     SLRCOND = 0xFF;
  2387  002DB0  691B               	setf	27,b	;volatile
  2388                           
  2389                           ;mcc_generated_files/pin_manager.c: 122:     SLRCONE = 0x07;
  2390  002DB2  0E07               	movlw	7
  2391  002DB4  6F23               	movwf	35,b	;volatile
  2392  002DB6                     
  2393                           ; BSR set to: 4
  2394                           ;mcc_generated_files/pin_manager.c: 123:     SLRCONF = 0xFF;
  2395  002DB6  692B               	setf	43,b	;volatile
  2396  002DB8                     
  2397                           ; BSR set to: 4
  2398                           ;mcc_generated_files/pin_manager.c: 128:     INLVLA = 0xFF;
  2399  002DB8  6904               	setf	4,b	;volatile
  2400  002DBA                     
  2401                           ; BSR set to: 4
  2402                           ;mcc_generated_files/pin_manager.c: 129:     INLVLB = 0xFF;
  2403  002DBA  690C               	setf	12,b	;volatile
  2404  002DBC                     
  2405                           ; BSR set to: 4
  2406                           ;mcc_generated_files/pin_manager.c: 130:     INLVLC = 0xFF;
  2407  002DBC  6914               	setf	20,b	;volatile
  2408  002DBE                     
  2409                           ; BSR set to: 4
  2410                           ;mcc_generated_files/pin_manager.c: 131:     INLVLD = 0xFF;
  2411  002DBE  691C               	setf	28,b	;volatile
  2412                           
  2413                           ;mcc_generated_files/pin_manager.c: 132:     INLVLE = 0x0F;
  2414  002DC0  0E0F               	movlw	15
  2415  002DC2  6F24               	movwf	36,b	;volatile
  2416  002DC4                     
  2417                           ; BSR set to: 4
  2418                           ;mcc_generated_files/pin_manager.c: 133:     INLVLF = 0xFF;
  2419  002DC4  692C               	setf	44,b	;volatile
  2420                           
  2421                           ;mcc_generated_files/pin_manager.c: 142:     RB5PPS = 0x1A;
  2422  002DC6  0E1A               	movlw	26
  2423  002DC8  0102               	movlb	2	; () banked
  2424  002DCA  6F0E               	movwf	14,b	;volatile
  2425                           
  2426                           ;mcc_generated_files/pin_manager.c: 143:     RC4PPS = 0x32;
  2427  002DCC  0E32               	movlw	50
  2428  002DCE  6F15               	movwf	21,b	;volatile
  2429                           
  2430                           ;mcc_generated_files/pin_manager.c: 144:     RC2PPS = 0x20;
  2431  002DD0  0E20               	movlw	32
  2432  002DD2  6F13               	movwf	19,b	;volatile
  2433                           
  2434                           ;mcc_generated_files/pin_manager.c: 145:     PWM2ERSPPS = 0x10;
  2435  002DD4  0E10               	movlw	16
  2436  002DD6  6F54               	movwf	84,b	;volatile
  2437                           
  2438                           ;mcc_generated_files/pin_manager.c: 146:     RF0PPS = 0x20;
  2439  002DD8  0E20               	movlw	32
  2440  002DDA  6F29               	movwf	41,b	;volatile
  2441                           
  2442                           ;mcc_generated_files/pin_manager.c: 147:     U1RXPPS = 0x13;
  2443  002DDC  0E13               	movlw	19
  2444  002DDE  6F72               	movwf	114,b	;volatile
  2445                           
  2446                           ;mcc_generated_files/pin_manager.c: 148:     PWMIN0PPS = 0x10;
  2447  002DE0  0E10               	movlw	16
  2448  002DE2  6F57               	movwf	87,b	;volatile
  2449                           
  2450                           ;mcc_generated_files/pin_manager.c: 149:     SPI1SCKPPS = 0x16;
  2451  002DE4  0E16               	movlw	22
  2452  002DE6  6F6A               	movwf	106,b	;volatile
  2453                           
  2454                           ;mcc_generated_files/pin_manager.c: 150:     RD5PPS = 0x2F;
  2455  002DE8  0E2F               	movlw	47
  2456  002DEA  6F1E               	movwf	30,b	;volatile
  2457                           
  2458                           ;mcc_generated_files/pin_manager.c: 151:     CLCIN0PPS = 0x07;
  2459  002DEC  0E07               	movlw	7
  2460  002DEE  6F61               	movwf	97,b	;volatile
  2461                           
  2462                           ;mcc_generated_files/pin_manager.c: 152:     T2INPPS = 0x05;
  2463  002DF0  0E05               	movlw	5
  2464  002DF2  6F48               	movwf	72,b	;volatile
  2465                           
  2466                           ;mcc_generated_files/pin_manager.c: 153:     RC6PPS = 0x31;
  2467  002DF4  0E31               	movlw	49
  2468  002DF6  6F17               	movwf	23,b	;volatile
  2469                           
  2470                           ;mcc_generated_files/pin_manager.c: 154:     SPI1SDIPPS = 0x15;
  2471  002DF8  0E15               	movlw	21
  2472  002DFA  6F6B               	movwf	107,b	;volatile
  2473                           
  2474                           ;mcc_generated_files/pin_manager.c: 155:     T4INPPS = 0x0C;
  2475  002DFC  0E0C               	movlw	12
  2476  002DFE  6F49               	movwf	73,b	;volatile
  2477  002E00                     
  2478                           ; BSR set to: 2
  2479  002E00  0012               	return		;funcret
  2480  002E02                     __end_of_PIN_MANAGER_Initialize:
  2481                           	callstack 0
  2482                           
  2483 ;; *************** function _OSCILLATOR_Initialize *****************
  2484 ;; Defined at:
  2485 ;;		line 78 in file "mcc_generated_files/mcc.c"
  2486 ;; Parameters:    Size  Location     Type
  2487 ;;		None
  2488 ;; Auto vars:     Size  Location     Type
  2489 ;;		None
  2490 ;; Return value:  Size  Location     Type
  2491 ;;                  1    wreg      void 
  2492 ;; Registers used:
  2493 ;;		wreg, status,2
  2494 ;; Tracked objects:
  2495 ;;		On entry : 0/0
  2496 ;;		On exit  : 0/0
  2497 ;;		Unchanged: 0/0
  2498 ;; Data sizes:     COMRAM   BANK5   BANK6   BANK7   BANK8   BANK9  BANK10  BANK11  BANK12  BANK13  BANK14  BANK15  BANK1
      +6  BANK17  BANK18  BANK19  BANK20  BANK21  BANK22  BANK23  BANK24  BANK25  BANK26  BANK27  BANK28  BANK29  BANK30  BANK3
      +1  BANK32  BANK33  BANK34  BANK35  BANK36
  2499 ;;      Params:         0       0       0       0       0       0       0       0       0       0       0       0       
      +0       0       0       0       0       0       0       0       0       0       0       0       0       0       0       
      +0       0       0       0       0       0
  2500 ;;      Locals:         0       0       0       0       0       0       0       0       0       0       0       0       
      +0       0       0       0       0       0       0       0       0       0       0       0       0       0       0       
      +0       0       0       0       0       0
  2501 ;;      Temps:          0       0       0       0       0       0       0       0       0       0       0       0       
      +0       0       0       0       0       0       0       0       0       0       0       0       0       0       0       
      +0       0       0       0       0       0
  2502 ;;      Totals:         0       0       0       0       0       0       0       0       0       0       0       0       
      +0       0       0       0       0       0       0       0       0       0       0       0       0       0       0       
      +0       0       0       0       0       0
  2503 ;;Total ram usage:        0 bytes
  2504 ;; Hardware stack levels used:    1
  2505 ;; Hardware stack levels required when called:    3
  2506 ;; This function calls:
  2507 ;;		Nothing
  2508 ;; This function is called by:
  2509 ;;		_SYSTEM_Initialize
  2510 ;; This function uses a non-reentrant model
  2511 ;;
  2512                           
  2513                           	psect	text19
  2514  003BEE                     __ptext19:
  2515                           	callstack 0
  2516  003BEE                     _OSCILLATOR_Initialize:
  2517                           	callstack 123
  2518  003BEE                     
  2519                           ;mcc_generated_files/mcc.c: 81:     OSCCON1 = 0x60;
  2520  003BEE  0E60               	movlw	96
  2521  003BF0  0100               	movlb	0	; () banked
  2522  003BF2  6FAD               	movwf	173,b	;volatile
  2523                           
  2524                           ;mcc_generated_files/mcc.c: 83:     OSCCON3 = 0x00;
  2525  003BF4  0E00               	movlw	0
  2526  003BF6  6FAF               	movwf	175,b	;volatile
  2527                           
  2528                           ;mcc_generated_files/mcc.c: 85:     OSCEN = 0x00;
  2529  003BF8  0E00               	movlw	0
  2530  003BFA  6FB3               	movwf	179,b	;volatile
  2531                           
  2532                           ;mcc_generated_files/mcc.c: 87:     OSCFRQ = 0x08;
  2533  003BFC  0E08               	movlw	8
  2534  003BFE  6FB1               	movwf	177,b	;volatile
  2535                           
  2536                           ;mcc_generated_files/mcc.c: 89:     OSCTUNE = 0x00;
  2537  003C00  0E00               	movlw	0
  2538  003C02  6FB0               	movwf	176,b	;volatile
  2539                           
  2540                           ;mcc_generated_files/mcc.c: 91:     ACTCON = 0x00;
  2541  003C04  0E00               	movlw	0
  2542  003C06  6FAC               	movwf	172,b	;volatile
  2543  003C08                     
  2544                           ; BSR set to: 0
  2545  003C08  0012               	return		;funcret
  2546  003C0A                     __end_of_OSCILLATOR_Initialize:
  2547                           	callstack 0
  2548                           
  2549 ;; *************** function _INTERRUPT_Initialize *****************
  2550 ;; Defined at:
  2551 ;;		line 52 in file "mcc_generated_files/interrupt_manager.c"
  2552 ;; Parameters:    Size  Location     Type
  2553 ;;		None
  2554 ;; Auto vars:     Size  Location     Type
  2555 ;;  state           1    1[COMRAM] _Bool 
  2556 ;; Return value:  Size  Location     Type
  2557 ;;                  1    wreg      void 
  2558 ;; Registers used:
  2559 ;;		wreg, status,2
  2560 ;; Tracked objects:
  2561 ;;		On entry : 0/0
  2562 ;;		On exit  : 0/0
  2563 ;;		Unchanged: 0/0
  2564 ;; Data sizes:     COMRAM   BANK5   BANK6   BANK7   BANK8   BANK9  BANK10  BANK11  BANK12  BANK13  BANK14  BANK15  BANK1
      +6  BANK17  BANK18  BANK19  BANK20  BANK21  BANK22  BANK23  BANK24  BANK25  BANK26  BANK27  BANK28  BANK29  BANK30  BANK3
      +1  BANK32  BANK33  BANK34  BANK35  BANK36
  2565 ;;      Params:         0       0       0       0       0       0       0       0       0       0       0       0       
      +0       0       0       0       0       0       0       0       0       0       0       0       0       0       0       
      +0       0       0       0       0       0
  2566 ;;      Locals:         1       0       0       0       0       0       0       0       0       0       0       0       
      +0       0       0       0       0       0       0       0       0       0       0       0       0       0       0       
      +0       0       0       0       0       0
  2567 ;;      Temps:          0       0       0       0       0       0       0       0       0       0       0       0       
      +0       0       0       0       0       0       0       0       0       0       0       0       0       0       0       
      +0       0       0       0       0       0
  2568 ;;      Totals:         1       0       0       0       0       0       0       0       0       0       0       0       
      +0       0       0       0       0       0       0       0       0       0       0       0       0       0       0       
      +0       0       0       0       0       0
  2569 ;;Total ram usage:        1 bytes
  2570 ;; Hardware stack levels used:    1
  2571 ;; Hardware stack levels required when called:    3
  2572 ;; This function calls:
  2573 ;;		Nothing
  2574 ;; This function is called by:
  2575 ;;		_SYSTEM_Initialize
  2576 ;; This function uses a non-reentrant model
  2577 ;;
  2578                           
  2579                           	psect	text20
  2580  003748                     __ptext20:
  2581                           	callstack 0
  2582  003748                     _INTERRUPT_Initialize:
  2583                           	callstack 123
  2584  003748                     
  2585                           ;mcc_generated_files/interrupt_manager.c: 54:     INTCON0bits.IPEN = 1;
  2586  003748  8AD6               	bsf	214,5,c	;volatile
  2587  00374A                     
  2588                           ;mcc_generated_files/interrupt_manager.c: 56:     _Bool state = (unsigned char)GIE;
  2589  00374A  0E00               	movlw	0
  2590  00374C  BED6               	btfsc	1238,7,c	;volatile
  2591  00374E  0E01               	movlw	1
  2592  003750  6E02               	movwf	INTERRUPT_Initialize@state^(0+1280),c
  2593  003752                     
  2594                           ;mcc_generated_files/interrupt_manager.c: 57:     GIE = 0;
  2595  003752  9ED6               	bcf	1238,7,c	;volatile
  2596                           
  2597                           ;mcc_generated_files/interrupt_manager.c: 58:     IVTLOCK = 0x55;
  2598  003754  0E55               	movlw	85
  2599  003756  0104               	movlb	4	; () banked
  2600  003758  6F59               	movwf	89,b	;volatile
  2601                           
  2602                           ;mcc_generated_files/interrupt_manager.c: 59:     IVTLOCK = 0xAA;
  2603  00375A  0EAA               	movlw	170
  2604  00375C  6F59               	movwf	89,b	;volatile
  2605  00375E                     
  2606                           ; BSR set to: 4
  2607                           ;mcc_generated_files/interrupt_manager.c: 60:     IVTLOCKbits.IVTLOCKED = 0x00;
  2608  00375E  9159               	bcf	89,0,b	;volatile
  2609                           
  2610                           ;mcc_generated_files/interrupt_manager.c: 62:     IVTBASEU = 0;
  2611  003760  0E00               	movlw	0
  2612  003762  6F5F               	movwf	95,b	;volatile
  2613                           
  2614                           ;mcc_generated_files/interrupt_manager.c: 63:     IVTBASEH = 0;
  2615  003764  0E00               	movlw	0
  2616  003766  6F5E               	movwf	94,b	;volatile
  2617                           
  2618                           ;mcc_generated_files/interrupt_manager.c: 64:     IVTBASEL = 8;
  2619  003768  0E08               	movlw	8
  2620  00376A  6F5D               	movwf	93,b	;volatile
  2621                           
  2622                           ;mcc_generated_files/interrupt_manager.c: 66:     IVTLOCK = 0x55;
  2623  00376C  0E55               	movlw	85
  2624  00376E  6F59               	movwf	89,b	;volatile
  2625                           
  2626                           ;mcc_generated_files/interrupt_manager.c: 67:     IVTLOCK = 0xAA;
  2627  003770  0EAA               	movlw	170
  2628  003772  6F59               	movwf	89,b	;volatile
  2629  003774                     
  2630                           ; BSR set to: 4
  2631                           ;mcc_generated_files/interrupt_manager.c: 68:     IVTLOCKbits.IVTLOCKED = 0x01;
  2632  003774  8159               	bsf	89,0,b	;volatile
  2633  003776                     
  2634                           ; BSR set to: 4
  2635                           ;mcc_generated_files/interrupt_manager.c: 70:     GIE = state;
  2636  003776  B002               	btfsc	INTERRUPT_Initialize@state^(0+1280),0,c
  2637  003778  D002               	bra	u145
  2638  00377A  9ED6               	bcf	1238,7,c	;volatile
  2639  00377C  D001               	bra	u146
  2640  00377E                     u145:
  2641  00377E  8ED6               	bsf	1238,7,c	;volatile
  2642  003780                     u146:
  2643  003780                     
  2644                           ;mcc_generated_files/interrupt_manager.c: 72:     IPR6bits.CLC2IP = 1;
  2645  003780  0103               	movlb	3	; () banked
  2646  003782  8368               	bsf	104,1,b	;volatile
  2647  003784                     
  2648                           ; BSR set to: 3
  2649                           ;mcc_generated_files/interrupt_manager.c: 73:     IPR0bits.CLC1IP = 1;
  2650  003784  8B62               	bsf	98,5,b	;volatile
  2651  003786                     
  2652                           ; BSR set to: 3
  2653                           ;mcc_generated_files/interrupt_manager.c: 74:     IPR3bits.TMR0IP = 1;
  2654  003786  8F65               	bsf	101,7,b	;volatile
  2655  003788                     
  2656                           ; BSR set to: 3
  2657                           ;mcc_generated_files/interrupt_manager.c: 75:     IPR15bits.TMR6IP = 1;
  2658  003788  8771               	bsf	113,3,b	;volatile
  2659  00378A                     
  2660                           ; BSR set to: 3
  2661  00378A  0012               	return		;funcret
  2662  00378C                     __end_of_INTERRUPT_Initialize:
  2663                           	callstack 0
  2664                           
  2665 ;; *************** function _DMA6_Initialize *****************
  2666 ;; Defined at:
  2667 ;;		line 59 in file "mcc_generated_files/dma6.c"
  2668 ;; Parameters:    Size  Location     Type
  2669 ;;		None
  2670 ;; Auto vars:     Size  Location     Type
  2671 ;;		None
  2672 ;; Return value:  Size  Location     Type
  2673 ;;                  1    wreg      void 
  2674 ;; Registers used:
  2675 ;;		wreg, status,2
  2676 ;; Tracked objects:
  2677 ;;		On entry : 0/0
  2678 ;;		On exit  : 0/0
  2679 ;;		Unchanged: 0/0
  2680 ;; Data sizes:     COMRAM   BANK5   BANK6   BANK7   BANK8   BANK9  BANK10  BANK11  BANK12  BANK13  BANK14  BANK15  BANK1
      +6  BANK17  BANK18  BANK19  BANK20  BANK21  BANK22  BANK23  BANK24  BANK25  BANK26  BANK27  BANK28  BANK29  BANK30  BANK3
      +1  BANK32  BANK33  BANK34  BANK35  BANK36
  2681 ;;      Params:         0       0       0       0       0       0       0       0       0       0       0       0       
      +0       0       0       0       0       0       0       0       0       0       0       0       0       0       0       
      +0       0       0       0       0       0
  2682 ;;      Locals:         0       0       0       0       0       0       0       0       0       0       0       0       
      +0       0       0       0       0       0       0       0       0       0       0       0       0       0       0       
      +0       0       0       0       0       0
  2683 ;;      Temps:          0       0       0       0       0       0       0       0       0       0       0       0       
      +0       0       0       0       0       0       0       0       0       0       0       0       0       0       0       
      +0       0       0       0       0       0
  2684 ;;      Totals:         0       0       0       0       0       0       0       0       0       0       0       0       
      +0       0       0       0       0       0       0       0       0       0       0       0       0       0       0       
      +0       0       0       0       0       0
  2685 ;;Total ram usage:        0 bytes
  2686 ;; Hardware stack levels used:    1
  2687 ;; Hardware stack levels required when called:    3
  2688 ;; This function calls:
  2689 ;;		Nothing
  2690 ;; This function is called by:
  2691 ;;		_SYSTEM_Initialize
  2692 ;; This function uses a non-reentrant model
  2693 ;;
  2694                           
  2695                           	psect	text21
  2696  003580                     __ptext21:
  2697                           	callstack 0
  2698  003580                     _DMA6_Initialize:
  2699                           	callstack 123
  2700  003580                     
  2701                           ;mcc_generated_files/dma6.c: 62:     DMASELECT = 0x05;
  2702  003580  0E05               	movlw	5
  2703  003582  0100               	movlb	0	; () banked
  2704  003584  6FE8               	movwf	232,b	;volatile
  2705                           
  2706                           ;mcc_generated_files/dma6.c: 64:     DMAnSSA = 0x4000;
  2707  003586  0E00               	movlw	0
  2708  003588  6FF9               	movwf	249,b	;volatile
  2709  00358A  0E40               	movlw	64
  2710  00358C  6FFA               	movwf	250,b	;volatile
  2711  00358E  0E00               	movlw	0
  2712  003590  6FFB               	movwf	251,b	;volatile
  2713                           
  2714                           ;mcc_generated_files/dma6.c: 66:     DMAnDSA = &DAC1DATL;
  2715  003592  0E00               	movlw	0
  2716  003594  6FF1               	movwf	241,b	;volatile
  2717  003596  0E7D               	movlw	125
  2718  003598  6FF0               	movwf	240,b	;volatile
  2719                           
  2720                           ;mcc_generated_files/dma6.c: 68:     DMAnCON1 = 0x0B;
  2721  00359A  0E0B               	movlw	11
  2722  00359C  6FFD               	movwf	253,b	;volatile
  2723                           
  2724                           ;mcc_generated_files/dma6.c: 70:     DMAnSSZ = 256;
  2725  00359E  0E01               	movlw	1
  2726  0035A0  6FF8               	movwf	248,b	;volatile
  2727  0035A2  0E00               	movlw	0
  2728  0035A4  6FF7               	movwf	247,b	;volatile
  2729                           
  2730                           ;mcc_generated_files/dma6.c: 72:     DMAnDSZ = 1;
  2731  0035A6  0E00               	movlw	0
  2732  0035A8  6FEF               	movwf	239,b	;volatile
  2733  0035AA  0E01               	movlw	1
  2734  0035AC  6FEE               	movwf	238,b	;volatile
  2735                           
  2736                           ;mcc_generated_files/dma6.c: 74:     DMAnSIRQ = 0x1F;
  2737  0035AE  0E1F               	movlw	31
  2738  0035B0  6FFF               	movwf	255,b	;volatile
  2739                           
  2740                           ;mcc_generated_files/dma6.c: 76:     DMAnAIRQ = 0x00;
  2741  0035B2  0E00               	movlw	0
  2742  0035B4  6FFE               	movwf	254,b	;volatile
  2743  0035B6                     
  2744                           ; BSR set to: 0
  2745                           ;mcc_generated_files/dma6.c: 79:     PIR13bits.DMA6DCNTIF = 0;
  2746  0035B6  9ABB               	bcf	187,5,c	;volatile
  2747  0035B8                     
  2748                           ; BSR set to: 0
  2749                           ;mcc_generated_files/dma6.c: 81:     PIR13bits.DMA6SCNTIF = 0;
  2750  0035B8  98BB               	bcf	187,4,c	;volatile
  2751  0035BA                     
  2752                           ; BSR set to: 0
  2753                           ;mcc_generated_files/dma6.c: 83:     PIR13bits.DMA6AIF = 0;
  2754  0035BA  9EBB               	bcf	187,7,c	;volatile
  2755  0035BC                     
  2756                           ; BSR set to: 0
  2757                           ;mcc_generated_files/dma6.c: 85:     PIR13bits.DMA6ORIF =0;
  2758  0035BC  9CBB               	bcf	187,6,c	;volatile
  2759  0035BE                     
  2760                           ; BSR set to: 0
  2761                           ;mcc_generated_files/dma6.c: 87:     PIE13bits.DMA6DCNTIE = 0;
  2762  0035BE  9AAB               	bcf	171,5,c	;volatile
  2763  0035C0                     
  2764                           ; BSR set to: 0
  2765                           ;mcc_generated_files/dma6.c: 88:     PIE13bits.DMA6SCNTIE = 0;
  2766  0035C0  98AB               	bcf	171,4,c	;volatile
  2767  0035C2                     
  2768                           ; BSR set to: 0
  2769                           ;mcc_generated_files/dma6.c: 89:     PIE13bits.DMA6AIE = 0;
  2770  0035C2  9EAB               	bcf	171,7,c	;volatile
  2771  0035C4                     
  2772                           ; BSR set to: 0
  2773                           ;mcc_generated_files/dma6.c: 90:     PIE13bits.DMA6ORIE = 0;
  2774  0035C4  9CAB               	bcf	171,6,c	;volatile
  2775                           
  2776                           ;mcc_generated_files/dma6.c: 93:     DMAnCON0 = 0xC0;
  2777  0035C6  0EC0               	movlw	192
  2778  0035C8  6FFC               	movwf	252,b	;volatile
  2779  0035CA                     
  2780                           ; BSR set to: 0
  2781  0035CA  0012               	return		;funcret
  2782  0035CC                     __end_of_DMA6_Initialize:
  2783                           	callstack 0
  2784                           
  2785 ;; *************** function _DMA5_Initialize *****************
  2786 ;; Defined at:
  2787 ;;		line 59 in file "mcc_generated_files/dma5.c"
  2788 ;; Parameters:    Size  Location     Type
  2789 ;;		None
  2790 ;; Auto vars:     Size  Location     Type
  2791 ;;		None
  2792 ;; Return value:  Size  Location     Type
  2793 ;;                  1    wreg      void 
  2794 ;; Registers used:
  2795 ;;		wreg, status,2
  2796 ;; Tracked objects:
  2797 ;;		On entry : 0/0
  2798 ;;		On exit  : 0/0
  2799 ;;		Unchanged: 0/0
  2800 ;; Data sizes:     COMRAM   BANK5   BANK6   BANK7   BANK8   BANK9  BANK10  BANK11  BANK12  BANK13  BANK14  BANK15  BANK1
      +6  BANK17  BANK18  BANK19  BANK20  BANK21  BANK22  BANK23  BANK24  BANK25  BANK26  BANK27  BANK28  BANK29  BANK30  BANK3
      +1  BANK32  BANK33  BANK34  BANK35  BANK36
  2801 ;;      Params:         0       0       0       0       0       0       0       0       0       0       0       0       
      +0       0       0       0       0       0       0       0       0       0       0       0       0       0       0       
      +0       0       0       0       0       0
  2802 ;;      Locals:         0       0       0       0       0       0       0       0       0       0       0       0       
      +0       0       0       0       0       0       0       0       0       0       0       0       0       0       0       
      +0       0       0       0       0       0
  2803 ;;      Temps:          0       0       0       0       0       0       0       0       0       0       0       0       
      +0       0       0       0       0       0       0       0       0       0       0       0       0       0       0       
      +0       0       0       0       0       0
  2804 ;;      Totals:         0       0       0       0       0       0       0       0       0       0       0       0       
      +0       0       0       0       0       0       0       0       0       0       0       0       0       0       0       
      +0       0       0       0       0       0
  2805 ;;Total ram usage:        0 bytes
  2806 ;; Hardware stack levels used:    1
  2807 ;; Hardware stack levels required when called:    3
  2808 ;; This function calls:
  2809 ;;		Nothing
  2810 ;; This function is called by:
  2811 ;;		_SYSTEM_Initialize
  2812 ;; This function uses a non-reentrant model
  2813 ;;
  2814                           
  2815                           	psect	text22
  2816  0035CC                     __ptext22:
  2817                           	callstack 0
  2818  0035CC                     _DMA5_Initialize:
  2819                           	callstack 123
  2820  0035CC                     
  2821                           ;mcc_generated_files/dma5.c: 62:     DMASELECT = 0x04;
  2822  0035CC  0E04               	movlw	4
  2823  0035CE  0100               	movlb	0	; () banked
  2824  0035D0  6FE8               	movwf	232,b	;volatile
  2825                           
  2826                           ;mcc_generated_files/dma5.c: 64:     DMAnSSA = 0x0B00;
  2827  0035D2  0E00               	movlw	0
  2828  0035D4  6FF9               	movwf	249,b	;volatile
  2829  0035D6  0E0B               	movlw	11
  2830  0035D8  6FFA               	movwf	250,b	;volatile
  2831  0035DA  0E00               	movlw	0
  2832  0035DC  6FFB               	movwf	251,b	;volatile
  2833                           
  2834                           ;mcc_generated_files/dma5.c: 66:     DMAnDSA= 0x2500;
  2835  0035DE  0E25               	movlw	37
  2836  0035E0  6FF1               	movwf	241,b	;volatile
  2837  0035E2  0E00               	movlw	0
  2838  0035E4  6FF0               	movwf	240,b	;volatile
  2839                           
  2840                           ;mcc_generated_files/dma5.c: 68:     DMAnCON1 = 0x42;
  2841  0035E6  0E42               	movlw	66
  2842  0035E8  6FFD               	movwf	253,b	;volatile
  2843                           
  2844                           ;mcc_generated_files/dma5.c: 70:     DMAnSSZ = 512;
  2845  0035EA  0E02               	movlw	2
  2846  0035EC  6FF8               	movwf	248,b	;volatile
  2847  0035EE  0E00               	movlw	0
  2848  0035F0  6FF7               	movwf	247,b	;volatile
  2849                           
  2850                           ;mcc_generated_files/dma5.c: 72:     DMAnDSZ = 256;
  2851  0035F2  0E01               	movlw	1
  2852  0035F4  6FEF               	movwf	239,b	;volatile
  2853  0035F6  0E00               	movlw	0
  2854  0035F8  6FEE               	movwf	238,b	;volatile
  2855                           
  2856                           ;mcc_generated_files/dma5.c: 74:     DMAnSIRQ = 0x00;
  2857  0035FA  0E00               	movlw	0
  2858  0035FC  6FFF               	movwf	255,b	;volatile
  2859                           
  2860                           ;mcc_generated_files/dma5.c: 76:     DMAnAIRQ = 0x00;
  2861  0035FE  0E00               	movlw	0
  2862  003600  6FFE               	movwf	254,b	;volatile
  2863  003602                     
  2864                           ; BSR set to: 0
  2865                           ;mcc_generated_files/dma5.c: 79:     PIR12bits.DMA5DCNTIF = 0;
  2866  003602  9ABA               	bcf	186,5,c	;volatile
  2867  003604                     
  2868                           ; BSR set to: 0
  2869                           ;mcc_generated_files/dma5.c: 81:     PIR12bits.DMA5SCNTIF = 0;
  2870  003604  98BA               	bcf	186,4,c	;volatile
  2871  003606                     
  2872                           ; BSR set to: 0
  2873                           ;mcc_generated_files/dma5.c: 83:     PIR12bits.DMA5AIF = 0;
  2874  003606  9EBA               	bcf	186,7,c	;volatile
  2875  003608                     
  2876                           ; BSR set to: 0
  2877                           ;mcc_generated_files/dma5.c: 85:     PIR12bits.DMA5ORIF =0;
  2878  003608  9CBA               	bcf	186,6,c	;volatile
  2879  00360A                     
  2880                           ; BSR set to: 0
  2881                           ;mcc_generated_files/dma5.c: 87:     PIE12bits.DMA5DCNTIE = 0;
  2882  00360A  9AAA               	bcf	170,5,c	;volatile
  2883  00360C                     
  2884                           ; BSR set to: 0
  2885                           ;mcc_generated_files/dma5.c: 88:     PIE12bits.DMA5SCNTIE = 0;
  2886  00360C  98AA               	bcf	170,4,c	;volatile
  2887  00360E                     
  2888                           ; BSR set to: 0
  2889                           ;mcc_generated_files/dma5.c: 89:     PIE12bits.DMA5AIE = 0;
  2890  00360E  9EAA               	bcf	170,7,c	;volatile
  2891  003610                     
  2892                           ; BSR set to: 0
  2893                           ;mcc_generated_files/dma5.c: 90:     PIE12bits.DMA5ORIE = 0;
  2894  003610  9CAA               	bcf	170,6,c	;volatile
  2895                           
  2896                           ;mcc_generated_files/dma5.c: 93:     DMAnCON0 = 0x80;
  2897  003612  0E80               	movlw	128
  2898  003614  6FFC               	movwf	252,b	;volatile
  2899  003616                     
  2900                           ; BSR set to: 0
  2901  003616  0012               	return		;funcret
  2902  003618                     __end_of_DMA5_Initialize:
  2903                           	callstack 0
  2904                           
  2905 ;; *************** function _DMA4_Initialize *****************
  2906 ;; Defined at:
  2907 ;;		line 59 in file "mcc_generated_files/dma4.c"
  2908 ;; Parameters:    Size  Location     Type
  2909 ;;		None
  2910 ;; Auto vars:     Size  Location     Type
  2911 ;;		None
  2912 ;; Return value:  Size  Location     Type
  2913 ;;                  1    wreg      void 
  2914 ;; Registers used:
  2915 ;;		wreg, status,2
  2916 ;; Tracked objects:
  2917 ;;		On entry : 0/0
  2918 ;;		On exit  : 0/0
  2919 ;;		Unchanged: 0/0
  2920 ;; Data sizes:     COMRAM   BANK5   BANK6   BANK7   BANK8   BANK9  BANK10  BANK11  BANK12  BANK13  BANK14  BANK15  BANK1
      +6  BANK17  BANK18  BANK19  BANK20  BANK21  BANK22  BANK23  BANK24  BANK25  BANK26  BANK27  BANK28  BANK29  BANK30  BANK3
      +1  BANK32  BANK33  BANK34  BANK35  BANK36
  2921 ;;      Params:         0       0       0       0       0       0       0       0       0       0       0       0       
      +0       0       0       0       0       0       0       0       0       0       0       0       0       0       0       
      +0       0       0       0       0       0
  2922 ;;      Locals:         0       0       0       0       0       0       0       0       0       0       0       0       
      +0       0       0       0       0       0       0       0       0       0       0       0       0       0       0       
      +0       0       0       0       0       0
  2923 ;;      Temps:          0       0       0       0       0       0       0       0       0       0       0       0       
      +0       0       0       0       0       0       0       0       0       0       0       0       0       0       0       
      +0       0       0       0       0       0
  2924 ;;      Totals:         0       0       0       0       0       0       0       0       0       0       0       0       
      +0       0       0       0       0       0       0       0       0       0       0       0       0       0       0       
      +0       0       0       0       0       0
  2925 ;;Total ram usage:        0 bytes
  2926 ;; Hardware stack levels used:    1
  2927 ;; Hardware stack levels required when called:    3
  2928 ;; This function calls:
  2929 ;;		Nothing
  2930 ;; This function is called by:
  2931 ;;		_SYSTEM_Initialize
  2932 ;; This function uses a non-reentrant model
  2933 ;;
  2934                           
  2935                           	psect	text23
  2936  003618                     __ptext23:
  2937                           	callstack 0
  2938  003618                     _DMA4_Initialize:
  2939                           	callstack 123
  2940  003618                     
  2941                           ;mcc_generated_files/dma4.c: 62:     DMASELECT = 0x03;
  2942  003618  0E03               	movlw	3
  2943  00361A  0100               	movlb	0	; () banked
  2944  00361C  6FE8               	movwf	232,b	;volatile
  2945                           
  2946                           ;mcc_generated_files/dma4.c: 64:     DMAnSSA = 0x0B00;
  2947  00361E  0E00               	movlw	0
  2948  003620  6FF9               	movwf	249,b	;volatile
  2949  003622  0E0B               	movlw	11
  2950  003624  6FFA               	movwf	250,b	;volatile
  2951  003626  0E00               	movlw	0
  2952  003628  6FFB               	movwf	251,b	;volatile
  2953                           
  2954                           ;mcc_generated_files/dma4.c: 66:     DMAnDSA = &SPI1TXB;
  2955  00362A  0E00               	movlw	0
  2956  00362C  6FF1               	movwf	241,b	;volatile
  2957  00362E  0E81               	movlw	129
  2958  003630  6FF0               	movwf	240,b	;volatile
  2959                           
  2960                           ;mcc_generated_files/dma4.c: 68:     DMAnCON1 = 0x03;
  2961  003632  0E03               	movlw	3
  2962  003634  6FFD               	movwf	253,b	;volatile
  2963                           
  2964                           ;mcc_generated_files/dma4.c: 70:     DMAnSSZ = 256;
  2965  003636  0E01               	movlw	1
  2966  003638  6FF8               	movwf	248,b	;volatile
  2967  00363A  0E00               	movlw	0
  2968  00363C  6FF7               	movwf	247,b	;volatile
  2969                           
  2970                           ;mcc_generated_files/dma4.c: 72:     DMAnDSZ = 1;
  2971  00363E  0E00               	movlw	0
  2972  003640  6FEF               	movwf	239,b	;volatile
  2973  003642  0E01               	movlw	1
  2974  003644  6FEE               	movwf	238,b	;volatile
  2975                           
  2976                           ;mcc_generated_files/dma4.c: 74:     DMAnSIRQ = 0x19;
  2977  003646  0E19               	movlw	25
  2978  003648  6FFF               	movwf	255,b	;volatile
  2979                           
  2980                           ;mcc_generated_files/dma4.c: 76:     DMAnAIRQ = 0x00;
  2981  00364A  0E00               	movlw	0
  2982  00364C  6FFE               	movwf	254,b	;volatile
  2983  00364E                     
  2984                           ; BSR set to: 0
  2985                           ;mcc_generated_files/dma4.c: 79:     PIR11bits.DMA4DCNTIF = 0;
  2986  00364E  9AB9               	bcf	185,5,c	;volatile
  2987  003650                     
  2988                           ; BSR set to: 0
  2989                           ;mcc_generated_files/dma4.c: 81:     PIR11bits.DMA4SCNTIF = 0;
  2990  003650  98B9               	bcf	185,4,c	;volatile
  2991  003652                     
  2992                           ; BSR set to: 0
  2993                           ;mcc_generated_files/dma4.c: 83:     PIR11bits.DMA4AIF = 0;
  2994  003652  9EB9               	bcf	185,7,c	;volatile
  2995  003654                     
  2996                           ; BSR set to: 0
  2997                           ;mcc_generated_files/dma4.c: 85:     PIR11bits.DMA4ORIF =0;
  2998  003654  9CB9               	bcf	185,6,c	;volatile
  2999  003656                     
  3000                           ; BSR set to: 0
  3001                           ;mcc_generated_files/dma4.c: 87:     PIE11bits.DMA4DCNTIE = 0;
  3002  003656  9AA9               	bcf	169,5,c	;volatile
  3003  003658                     
  3004                           ; BSR set to: 0
  3005                           ;mcc_generated_files/dma4.c: 88:     PIE11bits.DMA4SCNTIE = 0;
  3006  003658  98A9               	bcf	169,4,c	;volatile
  3007  00365A                     
  3008                           ; BSR set to: 0
  3009                           ;mcc_generated_files/dma4.c: 89:     PIE11bits.DMA4AIE = 0;
  3010  00365A  9EA9               	bcf	169,7,c	;volatile
  3011  00365C                     
  3012                           ; BSR set to: 0
  3013                           ;mcc_generated_files/dma4.c: 90:     PIE11bits.DMA4ORIE = 0;
  3014  00365C  9CA9               	bcf	169,6,c	;volatile
  3015                           
  3016                           ;mcc_generated_files/dma4.c: 93:     DMAnCON0 = 0x80;
  3017  00365E  0E80               	movlw	128
  3018  003660  6FFC               	movwf	252,b	;volatile
  3019  003662                     
  3020                           ; BSR set to: 0
  3021  003662  0012               	return		;funcret
  3022  003664                     __end_of_DMA4_Initialize:
  3023                           	callstack 0
  3024                           
  3025 ;; *************** function _DMA3_Initialize *****************
  3026 ;; Defined at:
  3027 ;;		line 59 in file "mcc_generated_files/dma3.c"
  3028 ;; Parameters:    Size  Location     Type
  3029 ;;		None
  3030 ;; Auto vars:     Size  Location     Type
  3031 ;;		None
  3032 ;; Return value:  Size  Location     Type
  3033 ;;                  1    wreg      void 
  3034 ;; Registers used:
  3035 ;;		wreg, status,2
  3036 ;; Tracked objects:
  3037 ;;		On entry : 0/0
  3038 ;;		On exit  : 0/0
  3039 ;;		Unchanged: 0/0
  3040 ;; Data sizes:     COMRAM   BANK5   BANK6   BANK7   BANK8   BANK9  BANK10  BANK11  BANK12  BANK13  BANK14  BANK15  BANK1
      +6  BANK17  BANK18  BANK19  BANK20  BANK21  BANK22  BANK23  BANK24  BANK25  BANK26  BANK27  BANK28  BANK29  BANK30  BANK3
      +1  BANK32  BANK33  BANK34  BANK35  BANK36
  3041 ;;      Params:         0       0       0       0       0       0       0       0       0       0       0       0       
      +0       0       0       0       0       0       0       0       0       0       0       0       0       0       0       
      +0       0       0       0       0       0
  3042 ;;      Locals:         0       0       0       0       0       0       0       0       0       0       0       0       
      +0       0       0       0       0       0       0       0       0       0       0       0       0       0       0       
      +0       0       0       0       0       0
  3043 ;;      Temps:          0       0       0       0       0       0       0       0       0       0       0       0       
      +0       0       0       0       0       0       0       0       0       0       0       0       0       0       0       
      +0       0       0       0       0       0
  3044 ;;      Totals:         0       0       0       0       0       0       0       0       0       0       0       0       
      +0       0       0       0       0       0       0       0       0       0       0       0       0       0       0       
      +0       0       0       0       0       0
  3045 ;;Total ram usage:        0 bytes
  3046 ;; Hardware stack levels used:    1
  3047 ;; Hardware stack levels required when called:    3
  3048 ;; This function calls:
  3049 ;;		Nothing
  3050 ;; This function is called by:
  3051 ;;		_SYSTEM_Initialize
  3052 ;; This function uses a non-reentrant model
  3053 ;;
  3054                           
  3055                           	psect	text24
  3056  003664                     __ptext24:
  3057                           	callstack 0
  3058  003664                     _DMA3_Initialize:
  3059                           	callstack 123
  3060  003664                     
  3061                           ;mcc_generated_files/dma3.c: 62:     DMASELECT = 0x02;
  3062  003664  0E02               	movlw	2
  3063  003666  0100               	movlb	0	; () banked
  3064  003668  6FE8               	movwf	232,b	;volatile
  3065                           
  3066                           ;mcc_generated_files/dma3.c: 64:     DMAnSSA = &SPI1RXB;
  3067  00366A  0E80               	movlw	128
  3068  00366C  6FF9               	movwf	249,b	;volatile
  3069  00366E  0E00               	movlw	0
  3070  003670  6FFA               	movwf	250,b	;volatile
  3071  003672  0E00               	movlw	0
  3072  003674  6FFB               	movwf	251,b	;volatile
  3073                           
  3074                           ;mcc_generated_files/dma3.c: 66:     DMAnDSA = &DAC1DATL;
  3075  003676  0E00               	movlw	0
  3076  003678  6FF1               	movwf	241,b	;volatile
  3077  00367A  0E7D               	movlw	125
  3078  00367C  6FF0               	movwf	240,b	;volatile
  3079                           
  3080                           ;mcc_generated_files/dma3.c: 68:     DMAnCON1 = 0x01;
  3081  00367E  0E01               	movlw	1
  3082  003680  6FFD               	movwf	253,b	;volatile
  3083                           
  3084                           ;mcc_generated_files/dma3.c: 70:     DMAnSSZ = 256;
  3085  003682  0E01               	movlw	1
  3086  003684  6FF8               	movwf	248,b	;volatile
  3087  003686  0E00               	movlw	0
  3088  003688  6FF7               	movwf	247,b	;volatile
  3089                           
  3090                           ;mcc_generated_files/dma3.c: 72:     DMAnDSZ = 1;
  3091  00368A  0E00               	movlw	0
  3092  00368C  6FEF               	movwf	239,b	;volatile
  3093  00368E  0E01               	movlw	1
  3094  003690  6FEE               	movwf	238,b	;volatile
  3095                           
  3096                           ;mcc_generated_files/dma3.c: 74:     DMAnSIRQ = 0x1F;
  3097  003692  0E1F               	movlw	31
  3098  003694  6FFF               	movwf	255,b	;volatile
  3099                           
  3100                           ;mcc_generated_files/dma3.c: 76:     DMAnAIRQ = 0x00;
  3101  003696  0E00               	movlw	0
  3102  003698  6FFE               	movwf	254,b	;volatile
  3103  00369A                     
  3104                           ; BSR set to: 0
  3105                           ;mcc_generated_files/dma3.c: 79:     PIR10bits.DMA3DCNTIF = 0;
  3106  00369A  9AB8               	bcf	184,5,c	;volatile
  3107  00369C                     
  3108                           ; BSR set to: 0
  3109                           ;mcc_generated_files/dma3.c: 81:     PIR10bits.DMA3SCNTIF = 0;
  3110  00369C  98B8               	bcf	184,4,c	;volatile
  3111  00369E                     
  3112                           ; BSR set to: 0
  3113                           ;mcc_generated_files/dma3.c: 83:     PIR10bits.DMA3AIF = 0;
  3114  00369E  9EB8               	bcf	184,7,c	;volatile
  3115  0036A0                     
  3116                           ; BSR set to: 0
  3117                           ;mcc_generated_files/dma3.c: 85:     PIR10bits.DMA3ORIF =0;
  3118  0036A0  9CB8               	bcf	184,6,c	;volatile
  3119  0036A2                     
  3120                           ; BSR set to: 0
  3121                           ;mcc_generated_files/dma3.c: 87:     PIE10bits.DMA3DCNTIE = 0;
  3122  0036A2  9AA8               	bcf	168,5,c	;volatile
  3123  0036A4                     
  3124                           ; BSR set to: 0
  3125                           ;mcc_generated_files/dma3.c: 88:     PIE10bits.DMA3SCNTIE = 0;
  3126  0036A4  98A8               	bcf	168,4,c	;volatile
  3127  0036A6                     
  3128                           ; BSR set to: 0
  3129                           ;mcc_generated_files/dma3.c: 89:     PIE10bits.DMA3AIE = 0;
  3130  0036A6  9EA8               	bcf	168,7,c	;volatile
  3131  0036A8                     
  3132                           ; BSR set to: 0
  3133                           ;mcc_generated_files/dma3.c: 90:     PIE10bits.DMA3ORIE = 0;
  3134  0036A8  9CA8               	bcf	168,6,c	;volatile
  3135                           
  3136                           ;mcc_generated_files/dma3.c: 93:     DMAnCON0 = 0xC0;
  3137  0036AA  0EC0               	movlw	192
  3138  0036AC  6FFC               	movwf	252,b	;volatile
  3139  0036AE                     
  3140                           ; BSR set to: 0
  3141  0036AE  0012               	return		;funcret
  3142  0036B0                     __end_of_DMA3_Initialize:
  3143                           	callstack 0
  3144                           
  3145 ;; *************** function _DMA2_Initialize *****************
  3146 ;; Defined at:
  3147 ;;		line 59 in file "mcc_generated_files/dma2.c"
  3148 ;; Parameters:    Size  Location     Type
  3149 ;;		None
  3150 ;; Auto vars:     Size  Location     Type
  3151 ;;		None
  3152 ;; Return value:  Size  Location     Type
  3153 ;;                  1    wreg      void 
  3154 ;; Registers used:
  3155 ;;		wreg, status,2
  3156 ;; Tracked objects:
  3157 ;;		On entry : 0/0
  3158 ;;		On exit  : 0/0
  3159 ;;		Unchanged: 0/0
  3160 ;; Data sizes:     COMRAM   BANK5   BANK6   BANK7   BANK8   BANK9  BANK10  BANK11  BANK12  BANK13  BANK14  BANK15  BANK1
      +6  BANK17  BANK18  BANK19  BANK20  BANK21  BANK22  BANK23  BANK24  BANK25  BANK26  BANK27  BANK28  BANK29  BANK30  BANK3
      +1  BANK32  BANK33  BANK34  BANK35  BANK36
  3161 ;;      Params:         0       0       0       0       0       0       0       0       0       0       0       0       
      +0       0       0       0       0       0       0       0       0       0       0       0       0       0       0       
      +0       0       0       0       0       0
  3162 ;;      Locals:         0       0       0       0       0       0       0       0       0       0       0       0       
      +0       0       0       0       0       0       0       0       0       0       0       0       0       0       0       
      +0       0       0       0       0       0
  3163 ;;      Temps:          0       0       0       0       0       0       0       0       0       0       0       0       
      +0       0       0       0       0       0       0       0       0       0       0       0       0       0       0       
      +0       0       0       0       0       0
  3164 ;;      Totals:         0       0       0       0       0       0       0       0       0       0       0       0       
      +0       0       0       0       0       0       0       0       0       0       0       0       0       0       0       
      +0       0       0       0       0       0
  3165 ;;Total ram usage:        0 bytes
  3166 ;; Hardware stack levels used:    1
  3167 ;; Hardware stack levels required when called:    3
  3168 ;; This function calls:
  3169 ;;		Nothing
  3170 ;; This function is called by:
  3171 ;;		_SYSTEM_Initialize
  3172 ;; This function uses a non-reentrant model
  3173 ;;
  3174                           
  3175                           	psect	text25
  3176  0036B0                     __ptext25:
  3177                           	callstack 0
  3178  0036B0                     _DMA2_Initialize:
  3179                           	callstack 123
  3180  0036B0                     
  3181                           ;mcc_generated_files/dma2.c: 62:     DMASELECT = 0x01;
  3182  0036B0  0E01               	movlw	1
  3183  0036B2  0100               	movlb	0	; () banked
  3184  0036B4  6FE8               	movwf	232,b	;volatile
  3185                           
  3186                           ;mcc_generated_files/dma2.c: 64:     DMAnSSA = &ADRESH;
  3187  0036B6  0EEB               	movlw	235
  3188  0036B8  6FF9               	movwf	249,b	;volatile
  3189  0036BA  0E03               	movlw	3
  3190  0036BC  6FFA               	movwf	250,b	;volatile
  3191  0036BE  0E00               	movlw	0
  3192  0036C0  6FFB               	movwf	251,b	;volatile
  3193                           
  3194                           ;mcc_generated_files/dma2.c: 66:     DMAnDSA= 0x0B00;
  3195  0036C2  0E0B               	movlw	11
  3196  0036C4  6FF1               	movwf	241,b	;volatile
  3197  0036C6  0E00               	movlw	0
  3198  0036C8  6FF0               	movwf	240,b	;volatile
  3199                           
  3200                           ;mcc_generated_files/dma2.c: 68:     DMAnCON1 = 0x40;
  3201  0036CA  0E40               	movlw	64
  3202  0036CC  6FFD               	movwf	253,b	;volatile
  3203                           
  3204                           ;mcc_generated_files/dma2.c: 70:     DMAnSSZ = 1;
  3205  0036CE  0E00               	movlw	0
  3206  0036D0  6FF8               	movwf	248,b	;volatile
  3207  0036D2  0E01               	movlw	1
  3208  0036D4  6FF7               	movwf	247,b	;volatile
  3209                           
  3210                           ;mcc_generated_files/dma2.c: 72:     DMAnDSZ = 512;
  3211  0036D6  0E02               	movlw	2
  3212  0036D8  6FEF               	movwf	239,b	;volatile
  3213  0036DA  0E00               	movlw	0
  3214  0036DC  6FEE               	movwf	238,b	;volatile
  3215                           
  3216                           ;mcc_generated_files/dma2.c: 74:     DMAnSIRQ = 0x0A;
  3217  0036DE  0E0A               	movlw	10
  3218  0036E0  6FFF               	movwf	255,b	;volatile
  3219                           
  3220                           ;mcc_generated_files/dma2.c: 76:     DMAnAIRQ = 0x00;
  3221  0036E2  0E00               	movlw	0
  3222  0036E4  6FFE               	movwf	254,b	;volatile
  3223  0036E6                     
  3224                           ; BSR set to: 0
  3225                           ;mcc_generated_files/dma2.c: 79:     PIR6bits.DMA2DCNTIF = 0;
  3226  0036E6  9AB4               	bcf	180,5,c	;volatile
  3227  0036E8                     
  3228                           ; BSR set to: 0
  3229                           ;mcc_generated_files/dma2.c: 81:     PIR6bits.DMA2SCNTIF = 0;
  3230  0036E8  98B4               	bcf	180,4,c	;volatile
  3231  0036EA                     
  3232                           ; BSR set to: 0
  3233                           ;mcc_generated_files/dma2.c: 83:     PIR6bits.DMA2AIF = 0;
  3234  0036EA  9EB4               	bcf	180,7,c	;volatile
  3235  0036EC                     
  3236                           ; BSR set to: 0
  3237                           ;mcc_generated_files/dma2.c: 85:     PIR6bits.DMA2ORIF =0;
  3238  0036EC  9CB4               	bcf	180,6,c	;volatile
  3239  0036EE                     
  3240                           ; BSR set to: 0
  3241                           ;mcc_generated_files/dma2.c: 87:     PIE6bits.DMA2DCNTIE = 0;
  3242  0036EE  9AA4               	bcf	164,5,c	;volatile
  3243  0036F0                     
  3244                           ; BSR set to: 0
  3245                           ;mcc_generated_files/dma2.c: 88:     PIE6bits.DMA2SCNTIE = 0;
  3246  0036F0  98A4               	bcf	164,4,c	;volatile
  3247  0036F2                     
  3248                           ; BSR set to: 0
  3249                           ;mcc_generated_files/dma2.c: 89:     PIE6bits.DMA2AIE = 0;
  3250  0036F2  9EA4               	bcf	164,7,c	;volatile
  3251  0036F4                     
  3252                           ; BSR set to: 0
  3253                           ;mcc_generated_files/dma2.c: 90:     PIE6bits.DMA2ORIE = 0;
  3254  0036F4  9CA4               	bcf	164,6,c	;volatile
  3255                           
  3256                           ;mcc_generated_files/dma2.c: 93:     DMAnCON0 = 0xC0;
  3257  0036F6  0EC0               	movlw	192
  3258  0036F8  6FFC               	movwf	252,b	;volatile
  3259  0036FA                     
  3260                           ; BSR set to: 0
  3261  0036FA  0012               	return		;funcret
  3262  0036FC                     __end_of_DMA2_Initialize:
  3263                           	callstack 0
  3264                           
  3265 ;; *************** function _DMA1_Initialize *****************
  3266 ;; Defined at:
  3267 ;;		line 59 in file "mcc_generated_files/dma1.c"
  3268 ;; Parameters:    Size  Location     Type
  3269 ;;		None
  3270 ;; Auto vars:     Size  Location     Type
  3271 ;;		None
  3272 ;; Return value:  Size  Location     Type
  3273 ;;                  1    wreg      void 
  3274 ;; Registers used:
  3275 ;;		wreg, status,2
  3276 ;; Tracked objects:
  3277 ;;		On entry : 0/0
  3278 ;;		On exit  : 0/0
  3279 ;;		Unchanged: 0/0
  3280 ;; Data sizes:     COMRAM   BANK5   BANK6   BANK7   BANK8   BANK9  BANK10  BANK11  BANK12  BANK13  BANK14  BANK15  BANK1
      +6  BANK17  BANK18  BANK19  BANK20  BANK21  BANK22  BANK23  BANK24  BANK25  BANK26  BANK27  BANK28  BANK29  BANK30  BANK3
      +1  BANK32  BANK33  BANK34  BANK35  BANK36
  3281 ;;      Params:         0       0       0       0       0       0       0       0       0       0       0       0       
      +0       0       0       0       0       0       0       0       0       0       0       0       0       0       0       
      +0       0       0       0       0       0
  3282 ;;      Locals:         0       0       0       0       0       0       0       0       0       0       0       0       
      +0       0       0       0       0       0       0       0       0       0       0       0       0       0       0       
      +0       0       0       0       0       0
  3283 ;;      Temps:          0       0       0       0       0       0       0       0       0       0       0       0       
      +0       0       0       0       0       0       0       0       0       0       0       0       0       0       0       
      +0       0       0       0       0       0
  3284 ;;      Totals:         0       0       0       0       0       0       0       0       0       0       0       0       
      +0       0       0       0       0       0       0       0       0       0       0       0       0       0       0       
      +0       0       0       0       0       0
  3285 ;;Total ram usage:        0 bytes
  3286 ;; Hardware stack levels used:    1
  3287 ;; Hardware stack levels required when called:    3
  3288 ;; This function calls:
  3289 ;;		Nothing
  3290 ;; This function is called by:
  3291 ;;		_SYSTEM_Initialize
  3292 ;; This function uses a non-reentrant model
  3293 ;;
  3294                           
  3295                           	psect	text26
  3296  0036FC                     __ptext26:
  3297                           	callstack 0
  3298  0036FC                     _DMA1_Initialize:
  3299                           	callstack 123
  3300  0036FC                     
  3301                           ;mcc_generated_files/dma1.c: 62:     DMASELECT = 0x00;
  3302  0036FC  0E00               	movlw	0
  3303  0036FE  0100               	movlb	0	; () banked
  3304  003700  6FE8               	movwf	232,b	;volatile
  3305                           
  3306                           ;mcc_generated_files/dma1.c: 64:     DMAnSSA = &ADRESH;
  3307  003702  0EEB               	movlw	235
  3308  003704  6FF9               	movwf	249,b	;volatile
  3309  003706  0E03               	movlw	3
  3310  003708  6FFA               	movwf	250,b	;volatile
  3311  00370A  0E00               	movlw	0
  3312  00370C  6FFB               	movwf	251,b	;volatile
  3313                           
  3314                           ;mcc_generated_files/dma1.c: 66:     DMAnDSA = &DAC1DATL;
  3315  00370E  0E00               	movlw	0
  3316  003710  6FF1               	movwf	241,b	;volatile
  3317  003712  0E7D               	movlw	125
  3318  003714  6FF0               	movwf	240,b	;volatile
  3319                           
  3320                           ;mcc_generated_files/dma1.c: 68:     DMAnCON1 = 0x00;
  3321  003716  0E00               	movlw	0
  3322  003718  6FFD               	movwf	253,b	;volatile
  3323                           
  3324                           ;mcc_generated_files/dma1.c: 70:     DMAnSSZ = 1;
  3325  00371A  0E00               	movlw	0
  3326  00371C  6FF8               	movwf	248,b	;volatile
  3327  00371E  0E01               	movlw	1
  3328  003720  6FF7               	movwf	247,b	;volatile
  3329                           
  3330                           ;mcc_generated_files/dma1.c: 72:     DMAnDSZ = 1;
  3331  003722  0E00               	movlw	0
  3332  003724  6FEF               	movwf	239,b	;volatile
  3333  003726  0E01               	movlw	1
  3334  003728  6FEE               	movwf	238,b	;volatile
  3335                           
  3336                           ;mcc_generated_files/dma1.c: 74:     DMAnSIRQ = 0x0A;
  3337  00372A  0E0A               	movlw	10
  3338  00372C  6FFF               	movwf	255,b	;volatile
  3339                           
  3340                           ;mcc_generated_files/dma1.c: 76:     DMAnAIRQ = 0x00;
  3341  00372E  0E00               	movlw	0
  3342  003730  6FFE               	movwf	254,b	;volatile
  3343  003732                     
  3344                           ; BSR set to: 0
  3345                           ;mcc_generated_files/dma1.c: 79:     PIR2bits.DMA1DCNTIF = 0;
  3346  003732  9AB0               	bcf	176,5,c	;volatile
  3347  003734                     
  3348                           ; BSR set to: 0
  3349                           ;mcc_generated_files/dma1.c: 81:     PIR2bits.DMA1SCNTIF = 0;
  3350  003734  98B0               	bcf	176,4,c	;volatile
  3351  003736                     
  3352                           ; BSR set to: 0
  3353                           ;mcc_generated_files/dma1.c: 83:     PIR2bits.DMA1AIF = 0;
  3354  003736  9EB0               	bcf	176,7,c	;volatile
  3355  003738                     
  3356                           ; BSR set to: 0
  3357                           ;mcc_generated_files/dma1.c: 85:     PIR2bits.DMA1ORIF =0;
  3358  003738  9CB0               	bcf	176,6,c	;volatile
  3359  00373A                     
  3360                           ; BSR set to: 0
  3361                           ;mcc_generated_files/dma1.c: 87:     PIE2bits.DMA1DCNTIE = 0;
  3362  00373A  9AA0               	bcf	160,5,c	;volatile
  3363  00373C                     
  3364                           ; BSR set to: 0
  3365                           ;mcc_generated_files/dma1.c: 88:     PIE2bits.DMA1SCNTIE = 0;
  3366  00373C  98A0               	bcf	160,4,c	;volatile
  3367  00373E                     
  3368                           ; BSR set to: 0
  3369                           ;mcc_generated_files/dma1.c: 89:     PIE2bits.DMA1AIE = 0;
  3370  00373E  9EA0               	bcf	160,7,c	;volatile
  3371  003740                     
  3372                           ; BSR set to: 0
  3373                           ;mcc_generated_files/dma1.c: 90:     PIE2bits.DMA1ORIE = 0;
  3374  003740  9CA0               	bcf	160,6,c	;volatile
  3375                           
  3376                           ;mcc_generated_files/dma1.c: 93:     DMAnCON0 = 0xC0;
  3377  003742  0EC0               	movlw	192
  3378  003744  6FFC               	movwf	252,b	;volatile
  3379  003746                     
  3380                           ; BSR set to: 0
  3381  003746  0012               	return		;funcret
  3382  003748                     __end_of_DMA1_Initialize:
  3383                           	callstack 0
  3384                           
  3385 ;; *************** function _DAC1_Initialize *****************
  3386 ;; Defined at:
  3387 ;;		line 58 in file "mcc_generated_files/dac1.c"
  3388 ;; Parameters:    Size  Location     Type
  3389 ;;		None
  3390 ;; Auto vars:     Size  Location     Type
  3391 ;;		None
  3392 ;; Return value:  Size  Location     Type
  3393 ;;                  1    wreg      void 
  3394 ;; Registers used:
  3395 ;;		wreg, status,2
  3396 ;; Tracked objects:
  3397 ;;		On entry : 0/0
  3398 ;;		On exit  : 0/0
  3399 ;;		Unchanged: 0/0
  3400 ;; Data sizes:     COMRAM   BANK5   BANK6   BANK7   BANK8   BANK9  BANK10  BANK11  BANK12  BANK13  BANK14  BANK15  BANK1
      +6  BANK17  BANK18  BANK19  BANK20  BANK21  BANK22  BANK23  BANK24  BANK25  BANK26  BANK27  BANK28  BANK29  BANK30  BANK3
      +1  BANK32  BANK33  BANK34  BANK35  BANK36
  3401 ;;      Params:         0       0       0       0       0       0       0       0       0       0       0       0       
      +0       0       0       0       0       0       0       0       0       0       0       0       0       0       0       
      +0       0       0       0       0       0
  3402 ;;      Locals:         0       0       0       0       0       0       0       0       0       0       0       0       
      +0       0       0       0       0       0       0       0       0       0       0       0       0       0       0       
      +0       0       0       0       0       0
  3403 ;;      Temps:          0       0       0       0       0       0       0       0       0       0       0       0       
      +0       0       0       0       0       0       0       0       0       0       0       0       0       0       0       
      +0       0       0       0       0       0
  3404 ;;      Totals:         0       0       0       0       0       0       0       0       0       0       0       0       
      +0       0       0       0       0       0       0       0       0       0       0       0       0       0       0       
      +0       0       0       0       0       0
  3405 ;;Total ram usage:        0 bytes
  3406 ;; Hardware stack levels used:    1
  3407 ;; Hardware stack levels required when called:    3
  3408 ;; This function calls:
  3409 ;;		Nothing
  3410 ;; This function is called by:
  3411 ;;		_SYSTEM_Initialize
  3412 ;; This function uses a non-reentrant model
  3413 ;;
  3414                           
  3415                           	psect	text27
  3416  003DC0                     __ptext27:
  3417                           	callstack 0
  3418  003DC0                     _DAC1_Initialize:
  3419                           	callstack 123
  3420  003DC0                     
  3421                           ;mcc_generated_files/dac1.c: 61:     DAC1CON = 0xA0;
  3422  003DC0  0EA0               	movlw	160
  3423  003DC2  0100               	movlb	0	; () banked
  3424  003DC4  6F7F               	movwf	127,b	;volatile
  3425                           
  3426                           ;mcc_generated_files/dac1.c: 63:     DAC1DATL = 0x33;
  3427  003DC6  0E33               	movlw	51
  3428  003DC8  6F7D               	movwf	125,b	;volatile
  3429  003DCA                     
  3430                           ; BSR set to: 0
  3431  003DCA  0012               	return		;funcret
  3432  003DCC                     __end_of_DAC1_Initialize:
  3433                           	callstack 0
  3434                           
  3435 ;; *************** function _CMP1_Initialize *****************
  3436 ;; Defined at:
  3437 ;;		line 58 in file "mcc_generated_files/cmp1.c"
  3438 ;; Parameters:    Size  Location     Type
  3439 ;;		None
  3440 ;; Auto vars:     Size  Location     Type
  3441 ;;		None
  3442 ;; Return value:  Size  Location     Type
  3443 ;;                  1    wreg      void 
  3444 ;; Registers used:
  3445 ;;		wreg, status,2
  3446 ;; Tracked objects:
  3447 ;;		On entry : 0/0
  3448 ;;		On exit  : 0/0
  3449 ;;		Unchanged: 0/0
  3450 ;; Data sizes:     COMRAM   BANK5   BANK6   BANK7   BANK8   BANK9  BANK10  BANK11  BANK12  BANK13  BANK14  BANK15  BANK1
      +6  BANK17  BANK18  BANK19  BANK20  BANK21  BANK22  BANK23  BANK24  BANK25  BANK26  BANK27  BANK28  BANK29  BANK30  BANK3
      +1  BANK32  BANK33  BANK34  BANK35  BANK36
  3451 ;;      Params:         0       0       0       0       0       0       0       0       0       0       0       0       
      +0       0       0       0       0       0       0       0       0       0       0       0       0       0       0       
      +0       0       0       0       0       0
  3452 ;;      Locals:         0       0       0       0       0       0       0       0       0       0       0       0       
      +0       0       0       0       0       0       0       0       0       0       0       0       0       0       0       
      +0       0       0       0       0       0
  3453 ;;      Temps:          0       0       0       0       0       0       0       0       0       0       0       0       
      +0       0       0       0       0       0       0       0       0       0       0       0       0       0       0       
      +0       0       0       0       0       0
  3454 ;;      Totals:         0       0       0       0       0       0       0       0       0       0       0       0       
      +0       0       0       0       0       0       0       0       0       0       0       0       0       0       0       
      +0       0       0       0       0       0
  3455 ;;Total ram usage:        0 bytes
  3456 ;; Hardware stack levels used:    1
  3457 ;; Hardware stack levels required when called:    3
  3458 ;; This function calls:
  3459 ;;		Nothing
  3460 ;; This function is called by:
  3461 ;;		_SYSTEM_Initialize
  3462 ;; This function uses a non-reentrant model
  3463 ;;
  3464                           
  3465                           	psect	text28
  3466  003CE6                     __ptext28:
  3467                           	callstack 0
  3468  003CE6                     _CMP1_Initialize:
  3469                           	callstack 123
  3470  003CE6                     
  3471                           ;mcc_generated_files/cmp1.c: 62:     CM1CON0 = 0x80;
  3472  003CE6  0E80               	movlw	128
  3473  003CE8  0100               	movlb	0	; () banked
  3474  003CEA  6F70               	movwf	112,b	;volatile
  3475                           
  3476                           ;mcc_generated_files/cmp1.c: 65:     CM1CON1 = 0x00;
  3477  003CEC  0E00               	movlw	0
  3478  003CEE  6F71               	movwf	113,b	;volatile
  3479                           
  3480                           ;mcc_generated_files/cmp1.c: 68:     CM1NCH = 0x03;
  3481  003CF0  0E03               	movlw	3
  3482  003CF2  6F72               	movwf	114,b	;volatile
  3483                           
  3484                           ;mcc_generated_files/cmp1.c: 71:     CM1PCH = 0x05;
  3485  003CF4  0E05               	movlw	5
  3486  003CF6  6F73               	movwf	115,b	;volatile
  3487  003CF8                     
  3488                           ; BSR set to: 0
  3489  003CF8  0012               	return		;funcret
  3490  003CFA                     __end_of_CMP1_Initialize:
  3491                           	callstack 0
  3492                           
  3493 ;; *************** function _CLC2_Initialize *****************
  3494 ;; Defined at:
  3495 ;;		line 62 in file "mcc_generated_files/clc2.c"
  3496 ;; Parameters:    Size  Location     Type
  3497 ;;		None
  3498 ;; Auto vars:     Size  Location     Type
  3499 ;;		None
  3500 ;; Return value:  Size  Location     Type
  3501 ;;                  1    wreg      void 
  3502 ;; Registers used:
  3503 ;;		wreg, status,2
  3504 ;; Tracked objects:
  3505 ;;		On entry : 0/0
  3506 ;;		On exit  : 0/0
  3507 ;;		Unchanged: 0/0
  3508 ;; Data sizes:     COMRAM   BANK5   BANK6   BANK7   BANK8   BANK9  BANK10  BANK11  BANK12  BANK13  BANK14  BANK15  BANK1
      +6  BANK17  BANK18  BANK19  BANK20  BANK21  BANK22  BANK23  BANK24  BANK25  BANK26  BANK27  BANK28  BANK29  BANK30  BANK3
      +1  BANK32  BANK33  BANK34  BANK35  BANK36
  3509 ;;      Params:         0       0       0       0       0       0       0       0       0       0       0       0       
      +0       0       0       0       0       0       0       0       0       0       0       0       0       0       0       
      +0       0       0       0       0       0
  3510 ;;      Locals:         0       0       0       0       0       0       0       0       0       0       0       0       
      +0       0       0       0       0       0       0       0       0       0       0       0       0       0       0       
      +0       0       0       0       0       0
  3511 ;;      Temps:          0       0       0       0       0       0       0       0       0       0       0       0       
      +0       0       0       0       0       0       0       0       0       0       0       0       0       0       0       
      +0       0       0       0       0       0
  3512 ;;      Totals:         0       0       0       0       0       0       0       0       0       0       0       0       
      +0       0       0       0       0       0       0       0       0       0       0       0       0       0       0       
      +0       0       0       0       0       0
  3513 ;;Total ram usage:        0 bytes
  3514 ;; Hardware stack levels used:    1
  3515 ;; Hardware stack levels required when called:    3
  3516 ;; This function calls:
  3517 ;;		Nothing
  3518 ;; This function is called by:
  3519 ;;		_SYSTEM_Initialize
  3520 ;; This function uses a non-reentrant model
  3521 ;;
  3522                           
  3523                           	psect	text29
  3524  00380E                     __ptext29:
  3525                           	callstack 0
  3526  00380E                     _CLC2_Initialize:
  3527                           	callstack 123
  3528  00380E                     
  3529                           ;mcc_generated_files/clc2.c: 67:     CLCSELECT = 0x01;
  3530  00380E  0E01               	movlw	1
  3531  003810  0100               	movlb	0	; () banked
  3532  003812  6FD5               	movwf	213,b	;volatile
  3533                           
  3534                           ;mcc_generated_files/clc2.c: 69:     CLCnPOL = 0x0A;
  3535  003814  0E0A               	movlw	10
  3536  003816  6FD7               	movwf	215,b	;volatile
  3537                           
  3538                           ;mcc_generated_files/clc2.c: 71:     CLCnSEL0 = 0x14;
  3539  003818  0E14               	movlw	20
  3540  00381A  6FD8               	movwf	216,b	;volatile
  3541                           
  3542                           ;mcc_generated_files/clc2.c: 73:     CLCnSEL1 = 0x00;
  3543  00381C  0E00               	movlw	0
  3544  00381E  6FD9               	movwf	217,b	;volatile
  3545                           
  3546                           ;mcc_generated_files/clc2.c: 75:     CLCnSEL2 = 0x00;
  3547  003820  0E00               	movlw	0
  3548  003822  6FDA               	movwf	218,b	;volatile
  3549                           
  3550                           ;mcc_generated_files/clc2.c: 77:     CLCnSEL3 = 0x00;
  3551  003824  0E00               	movlw	0
  3552  003826  6FDB               	movwf	219,b	;volatile
  3553                           
  3554                           ;mcc_generated_files/clc2.c: 79:     CLCnGLS0 = 0x02;
  3555  003828  0E02               	movlw	2
  3556  00382A  6FDC               	movwf	220,b	;volatile
  3557                           
  3558                           ;mcc_generated_files/clc2.c: 81:     CLCnGLS1 = 0x00;
  3559  00382C  0E00               	movlw	0
  3560  00382E  6FDD               	movwf	221,b	;volatile
  3561                           
  3562                           ;mcc_generated_files/clc2.c: 83:     CLCnGLS2 = 0x00;
  3563  003830  0E00               	movlw	0
  3564  003832  6FDE               	movwf	222,b	;volatile
  3565                           
  3566                           ;mcc_generated_files/clc2.c: 85:     CLCnGLS3 = 0x00;
  3567  003834  0E00               	movlw	0
  3568  003836  6FDF               	movwf	223,b	;volatile
  3569                           
  3570                           ;mcc_generated_files/clc2.c: 87:     CLCDATA = 0x00;
  3571  003838  0E00               	movlw	0
  3572  00383A  6FD4               	movwf	212,b	;volatile
  3573                           
  3574                           ;mcc_generated_files/clc2.c: 89:     CLCnCON = 0x9E;
  3575  00383C  0E9E               	movlw	158
  3576  00383E  6FD6               	movwf	214,b	;volatile
  3577  003840                     
  3578                           ; BSR set to: 0
  3579                           ;mcc_generated_files/clc2.c: 92:     PIR6bits.CLC2IF = 0;
  3580  003840  92B4               	bcf	180,1,c	;volatile
  3581  003842                     
  3582                           ; BSR set to: 0
  3583                           ;mcc_generated_files/clc2.c: 94:     PIE6bits.CLC2IE = 1;
  3584  003842  82A4               	bsf	164,1,c	;volatile
  3585  003844                     
  3586                           ; BSR set to: 0
  3587  003844  0012               	return		;funcret
  3588  003846                     __end_of_CLC2_Initialize:
  3589                           	callstack 0
  3590                           
  3591 ;; *************** function _CLC1_Initialize *****************
  3592 ;; Defined at:
  3593 ;;		line 62 in file "mcc_generated_files/clc1.c"
  3594 ;; Parameters:    Size  Location     Type
  3595 ;;		None
  3596 ;; Auto vars:     Size  Location     Type
  3597 ;;		None
  3598 ;; Return value:  Size  Location     Type
  3599 ;;                  1    wreg      void 
  3600 ;; Registers used:
  3601 ;;		wreg, status,2
  3602 ;; Tracked objects:
  3603 ;;		On entry : 0/0
  3604 ;;		On exit  : 0/0
  3605 ;;		Unchanged: 0/0
  3606 ;; Data sizes:     COMRAM   BANK5   BANK6   BANK7   BANK8   BANK9  BANK10  BANK11  BANK12  BANK13  BANK14  BANK15  BANK1
      +6  BANK17  BANK18  BANK19  BANK20  BANK21  BANK22  BANK23  BANK24  BANK25  BANK26  BANK27  BANK28  BANK29  BANK30  BANK3
      +1  BANK32  BANK33  BANK34  BANK35  BANK36
  3607 ;;      Params:         0       0       0       0       0       0       0       0       0       0       0       0       
      +0       0       0       0       0       0       0       0       0       0       0       0       0       0       0       
      +0       0       0       0       0       0
  3608 ;;      Locals:         0       0       0       0       0       0       0       0       0       0       0       0       
      +0       0       0       0       0       0       0       0       0       0       0       0       0       0       0       
      +0       0       0       0       0       0
  3609 ;;      Temps:          0       0       0       0       0       0       0       0       0       0       0       0       
      +0       0       0       0       0       0       0       0       0       0       0       0       0       0       0       
      +0       0       0       0       0       0
  3610 ;;      Totals:         0       0       0       0       0       0       0       0       0       0       0       0       
      +0       0       0       0       0       0       0       0       0       0       0       0       0       0       0       
      +0       0       0       0       0       0
  3611 ;;Total ram usage:        0 bytes
  3612 ;; Hardware stack levels used:    1
  3613 ;; Hardware stack levels required when called:    3
  3614 ;; This function calls:
  3615 ;;		Nothing
  3616 ;; This function is called by:
  3617 ;;		_SYSTEM_Initialize
  3618 ;; This function uses a non-reentrant model
  3619 ;;
  3620                           
  3621                           	psect	text30
  3622  003846                     __ptext30:
  3623                           	callstack 0
  3624  003846                     _CLC1_Initialize:
  3625                           	callstack 123
  3626  003846                     
  3627                           ;mcc_generated_files/clc1.c: 67:     CLCSELECT = 0x00;
  3628  003846  0E00               	movlw	0
  3629  003848  0100               	movlb	0	; () banked
  3630  00384A  6FD5               	movwf	213,b	;volatile
  3631                           
  3632                           ;mcc_generated_files/clc1.c: 69:     CLCnPOL = 0x0A;
  3633  00384C  0E0A               	movlw	10
  3634  00384E  6FD7               	movwf	215,b	;volatile
  3635                           
  3636                           ;mcc_generated_files/clc1.c: 71:     CLCnSEL0 = 0x16;
  3637  003850  0E16               	movlw	22
  3638  003852  6FD8               	movwf	216,b	;volatile
  3639                           
  3640                           ;mcc_generated_files/clc1.c: 73:     CLCnSEL1 = 0x00;
  3641  003854  0E00               	movlw	0
  3642  003856  6FD9               	movwf	217,b	;volatile
  3643                           
  3644                           ;mcc_generated_files/clc1.c: 75:     CLCnSEL2 = 0x00;
  3645  003858  0E00               	movlw	0
  3646  00385A  6FDA               	movwf	218,b	;volatile
  3647                           
  3648                           ;mcc_generated_files/clc1.c: 77:     CLCnSEL3 = 0x00;
  3649  00385C  0E00               	movlw	0
  3650  00385E  6FDB               	movwf	219,b	;volatile
  3651                           
  3652                           ;mcc_generated_files/clc1.c: 79:     CLCnGLS0 = 0x02;
  3653  003860  0E02               	movlw	2
  3654  003862  6FDC               	movwf	220,b	;volatile
  3655                           
  3656                           ;mcc_generated_files/clc1.c: 81:     CLCnGLS1 = 0x00;
  3657  003864  0E00               	movlw	0
  3658  003866  6FDD               	movwf	221,b	;volatile
  3659                           
  3660                           ;mcc_generated_files/clc1.c: 83:     CLCnGLS2 = 0x00;
  3661  003868  0E00               	movlw	0
  3662  00386A  6FDE               	movwf	222,b	;volatile
  3663                           
  3664                           ;mcc_generated_files/clc1.c: 85:     CLCnGLS3 = 0x00;
  3665  00386C  0E00               	movlw	0
  3666  00386E  6FDF               	movwf	223,b	;volatile
  3667                           
  3668                           ;mcc_generated_files/clc1.c: 87:     CLCDATA = 0x00;
  3669  003870  0E00               	movlw	0
  3670  003872  6FD4               	movwf	212,b	;volatile
  3671                           
  3672                           ;mcc_generated_files/clc1.c: 89:     CLCnCON = 0x9E;
  3673  003874  0E9E               	movlw	158
  3674  003876  6FD6               	movwf	214,b	;volatile
  3675  003878                     
  3676                           ; BSR set to: 0
  3677                           ;mcc_generated_files/clc1.c: 92:     PIR0bits.CLC1IF = 0;
  3678  003878  9AAE               	bcf	174,5,c	;volatile
  3679  00387A                     
  3680                           ; BSR set to: 0
  3681                           ;mcc_generated_files/clc1.c: 94:     PIE0bits.CLC1IE = 1;
  3682  00387A  8A9E               	bsf	158,5,c	;volatile
  3683  00387C                     
  3684                           ; BSR set to: 0
  3685  00387C  0012               	return		;funcret
  3686  00387E                     __end_of_CLC1_Initialize:
  3687                           	callstack 0
  3688                           
  3689 ;; *************** function _ADCC_Initialize *****************
  3690 ;; Defined at:
  3691 ;;		line 62 in file "mcc_generated_files/adcc.c"
  3692 ;; Parameters:    Size  Location     Type
  3693 ;;		None
  3694 ;; Auto vars:     Size  Location     Type
  3695 ;;		None
  3696 ;; Return value:  Size  Location     Type
  3697 ;;                  1    wreg      void 
  3698 ;; Registers used:
  3699 ;;		wreg, status,2
  3700 ;; Tracked objects:
  3701 ;;		On entry : 0/0
  3702 ;;		On exit  : 0/0
  3703 ;;		Unchanged: 0/0
  3704 ;; Data sizes:     COMRAM   BANK5   BANK6   BANK7   BANK8   BANK9  BANK10  BANK11  BANK12  BANK13  BANK14  BANK15  BANK1
      +6  BANK17  BANK18  BANK19  BANK20  BANK21  BANK22  BANK23  BANK24  BANK25  BANK26  BANK27  BANK28  BANK29  BANK30  BANK3
      +1  BANK32  BANK33  BANK34  BANK35  BANK36
  3705 ;;      Params:         0       0       0       0       0       0       0       0       0       0       0       0       
      +0       0       0       0       0       0       0       0       0       0       0       0       0       0       0       
      +0       0       0       0       0       0
  3706 ;;      Locals:         0       0       0       0       0       0       0       0       0       0       0       0       
      +0       0       0       0       0       0       0       0       0       0       0       0       0       0       0       
      +0       0       0       0       0       0
  3707 ;;      Temps:          0       0       0       0       0       0       0       0       0       0       0       0       
      +0       0       0       0       0       0       0       0       0       0       0       0       0       0       0       
      +0       0       0       0       0       0
  3708 ;;      Totals:         0       0       0       0       0       0       0       0       0       0       0       0       
      +0       0       0       0       0       0       0       0       0       0       0       0       0       0       0       
      +0       0       0       0       0       0
  3709 ;;Total ram usage:        0 bytes
  3710 ;; Hardware stack levels used:    1
  3711 ;; Hardware stack levels required when called:    3
  3712 ;; This function calls:
  3713 ;;		Nothing
  3714 ;; This function is called by:
  3715 ;;		_SYSTEM_Initialize
  3716 ;; This function uses a non-reentrant model
  3717 ;;
  3718                           
  3719                           	psect	text31
  3720  003428                     __ptext31:
  3721                           	callstack 0
  3722  003428                     _ADCC_Initialize:
  3723                           	callstack 123
  3724  003428                     
  3725                           ;mcc_generated_files/adcc.c: 66:     ADLTHL = 0x00;
  3726  003428  0E00               	movlw	0
  3727  00342A  0103               	movlb	3	; () banked
  3728  00342C  6FD9               	movwf	217,b	;volatile
  3729                           
  3730                           ;mcc_generated_files/adcc.c: 68:     ADLTHH = 0x00;
  3731  00342E  0E00               	movlw	0
  3732  003430  6FDA               	movwf	218,b	;volatile
  3733                           
  3734                           ;mcc_generated_files/adcc.c: 70:     ADUTHL = 0x00;
  3735  003432  0E00               	movlw	0
  3736  003434  6FDB               	movwf	219,b	;volatile
  3737                           
  3738                           ;mcc_generated_files/adcc.c: 72:     ADUTHH = 0x00;
  3739  003436  0E00               	movlw	0
  3740  003438  6FDC               	movwf	220,b	;volatile
  3741                           
  3742                           ;mcc_generated_files/adcc.c: 74:     ADSTPTL = 0x00;
  3743  00343A  0E00               	movlw	0
  3744  00343C  6FDF               	movwf	223,b	;volatile
  3745                           
  3746                           ;mcc_generated_files/adcc.c: 76:     ADSTPTH = 0x00;
  3747  00343E  0E00               	movlw	0
  3748  003440  6FE0               	movwf	224,b	;volatile
  3749                           
  3750                           ;mcc_generated_files/adcc.c: 78:     ADACCU = 0x00;
  3751  003442  0E00               	movlw	0
  3752  003444  6FE5               	movwf	229,b	;volatile
  3753                           
  3754                           ;mcc_generated_files/adcc.c: 80:     ADRPT = 0x00;
  3755  003446  0E00               	movlw	0
  3756  003448  6FE7               	movwf	231,b	;volatile
  3757                           
  3758                           ;mcc_generated_files/adcc.c: 82:     ADPCH = 0x00;
  3759  00344A  0E00               	movlw	0
  3760  00344C  6FEC               	movwf	236,b	;volatile
  3761                           
  3762                           ;mcc_generated_files/adcc.c: 84:     ADACQL = 0x00;
  3763  00344E  0E00               	movlw	0
  3764  003450  6FEE               	movwf	238,b	;volatile
  3765                           
  3766                           ;mcc_generated_files/adcc.c: 86:     ADACQH = 0x00;
  3767  003452  0E00               	movlw	0
  3768  003454  6FEF               	movwf	239,b	;volatile
  3769                           
  3770                           ;mcc_generated_files/adcc.c: 88:     ADCAP = 0x00;
  3771  003456  0E00               	movlw	0
  3772  003458  6FF0               	movwf	240,b	;volatile
  3773                           
  3774                           ;mcc_generated_files/adcc.c: 90:     ADPREL = 0x00;
  3775  00345A  0E00               	movlw	0
  3776  00345C  6FF1               	movwf	241,b	;volatile
  3777                           
  3778                           ;mcc_generated_files/adcc.c: 92:     ADPREH = 0x00;
  3779  00345E  0E00               	movlw	0
  3780  003460  6FF2               	movwf	242,b	;volatile
  3781                           
  3782                           ;mcc_generated_files/adcc.c: 94:     ADCON1 = 0x00;
  3783  003462  0E00               	movlw	0
  3784  003464  6FF4               	movwf	244,b	;volatile
  3785                           
  3786                           ;mcc_generated_files/adcc.c: 96:     ADCON2 = 0x00;
  3787  003466  0E00               	movlw	0
  3788  003468  6FF5               	movwf	245,b	;volatile
  3789                           
  3790                           ;mcc_generated_files/adcc.c: 98:     ADCON3 = 0x00;
  3791  00346A  0E00               	movlw	0
  3792  00346C  6FF6               	movwf	246,b	;volatile
  3793                           
  3794                           ;mcc_generated_files/adcc.c: 100:     ADSTAT = 0x00;
  3795  00346E  0E00               	movlw	0
  3796  003470  6FF7               	movwf	247,b	;volatile
  3797                           
  3798                           ;mcc_generated_files/adcc.c: 102:     ADREF = 0x00;
  3799  003472  0E00               	movlw	0
  3800  003474  6FF8               	movwf	248,b	;volatile
  3801                           
  3802                           ;mcc_generated_files/adcc.c: 104:     ADACT = 0x02;
  3803  003476  0E02               	movlw	2
  3804  003478  6FF9               	movwf	249,b	;volatile
  3805                           
  3806                           ;mcc_generated_files/adcc.c: 106:     ADCLK = 0x00;
  3807  00347A  0E00               	movlw	0
  3808  00347C  6FFA               	movwf	250,b	;volatile
  3809                           
  3810                           ;mcc_generated_files/adcc.c: 108:     ADCON0 = 0x90;
  3811  00347E  0E90               	movlw	144
  3812  003480  6FF3               	movwf	243,b	;volatile
  3813  003482                     
  3814                           ; BSR set to: 3
  3815  003482  0012               	return		;funcret
  3816  003484                     __end_of_ADCC_Initialize:
  3817                           	callstack 0
  3818                           
  3819 ;; *************** function _AUDIO_Record *****************
  3820 ;; Defined at:
  3821 ;;		line 591 in file "main.c"
  3822 ;; Parameters:    Size  Location     Type
  3823 ;;		None
  3824 ;; Auto vars:     Size  Location     Type
  3825 ;;  flashAddr       4   35[COMRAM] unsigned long 
  3826 ;;  maxFlashAddr    4   25[COMRAM] unsigned long 
  3827 ;;  blockStartAd    4   21[COMRAM] unsigned long 
  3828 ;;  i               2   33[COMRAM] unsigned short 
  3829 ;;  numPagesWrit    2   31[COMRAM] unsigned short 
  3830 ;;  bufferRamPtr    2   29[COMRAM] PTR unsigned short 
  3831 ;;		 -> gpr_bufferRam(2), 
  3832 ;;  maxAudioSize    2    0        unsigned short 
  3833 ;; Return value:  Size  Location     Type
  3834 ;;                  1    wreg      void 
  3835 ;; Registers used:
  3836 ;;		wreg, fsr2l, fsr2h, status,2, status,0, cstack
  3837 ;; Tracked objects:
  3838 ;;		On entry : 0/0
  3839 ;;		On exit  : 0/0
  3840 ;;		Unchanged: 0/0
  3841 ;; Data sizes:     COMRAM   BANK5   BANK6   BANK7   BANK8   BANK9  BANK10  BANK11  BANK12  BANK13  BANK14  BANK15  BANK1
      +6  BANK17  BANK18  BANK19  BANK20  BANK21  BANK22  BANK23  BANK24  BANK25  BANK26  BANK27  BANK28  BANK29  BANK30  BANK3
      +1  BANK32  BANK33  BANK34  BANK35  BANK36
  3842 ;;      Params:         0       0       0       0       0       0       0       0       0       0       0       0       
      +0       0       0       0       0       0       0       0       0       0       0       0       0       0       0       
      +0       0       0       0       0       0
  3843 ;;      Locals:        20       0       0       0       0       0       0       0       0       0       0       0       
      +0       0       0       0       0       0       0       0       0       0       0       0       0       0       0       
      +0       0       0       0       0       0
  3844 ;;      Temps:          1       0       0       0       0       0       0       0       0       0       0       0       
      +0       0       0       0       0       0       0       0       0       0       0       0       0       0       0       
      +0       0       0       0       0       0
  3845 ;;      Totals:        21       0       0       0       0       0       0       0       0       0       0       0       
      +0       0       0       0       0       0       0       0       0       0       0       0       0       0       0       
      +0       0       0       0       0       0
  3846 ;;Total ram usage:       21 bytes
  3847 ;; Hardware stack levels used:    1
  3848 ;; Hardware stack levels required when called:    8
  3849 ;; This function calls:
  3850 ;;		_AUDIO_Erase
  3851 ;;		_AUDIO_UpdateMetaData
  3852 ;;		_DMA2_StartTransferWithTrigger
  3853 ;;		_DMA2_StopTransfer
  3854 ;;		_FLASH_WriteWord_ByWord
  3855 ;;		_PingPong2BufferRam
  3856 ;;		_PingPong2SPI
  3857 ;;		_ResetDMA
  3858 ;;		_ResetSwitches
  3859 ;;		_SST26VF064B_Busy
  3860 ;;		_SST26VF064B_CS_High
  3861 ;;		_SST26VF064B_CS_Low
  3862 ;;		_SST26VF064B_PageProgram_Cmd
  3863 ;;		_SST26VF064B_WriteAddress
  3864 ;;		_SST26VF064B_WriteEnable
  3865 ;;		_TMR0_Reload
  3866 ;;		_TMR0_StartTimer
  3867 ;;		_TMR0_StopTimer
  3868 ;;		_UART1_Write
  3869 ;;		_WaitForTick
  3870 ;; This function is called by:
  3871 ;;		_main
  3872 ;; This function uses a non-reentrant model
  3873 ;;
  3874                           
  3875                           	psect	text32
  3876  002508                     __ptext32:
  3877                           	callstack 0
  3878  002508                     _AUDIO_Record:
  3879                           	callstack 119
  3880  002508                     
  3881                           ;main.c: 593:     UART1_Write('R');
  3882  002508  0E52               	movlw	82
  3883  00250A  EC3A  F01E         	call	_UART1_Write
  3884  00250E                     
  3885                           ;main.c: 596:     ResetSwitches();
  3886  00250E  EC07  F01F         	call	_ResetSwitches	;wreg free
  3887  002512                     
  3888                           ;main.c: 599:     AUDIO_Erase();
  3889  002512  EC6C  F017         	call	_AUDIO_Erase	;wreg free
  3890  002516                     
  3891                           ;main.c: 602:     uint32_t flashAddr;;main.c: 603:     uint32_t maxFlashAddr;;main.c: 60
      +                          4:     uint16_t numPagesWritten = 0;
  3892  002516  0E00               	movlw	0
  3893  002518  6E21               	movwf	(AUDIO_Record@numPagesWritten+1)^(0+1280),c
  3894  00251A  0E00               	movlw	0
  3895  00251C  6E20               	movwf	AUDIO_Record@numPagesWritten^(0+1280),c
  3896  00251E                     
  3897                           ;main.c: 605:     uint16_t *bufferRamPtr;;main.c: 606:     uint32_t blockStartAddr;;main
      +                          .c: 607:     uint16_t maxAudioSize;;main.c: 608:     uint16_t i = 0;
  3898  00251E  0E00               	movlw	0
  3899  002520  6E23               	movwf	(AUDIO_Record@i+1)^(0+1280),c
  3900  002522  0E00               	movlw	0
  3901  002524  6E22               	movwf	AUDIO_Record@i^(0+1280),c
  3902  002526                     
  3903                           ;main.c: 610:     if(extMem)
  3904  002526  5042               	movf	_extMem^(0+1280),w,c
  3905  002528  B4D8               	btfsc	status,2,c
  3906  00252A  EF99  F012         	goto	u1611
  3907  00252E  EF9B  F012         	goto	u1610
  3908  002532                     u1611:
  3909  002532  EFB5  F012         	goto	l5311
  3910  002536                     u1610:
  3911  002536                     
  3912                           ;main.c: 611:     {;main.c: 612:         flashAddr = 0x0;
  3913  002536  0E00               	movlw	0
  3914  002538  6E24               	movwf	AUDIO_Record@flashAddr^(0+1280),c
  3915  00253A  0E00               	movlw	0
  3916  00253C  6E25               	movwf	(AUDIO_Record@flashAddr+1)^(0+1280),c
  3917  00253E  0E00               	movlw	0
  3918  002540  6E26               	movwf	(AUDIO_Record@flashAddr+2)^(0+1280),c
  3919  002542  0E00               	movlw	0
  3920  002544  6E27               	movwf	(AUDIO_Record@flashAddr+3)^(0+1280),c
  3921                           
  3922                           ;main.c: 613:         maxFlashAddr = 0x7FFFFF;
  3923  002546  0EFF               	movlw	255
  3924  002548  6E1A               	movwf	AUDIO_Record@maxFlashAddr^(0+1280),c
  3925  00254A  0EFF               	movlw	255
  3926  00254C  6E1B               	movwf	(AUDIO_Record@maxFlashAddr+1)^(0+1280),c
  3927  00254E  0E7F               	movlw	127
  3928  002550  6E1C               	movwf	(AUDIO_Record@maxFlashAddr+2)^(0+1280),c
  3929  002552  0E00               	movlw	0
  3930  002554  6E1D               	movwf	(AUDIO_Record@maxFlashAddr+3)^(0+1280),c
  3931  002556                     
  3932                           ;main.c: 615:         extMemAudio.audioStartAddr = flashAddr;
  3933  002556  C524  F528         	movff	AUDIO_Record@flashAddr,_extMemAudio
  3934  00255A  C525  F529         	movff	AUDIO_Record@flashAddr+1,_extMemAudio+1
  3935  00255E  C526  F52A         	movff	AUDIO_Record@flashAddr+2,_extMemAudio+2
  3936  002562  C527  F52B         	movff	AUDIO_Record@flashAddr+3,_extMemAudio+3
  3937                           
  3938                           ;main.c: 616:     }
  3939  002566  EFCD  F012         	goto	l5315
  3940  00256A                     l5311:
  3941                           
  3942                           ;main.c: 618:     {;main.c: 619:         flashAddr = 0x4000;
  3943  00256A  0E00               	movlw	0
  3944  00256C  6E24               	movwf	AUDIO_Record@flashAddr^(0+1280),c
  3945  00256E  0E40               	movlw	64
  3946  002570  6E25               	movwf	(AUDIO_Record@flashAddr+1)^(0+1280),c
  3947  002572  0E00               	movlw	0
  3948  002574  6E26               	movwf	(AUDIO_Record@flashAddr+2)^(0+1280),c
  3949  002576  0E00               	movlw	0
  3950  002578  6E27               	movwf	(AUDIO_Record@flashAddr+3)^(0+1280),c
  3951                           
  3952                           ;main.c: 620:         maxFlashAddr = 0x01FEFF;
  3953  00257A  0EFF               	movlw	255
  3954  00257C  6E1A               	movwf	AUDIO_Record@maxFlashAddr^(0+1280),c
  3955  00257E  0EFE               	movlw	254
  3956  002580  6E1B               	movwf	(AUDIO_Record@maxFlashAddr+1)^(0+1280),c
  3957  002582  0E01               	movlw	1
  3958  002584  6E1C               	movwf	(AUDIO_Record@maxFlashAddr+2)^(0+1280),c
  3959  002586  0E00               	movlw	0
  3960  002588  6E1D               	movwf	(AUDIO_Record@maxFlashAddr+3)^(0+1280),c
  3961  00258A                     
  3962                           ;main.c: 622:         pfmAudio.audioStartAddr = flashAddr;
  3963  00258A  C524  F52E         	movff	AUDIO_Record@flashAddr,_pfmAudio
  3964  00258E  C525  F52F         	movff	AUDIO_Record@flashAddr+1,_pfmAudio+1
  3965  002592  C526  F530         	movff	AUDIO_Record@flashAddr+2,_pfmAudio+2
  3966  002596  C527  F531         	movff	AUDIO_Record@flashAddr+3,_pfmAudio+3
  3967  00259A                     l5315:
  3968                           
  3969                           ;main.c: 626:     ADCON0bits.ON = 1;
  3970  00259A  0103               	movlb	3	; () banked
  3971  00259C  8FF3               	bsf	243,7,b	;volatile
  3972  00259E                     
  3973                           ; BSR set to: 3
  3974                           ;main.c: 629:     ResetDMA(1);
  3975  00259E  0E01               	movlw	1
  3976  0025A0  EC51  F01D         	call	_ResetDMA
  3977  0025A4                     
  3978                           ;main.c: 630:     ResetDMA(3);
  3979  0025A4  0E03               	movlw	3
  3980  0025A6  EC51  F01D         	call	_ResetDMA
  3981  0025AA                     
  3982                           ;main.c: 631:     ResetDMA(4);
  3983  0025AA  0E04               	movlw	4
  3984  0025AC  EC51  F01D         	call	_ResetDMA
  3985  0025B0                     
  3986                           ;main.c: 634:     DMA2_StartTransferWithTrigger();
  3987  0025B0  ECF8  F01E         	call	_DMA2_StartTransferWithTrigger	;wreg free
  3988  0025B4                     
  3989                           ;main.c: 635:     TMR0_Reload();
  3990  0025B4  ECD9  F01E         	call	_TMR0_Reload	;wreg free
  3991  0025B8                     
  3992                           ;main.c: 636:     TMR0_StartTimer();
  3993  0025B8  EC20  F01F         	call	_TMR0_StartTimer	;wreg free
  3994  0025BC  96C3               	bcf	195,3,c	;volatile
  3995  0025BE  EFB1  F013         	goto	l5397
  3996  0025C2                     l5331:
  3997                           
  3998                           ;main.c: 648:         if(transferToStorage) {
  3999  0025C2  5041               	movf	_transferToStorage^(0+1280),w,c	;volatile
  4000  0025C4  B4D8               	btfsc	status,2,c
  4001  0025C6  EFE7  F012         	goto	u1621
  4002  0025CA  EFE9  F012         	goto	u1620
  4003  0025CE                     u1621:
  4004  0025CE  EFB1  F013         	goto	l5397
  4005  0025D2                     u1620:
  4006  0025D2                     
  4007                           ;main.c: 651:             if(extMem) {
  4008  0025D2  5042               	movf	_extMem^(0+1280),w,c
  4009  0025D4  B4D8               	btfsc	status,2,c
  4010  0025D6  EFEF  F012         	goto	u1631
  4011  0025DA  EFF1  F012         	goto	u1630
  4012  0025DE                     u1631:
  4013  0025DE  EF29  F013         	goto	l5357
  4014  0025E2                     u1630:
  4015  0025E2  82C1               	bsf	193,1,c	;volatile
  4016  0025E4                     l5335:
  4017  0025E4  ECE8  F01D         	call	_SST26VF064B_Busy	;wreg free
  4018  0025E8  0900               	iorlw	0
  4019  0025EA  A4D8               	btfss	status,2,c
  4020  0025EC  EFFA  F012         	goto	u1641
  4021  0025F0  EFFC  F012         	goto	u1640
  4022  0025F4                     u1641:
  4023  0025F4  EFF2  F012         	goto	l5335
  4024  0025F8                     u1640:
  4025  0025F8                     
  4026                           ;main.c: 656:                 SST26VF064B_WriteEnable();
  4027  0025F8  EC92  F01E         	call	_SST26VF064B_WriteEnable	;wreg free
  4028  0025FC                     
  4029                           ;main.c: 657:                 SST26VF064B_CS_Low();
  4030  0025FC  EC3D  F01F         	call	_SST26VF064B_CS_Low	;wreg free
  4031  002600                     
  4032                           ;main.c: 658:                 SST26VF064B_PageProgram_Cmd();
  4033  002600  EC0C  F01F         	call	_SST26VF064B_PageProgram_Cmd	;wreg free
  4034  002604                     
  4035                           ;main.c: 659:                 SST26VF064B_WriteAddress(flashAddr);
  4036  002604  C524  F503         	movff	AUDIO_Record@flashAddr,SST26VF064B_WriteAddress@address
  4037  002608  C525  F504         	movff	AUDIO_Record@flashAddr+1,SST26VF064B_WriteAddress@address+1
  4038  00260C  C526  F505         	movff	AUDIO_Record@flashAddr+2,SST26VF064B_WriteAddress@address+2
  4039  002610  C527  F506         	movff	AUDIO_Record@flashAddr+3,SST26VF064B_WriteAddress@address+3
  4040  002614  ECBA  F01D         	call	_SST26VF064B_WriteAddress	;wreg free
  4041  002618                     
  4042                           ;main.c: 662:                 PingPong2SPI();
  4043  002618  EC12  F018         	call	_PingPong2SPI	;wreg free
  4044                           
  4045                           ;main.c: 665:                 SST26VF064B_CS_High();
  4046  00261C  EC3F  F01F         	call	_SST26VF064B_CS_High	;wreg free
  4047  002620                     l5347:
  4048  002620  ECE8  F01D         	call	_SST26VF064B_Busy	;wreg free
  4049  002624  0900               	iorlw	0
  4050  002626  A4D8               	btfss	status,2,c
  4051  002628  EF18  F013         	goto	u1651
  4052  00262C  EF1A  F013         	goto	u1650
  4053  002630                     u1651:
  4054  002630  EF10  F013         	goto	l5347
  4055  002634                     u1650:
  4056  002634                     
  4057                           ;main.c: 667:                 numPagesWritten++;
  4058  002634  4A20               	infsnz	AUDIO_Record@numPagesWritten^(0+1280),f,c
  4059  002636  2A21               	incf	(AUDIO_Record@numPagesWritten+1)^(0+1280),f,c
  4060  002638                     
  4061                           ;main.c: 668:                 flashAddr += 256;
  4062  002638  0E00               	movlw	0
  4063  00263A  2624               	addwf	AUDIO_Record@flashAddr^(0+1280),f,c
  4064  00263C  0E01               	movlw	1
  4065  00263E  2225               	addwfc	(AUDIO_Record@flashAddr+1)^(0+1280),f,c
  4066  002640  0E00               	movlw	0
  4067  002642  2226               	addwfc	(AUDIO_Record@flashAddr+2)^(0+1280),f,c
  4068  002644  0E00               	movlw	0
  4069  002646  2227               	addwfc	(AUDIO_Record@flashAddr+3)^(0+1280),f,c
  4070  002648                     
  4071                           ;main.c: 669:                 transferToStorage = 0;
  4072  002648  0E00               	movlw	0
  4073  00264A  6E41               	movwf	_transferToStorage^(0+1280),c	;volatile
  4074  00264C  92C1               	bcf	193,1,c	;volatile
  4075  00264E  EFB1  F013         	goto	l5397
  4076  002652                     l5357:
  4077                           
  4078                           ;main.c: 676:                 if(i == 0) {
  4079  002652  5022               	movf	AUDIO_Record@i^(0+1280),w,c
  4080  002654  1023               	iorwf	(AUDIO_Record@i+1)^(0+1280),w,c
  4081  002656  A4D8               	btfss	status,2,c
  4082  002658  EF30  F013         	goto	u1661
  4083  00265C  EF32  F013         	goto	u1660
  4084  002660                     u1661:
  4085  002660  EF5B  F013         	goto	l5365
  4086  002664                     u1660:
  4087  002664                     
  4088                           ;main.c: 678:                     bufferRamPtr = (uint16_t*) & gpr_bufferRam;
  4089  002664  0E00               	movlw	0
  4090  002666  6E1E               	movwf	AUDIO_Record@bufferRamPtr^(0+1280),c
  4091  002668  0E25               	movlw	37
  4092  00266A  6E1F               	movwf	(AUDIO_Record@bufferRamPtr+1)^(0+1280),c
  4093                           
  4094                           ;main.c: 679:                     blockStartAddr = (uint32_t) (flashAddr & ((0x020000 - 
      +                          1) ^ ((128 * 2) - 1)));
  4095  00266C  0E00               	movlw	0
  4096  00266E  1424               	andwf	AUDIO_Record@flashAddr^(0+1280),w,c
  4097  002670  6E16               	movwf	AUDIO_Record@blockStartAddr^(0+1280),c
  4098  002672  0EFF               	movlw	255
  4099  002674  1425               	andwf	(AUDIO_Record@flashAddr+1)^(0+1280),w,c
  4100  002676  6E17               	movwf	(AUDIO_Record@blockStartAddr+1)^(0+1280),c
  4101  002678  0E01               	movlw	1
  4102  00267A  1426               	andwf	(AUDIO_Record@flashAddr+2)^(0+1280),w,c
  4103  00267C  6E18               	movwf	(AUDIO_Record@blockStartAddr+2)^(0+1280),c
  4104  00267E  0E00               	movlw	0
  4105  002680  1427               	andwf	(AUDIO_Record@flashAddr+3)^(0+1280),w,c
  4106  002682  6E19               	movwf	(AUDIO_Record@blockStartAddr+3)^(0+1280),c
  4107                           
  4108                           ;main.c: 682:                     if (flashAddr != blockStartAddr)
  4109  002684  5016               	movf	AUDIO_Record@blockStartAddr^(0+1280),w,c
  4110  002686  1824               	xorwf	AUDIO_Record@flashAddr^(0+1280),w,c
  4111  002688  E10F               	bnz	u1670
  4112  00268A  5017               	movf	(AUDIO_Record@blockStartAddr+1)^(0+1280),w,c
  4113  00268C  1825               	xorwf	(AUDIO_Record@flashAddr+1)^(0+1280),w,c
  4114  00268E  E10C               	bnz	u1670
  4115  002690  5018               	movf	(AUDIO_Record@blockStartAddr+2)^(0+1280),w,c
  4116  002692  1826               	xorwf	(AUDIO_Record@flashAddr+2)^(0+1280),w,c
  4117  002694  E109               	bnz	u1670
  4118  002696  5019               	movf	(AUDIO_Record@blockStartAddr+3)^(0+1280),w,c
  4119  002698  1827               	xorwf	(AUDIO_Record@flashAddr+3)^(0+1280),w,c
  4120  00269A  B4D8               	btfsc	status,2,c
  4121  00269C  EF52  F013         	goto	u1671
  4122  0026A0  EF54  F013         	goto	u1670
  4123  0026A4                     u1671:
  4124  0026A4  EF56  F013         	goto	l2038
  4125  0026A8                     u1670:
  4126  0026A8  EFEC  F013         	goto	l2037
  4127  0026AC                     l2038:
  4128  0026AC  82C1               	bsf	193,1,c	;volatile
  4129  0026AE                     
  4130                           ;main.c: 690:                     WaitForTick();
  4131  0026AE  EC52  F01E         	call	_WaitForTick	;wreg free
  4132                           
  4133                           ;main.c: 693:                     PingPong2BufferRam();
  4134  0026B2  EC05  F01E         	call	_PingPong2BufferRam	;wreg free
  4135  0026B6                     l5365:
  4136                           
  4137                           ;main.c: 697:                 if(i < 128)
  4138  0026B6  5023               	movf	(AUDIO_Record@i+1)^(0+1280),w,c
  4139  0026B8  E107               	bnz	u1681
  4140  0026BA  0E80               	movlw	128
  4141  0026BC  5C22               	subwf	AUDIO_Record@i^(0+1280),w,c
  4142  0026BE  B0D8               	btfsc	status,0,c
  4143  0026C0  EF64  F013         	goto	u1681
  4144  0026C4  EF66  F013         	goto	u1680
  4145  0026C8                     u1681:
  4146  0026C8  EFA8  F013         	goto	l5389
  4147  0026CC                     u1680:
  4148  0026CC                     
  4149                           ;main.c: 698:                 {;main.c: 700:                     NVMDAT = *bufferRamPtr+
      +                          +;
  4150  0026CC  0061  F478  F4D9   	movff	AUDIO_Record@bufferRamPtr,fsr2l
  4151  0026D2  0061  F47C  F4DA   	movff	AUDIO_Record@bufferRamPtr+1,fsr2h
  4152  0026D8  C4DE F046          	movff	postinc2,70	;volatile
  4153  0026DC  C4DD F047          	movff	postdec2,71	;volatile
  4154  0026E0  0E02               	movlw	2
  4155  0026E2  261E               	addwf	AUDIO_Record@bufferRamPtr^(0+1280),f,c
  4156  0026E4  0E00               	movlw	0
  4157  0026E6  221F               	addwfc	(AUDIO_Record@bufferRamPtr+1)^(0+1280),f,c
  4158  0026E8                     
  4159                           ;main.c: 703:                     WaitForTick();
  4160  0026E8  EC52  F01E         	call	_WaitForTick	;wreg free
  4161  0026EC  86C1               	bsf	193,3,c	;volatile
  4162  0026EE                     
  4163                           ;main.c: 708:                     FLASH_WriteWord_ByWord(flashAddr);
  4164  0026EE  C524  F502         	movff	AUDIO_Record@flashAddr,FLASH_WriteWord_ByWord@flashAddr
  4165  0026F2  C525  F503         	movff	AUDIO_Record@flashAddr+1,FLASH_WriteWord_ByWord@flashAddr+1
  4166  0026F6  C526  F504         	movff	AUDIO_Record@flashAddr+2,FLASH_WriteWord_ByWord@flashAddr+2
  4167  0026FA  C527  F505         	movff	AUDIO_Record@flashAddr+3,FLASH_WriteWord_ByWord@flashAddr+3
  4168  0026FE  EC98  F01A         	call	_FLASH_WriteWord_ByWord	;wreg free
  4169  002702                     
  4170                           ;main.c: 711:                     flashAddr+=2;
  4171  002702  0E02               	movlw	2
  4172  002704  2624               	addwf	AUDIO_Record@flashAddr^(0+1280),f,c
  4173  002706  0E00               	movlw	0
  4174  002708  2225               	addwfc	(AUDIO_Record@flashAddr+1)^(0+1280),f,c
  4175  00270A  2226               	addwfc	(AUDIO_Record@flashAddr+2)^(0+1280),f,c
  4176  00270C  2227               	addwfc	(AUDIO_Record@flashAddr+3)^(0+1280),f,c
  4177  00270E                     
  4178                           ;main.c: 712:                     i++;
  4179  00270E  4A22               	infsnz	AUDIO_Record@i^(0+1280),f,c
  4180  002710  2A23               	incf	(AUDIO_Record@i+1)^(0+1280),f,c
  4181  002712  96C1               	bcf	193,3,c	;volatile
  4182  002714                     
  4183                           ;main.c: 716:                     if(NVMCON1bits.WRERR == 1) {
  4184  002714  0100               	movlb	0	; () banked
  4185  002716  AF41               	btfss	65,7,b	;volsfr
  4186  002718  EF90  F013         	goto	u1691
  4187  00271C  EF92  F013         	goto	u1690
  4188  002720                     u1691:
  4189  002720  EFB1  F013         	goto	l5397
  4190  002724                     u1690:
  4191  002724                     
  4192                           ; BSR set to: 0
  4193                           ;main.c: 718:                         NVMCON1bits.WRERR = 0;
  4194  002724  9F41               	bcf	65,7,b	;volsfr
  4195  002726                     
  4196                           ; BSR set to: 0
  4197  002726  B6C1               	btfsc	193,3,c	;volatile
  4198  002728  EF98  F013         	goto	u1701
  4199  00272C  EF9B  F013         	goto	u1700
  4200  002730                     u1701:
  4201  002730  0E01               	movlw	1
  4202  002732  EF9C  F013         	goto	u1706
  4203  002736                     u1700:
  4204  002736  0E00               	movlw	0
  4205  002738                     u1706:
  4206  002738  0AFF               	xorlw	255
  4207  00273A  6E13               	movwf	??_AUDIO_Record^(0+1280),c
  4208  00273C  4613               	rlncf	??_AUDIO_Record^(0+1280),f,c
  4209  00273E  4613               	rlncf	??_AUDIO_Record^(0+1280),f,c
  4210  002740  4613               	rlncf	??_AUDIO_Record^(0+1280),f,c
  4211  002742  50C1               	movf	193,w,c	;volatile
  4212  002744  1813               	xorwf	??_AUDIO_Record^(0+1280),w,c
  4213  002746  0BF7               	andlw	-9
  4214  002748  1813               	xorwf	??_AUDIO_Record^(0+1280),w,c
  4215  00274A  6EC1               	movwf	193,c	;volatile
  4216  00274C  EFB1  F013         	goto	l5397
  4217  002750                     l5389:
  4218                           
  4219                           ;main.c: 727:                     numPagesWritten++;
  4220  002750  4A20               	infsnz	AUDIO_Record@numPagesWritten^(0+1280),f,c
  4221  002752  2A21               	incf	(AUDIO_Record@numPagesWritten+1)^(0+1280),f,c
  4222  002754                     
  4223                           ;main.c: 730:                     i = 0;
  4224  002754  0E00               	movlw	0
  4225  002756  6E23               	movwf	(AUDIO_Record@i+1)^(0+1280),c
  4226  002758  0E00               	movlw	0
  4227  00275A  6E22               	movwf	AUDIO_Record@i^(0+1280),c
  4228  00275C                     
  4229                           ;main.c: 733:                     transferToStorage = 0;
  4230  00275C  0E00               	movlw	0
  4231  00275E  6E41               	movwf	_transferToStorage^(0+1280),c	;volatile
  4232  002760  92C1               	bcf	193,1,c	;volatile
  4233  002762                     l5397:
  4234                           
  4235                           ;main.c: 643:     while(!sw0_pressed && (flashAddr < maxFlashAddr)){
  4236  002762  5046               	movf	_sw0_pressed^(0+1280),w,c
  4237  002764  A4D8               	btfss	status,2,c
  4238  002766  EFB7  F013         	goto	u1711
  4239  00276A  EFB9  F013         	goto	u1710
  4240  00276E                     u1711:
  4241  00276E  EFC8  F013         	goto	l5401
  4242  002772                     u1710:
  4243  002772  501A               	movf	AUDIO_Record@maxFlashAddr^(0+1280),w,c
  4244  002774  5C24               	subwf	AUDIO_Record@flashAddr^(0+1280),w,c
  4245  002776  501B               	movf	(AUDIO_Record@maxFlashAddr+1)^(0+1280),w,c
  4246  002778  5825               	subwfb	(AUDIO_Record@flashAddr+1)^(0+1280),w,c
  4247  00277A  501C               	movf	(AUDIO_Record@maxFlashAddr+2)^(0+1280),w,c
  4248  00277C  5826               	subwfb	(AUDIO_Record@flashAddr+2)^(0+1280),w,c
  4249  00277E  501D               	movf	(AUDIO_Record@maxFlashAddr+3)^(0+1280),w,c
  4250  002780  5827               	subwfb	(AUDIO_Record@flashAddr+3)^(0+1280),w,c
  4251  002782  A0D8               	btfss	status,0,c
  4252  002784  EFC6  F013         	goto	u1721
  4253  002788  EFC8  F013         	goto	u1720
  4254  00278C                     u1721:
  4255  00278C  EFE1  F012         	goto	l5331
  4256  002790                     u1720:
  4257  002790                     l5401:
  4258                           
  4259                           ;main.c: 741:     DMA2_StopTransfer();
  4260  002790  ECE6  F01E         	call	_DMA2_StopTransfer	;wreg free
  4261  002794                     
  4262                           ;main.c: 742:     TMR0_StopTimer();
  4263  002794  EC38  F01F         	call	_TMR0_StopTimer	;wreg free
  4264  002798                     
  4265                           ;main.c: 743:     TMR0_Reload();
  4266  002798  ECD9  F01E         	call	_TMR0_Reload	;wreg free
  4267  00279C  86C3               	bsf	195,3,c	;volatile
  4268  00279E                     
  4269                           ;main.c: 747:     ADCON0bits.ON = 0;
  4270  00279E  0103               	movlb	3	; () banked
  4271  0027A0  9FF3               	bcf	243,7,b	;volatile
  4272  0027A2                     
  4273                           ; BSR set to: 3
  4274                           ;main.c: 750:     if(extMem)
  4275  0027A2  5042               	movf	_extMem^(0+1280),w,c
  4276  0027A4  B4D8               	btfsc	status,2,c
  4277  0027A6  EFD7  F013         	goto	u1731
  4278  0027AA  EFD9  F013         	goto	u1730
  4279  0027AE                     u1731:
  4280  0027AE  EFDF  F013         	goto	l2056
  4281  0027B2                     u1730:
  4282  0027B2                     
  4283                           ; BSR set to: 3
  4284                           ;main.c: 751:         extMemAudio.audioSize_pages = numPagesWritten;
  4285  0027B2  C520  F52C         	movff	AUDIO_Record@numPagesWritten,_extMemAudio+4
  4286  0027B6  C521  F52D         	movff	AUDIO_Record@numPagesWritten+1,_extMemAudio+5
  4287  0027BA  EFE3  F013         	goto	l5415
  4288  0027BE                     l2056:
  4289                           
  4290                           ; BSR set to: 3
  4291                           ;main.c: 753:         pfmAudio.audioSize_pages = numPagesWritten;
  4292  0027BE  C520  F532         	movff	AUDIO_Record@numPagesWritten,_pfmAudio+4
  4293  0027C2  C521  F533         	movff	AUDIO_Record@numPagesWritten+1,_pfmAudio+5
  4294  0027C6                     l5415:
  4295                           
  4296                           ; BSR set to: 3
  4297                           ;main.c: 755:     AUDIO_UpdateMetaData();
  4298  0027C6  EC01  F017         	call	_AUDIO_UpdateMetaData	;wreg free
  4299                           
  4300                           ;main.c: 758:     ResetSwitches();
  4301  0027CA  EC07  F01F         	call	_ResetSwitches	;wreg free
  4302  0027CE                     
  4303                           ;main.c: 761:     mode = Idle;
  4304  0027CE  0E00               	movlw	0
  4305  0027D0  6E3F               	movwf	_mode^(0+1280),c
  4306  0027D2                     
  4307                           ;main.c: 762:     UART1_Write('x');
  4308  0027D2  0E78               	movlw	120
  4309  0027D4  EC3A  F01E         	call	_UART1_Write
  4310  0027D8                     l2037:
  4311  0027D8  0012               	return		;funcret
  4312  0027DA                     __end_of_AUDIO_Record:
  4313                           	callstack 0
  4314                           
  4315 ;; *************** function _WaitForTick *****************
  4316 ;; Defined at:
  4317 ;;		line 154 in file "main.c"
  4318 ;; Parameters:    Size  Location     Type
  4319 ;;		None
  4320 ;; Auto vars:     Size  Location     Type
  4321 ;;		None
  4322 ;; Return value:  Size  Location     Type
  4323 ;;                  1    wreg      void 
  4324 ;; Registers used:
  4325 ;;		wreg, status,2
  4326 ;; Tracked objects:
  4327 ;;		On entry : 0/0
  4328 ;;		On exit  : 0/0
  4329 ;;		Unchanged: 0/0
  4330 ;; Data sizes:     COMRAM   BANK5   BANK6   BANK7   BANK8   BANK9  BANK10  BANK11  BANK12  BANK13  BANK14  BANK15  BANK1
      +6  BANK17  BANK18  BANK19  BANK20  BANK21  BANK22  BANK23  BANK24  BANK25  BANK26  BANK27  BANK28  BANK29  BANK30  BANK3
      +1  BANK32  BANK33  BANK34  BANK35  BANK36
  4331 ;;      Params:         0       0       0       0       0       0       0       0       0       0       0       0       
      +0       0       0       0       0       0       0       0       0       0       0       0       0       0       0       
      +0       0       0       0       0       0
  4332 ;;      Locals:         0       0       0       0       0       0       0       0       0       0       0       0       
      +0       0       0       0       0       0       0       0       0       0       0       0       0       0       0       
      +0       0       0       0       0       0
  4333 ;;      Temps:          0       0       0       0       0       0       0       0       0       0       0       0       
      +0       0       0       0       0       0       0       0       0       0       0       0       0       0       0       
      +0       0       0       0       0       0
  4334 ;;      Totals:         0       0       0       0       0       0       0       0       0       0       0       0       
      +0       0       0       0       0       0       0       0       0       0       0       0       0       0       0       
      +0       0       0       0       0       0
  4335 ;;Total ram usage:        0 bytes
  4336 ;; Hardware stack levels used:    1
  4337 ;; Hardware stack levels required when called:    3
  4338 ;; This function calls:
  4339 ;;		Nothing
  4340 ;; This function is called by:
  4341 ;;		_AUDIO_Record
  4342 ;;		_FLASH_WritePage_ByWord
  4343 ;; This function uses a non-reentrant model
  4344 ;;
  4345                           
  4346                           	psect	text33
  4347  003CA4                     __ptext33:
  4348                           	callstack 0
  4349  003CA4                     _WaitForTick:
  4350                           	callstack 123
  4351  003CA4                     l3423:
  4352  003CA4  5040               	movf	_tickOccured^(0+1280),w,c	;volatile
  4353  003CA6  B4D8               	btfsc	status,2,c
  4354  003CA8  EF58  F01E         	goto	u181
  4355  003CAC  EF5A  F01E         	goto	u180
  4356  003CB0                     u181:
  4357  003CB0  EF52  F01E         	goto	l3423
  4358  003CB4                     u180:
  4359  003CB4                     
  4360                           ;main.c: 158:     tickOccured = 0;
  4361  003CB4  0E00               	movlw	0
  4362  003CB6  6E40               	movwf	_tickOccured^(0+1280),c	;volatile
  4363  003CB8  0012               	return		;funcret
  4364  003CBA                     __end_of_WaitForTick:
  4365                           	callstack 0
  4366                           
  4367 ;; *************** function _SST26VF064B_PageProgram_Cmd *****************
  4368 ;; Defined at:
  4369 ;;		line 222 in file "SST26VF064B.c"
  4370 ;; Parameters:    Size  Location     Type
  4371 ;;		None
  4372 ;; Auto vars:     Size  Location     Type
  4373 ;;		None
  4374 ;; Return value:  Size  Location     Type
  4375 ;;                  1    wreg      void 
  4376 ;; Registers used:
  4377 ;;		wreg, status,2, cstack
  4378 ;; Tracked objects:
  4379 ;;		On entry : 0/0
  4380 ;;		On exit  : 0/0
  4381 ;;		Unchanged: 0/0
  4382 ;; Data sizes:     COMRAM   BANK5   BANK6   BANK7   BANK8   BANK9  BANK10  BANK11  BANK12  BANK13  BANK14  BANK15  BANK1
      +6  BANK17  BANK18  BANK19  BANK20  BANK21  BANK22  BANK23  BANK24  BANK25  BANK26  BANK27  BANK28  BANK29  BANK30  BANK3
      +1  BANK32  BANK33  BANK34  BANK35  BANK36
  4383 ;;      Params:         0       0       0       0       0       0       0       0       0       0       0       0       
      +0       0       0       0       0       0       0       0       0       0       0       0       0       0       0       
      +0       0       0       0       0       0
  4384 ;;      Locals:         0       0       0       0       0       0       0       0       0       0       0       0       
      +0       0       0       0       0       0       0       0       0       0       0       0       0       0       0       
      +0       0       0       0       0       0
  4385 ;;      Temps:          0       0       0       0       0       0       0       0       0       0       0       0       
      +0       0       0       0       0       0       0       0       0       0       0       0       0       0       0       
      +0       0       0       0       0       0
  4386 ;;      Totals:         0       0       0       0       0       0       0       0       0       0       0       0       
      +0       0       0       0       0       0       0       0       0       0       0       0       0       0       0       
      +0       0       0       0       0       0
  4387 ;;Total ram usage:        0 bytes
  4388 ;; Hardware stack levels used:    1
  4389 ;; Hardware stack levels required when called:    5
  4390 ;; This function calls:
  4391 ;;		_SST26VF064B_Command
  4392 ;; This function is called by:
  4393 ;;		_AUDIO_Record
  4394 ;; This function uses a non-reentrant model
  4395 ;;
  4396                           
  4397                           	psect	text34
  4398  003E18                     __ptext34:
  4399                           	callstack 0
  4400  003E18                     _SST26VF064B_PageProgram_Cmd:
  4401                           	callstack 121
  4402  003E18                     
  4403                           ;SST26VF064B.c: 224:     SST26VF064B_Command( CMD_PP );
  4404  003E18  0E02               	movlw	2
  4405  003E1A  EC02  F01F         	call	_SST26VF064B_Command
  4406  003E1E  0012               	return		;funcret
  4407  003E20                     __end_of_SST26VF064B_PageProgram_Cmd:
  4408                           	callstack 0
  4409                           
  4410 ;; *************** function _PingPong2SPI *****************
  4411 ;; Defined at:
  4412 ;;		line 373 in file "main.c"
  4413 ;; Parameters:    Size  Location     Type
  4414 ;;		None
  4415 ;; Auto vars:     Size  Location     Type
  4416 ;;		None
  4417 ;; Return value:  Size  Location     Type
  4418 ;;                  1    wreg      void 
  4419 ;; Registers used:
  4420 ;;		wreg, status,2
  4421 ;; Tracked objects:
  4422 ;;		On entry : 0/0
  4423 ;;		On exit  : 0/0
  4424 ;;		Unchanged: 0/0
  4425 ;; Data sizes:     COMRAM   BANK5   BANK6   BANK7   BANK8   BANK9  BANK10  BANK11  BANK12  BANK13  BANK14  BANK15  BANK1
      +6  BANK17  BANK18  BANK19  BANK20  BANK21  BANK22  BANK23  BANK24  BANK25  BANK26  BANK27  BANK28  BANK29  BANK30  BANK3
      +1  BANK32  BANK33  BANK34  BANK35  BANK36
  4426 ;;      Params:         0       0       0       0       0       0       0       0       0       0       0       0       
      +0       0       0       0       0       0       0       0       0       0       0       0       0       0       0       
      +0       0       0       0       0       0
  4427 ;;      Locals:         0       0       0       0       0       0       0       0       0       0       0       0       
      +0       0       0       0       0       0       0       0       0       0       0       0       0       0       0       
      +0       0       0       0       0       0
  4428 ;;      Temps:          0       0       0       0       0       0       0       0       0       0       0       0       
      +0       0       0       0       0       0       0       0       0       0       0       0       0       0       0       
      +0       0       0       0       0       0
  4429 ;;      Totals:         0       0       0       0       0       0       0       0       0       0       0       0       
      +0       0       0       0       0       0       0       0       0       0       0       0       0       0       0       
      +0       0       0       0       0       0
  4430 ;;Total ram usage:        0 bytes
  4431 ;; Hardware stack levels used:    1
  4432 ;; Hardware stack levels required when called:    3
  4433 ;; This function calls:
  4434 ;;		Nothing
  4435 ;; This function is called by:
  4436 ;;		_AUDIO_Record
  4437 ;; This function uses a non-reentrant model
  4438 ;;
  4439                           
  4440                           	psect	text35
  4441  003024                     __ptext35:
  4442                           	callstack 0
  4443  003024                     _PingPong2SPI:
  4444                           	callstack 123
  4445  003024  86C1               	bsf	193,3,c	;volatile
  4446  003026                     l1959:
  4447  003026  0100               	movlb	0	; () banked
  4448  003028  BF86               	btfsc	134,7,b	;volatile
  4449  00302A  EF19  F018         	goto	u251
  4450  00302E  EF1B  F018         	goto	u250
  4451  003032                     u251:
  4452  003032  EF13  F018         	goto	l1959
  4453  003036                     u250:
  4454  003036                     
  4455                           ; BSR set to: 0
  4456                           ;main.c: 381:     SPI1CON2bits.RXR = 0;
  4457  003036  9186               	bcf	134,0,b	;volatile
  4458  003038                     
  4459                           ; BSR set to: 0
  4460                           ;main.c: 382:     SPI1TCNT = 256;
  4461  003038  0E01               	movlw	1
  4462  00303A  6F83               	movwf	131,b	;volatile
  4463  00303C  0E00               	movlw	0
  4464  00303E  6F82               	movwf	130,b	;volatile
  4465  003040                     
  4466                           ; BSR set to: 0
  4467                           ;main.c: 385:     PIR11bits.DMA4SCNTIF = 0;
  4468  003040  98B9               	bcf	185,4,c	;volatile
  4469                           
  4470                           ;main.c: 386:     DMASELECT = 3;
  4471  003042  0E03               	movlw	3
  4472  003044  6FE8               	movwf	232,b	;volatile
  4473  003046                     
  4474                           ; BSR set to: 0
  4475                           ;main.c: 387:     DMAnCON0bits.EN = 0;
  4476  003046  9FFC               	bcf	252,7,b	;volatile
  4477                           
  4478                           ;main.c: 388:     if(src == ping) DMAnSSA = &gpr11_ping;
  4479  003048  503E               	movf	PingPong2SPI@src^(0+1280),w,c
  4480  00304A  A4D8               	btfss	status,2,c
  4481  00304C  EF2A  F018         	goto	u261
  4482  003050  EF2C  F018         	goto	u260
  4483  003054                     u261:
  4484  003054  EF34  F018         	goto	l3483
  4485  003058                     u260:
  4486  003058                     
  4487                           ; BSR set to: 0
  4488  003058  0E00               	movlw	0
  4489  00305A  6FF9               	movwf	249,b	;volatile
  4490  00305C  0E0B               	movlw	11
  4491  00305E  6FFA               	movwf	250,b	;volatile
  4492  003060  0E00               	movlw	0
  4493  003062  6FFB               	movwf	251,b	;volatile
  4494  003064  EF3A  F018         	goto	l3485
  4495  003068                     l3483:
  4496                           
  4497                           ; BSR set to: 0
  4498  003068  0E00               	movlw	0
  4499  00306A  6FF9               	movwf	249,b	;volatile
  4500  00306C  0E0C               	movlw	12
  4501  00306E  6FFA               	movwf	250,b	;volatile
  4502  003070  0E00               	movlw	0
  4503  003072  6FFB               	movwf	251,b	;volatile
  4504  003074                     l3485:
  4505                           
  4506                           ; BSR set to: 0
  4507                           ;main.c: 392:     DMAnCON0bits.EN = 1;
  4508  003074  8FFC               	bsf	252,7,b	;volatile
  4509  003076                     
  4510                           ; BSR set to: 0
  4511                           ;main.c: 393:     DMAnCON0bits.SIRQEN = 1;
  4512  003076  8DFC               	bsf	252,6,b	;volatile
  4513  003078                     l1964:
  4514  003078  A8B9               	btfss	185,4,c	;volatile
  4515  00307A  EF41  F018         	goto	u271
  4516  00307E  EF43  F018         	goto	u270
  4517  003082                     u271:
  4518  003082  EF3C  F018         	goto	l1964
  4519  003086                     u270:
  4520  003086                     
  4521                           ;main.c: 395:     PIR11bits.DMA4SCNTIF = 0;
  4522  003086  98B9               	bcf	185,4,c	;volatile
  4523  003088                     l1967:
  4524  003088  0100               	movlb	0	; () banked
  4525  00308A  BF86               	btfsc	134,7,b	;volatile
  4526  00308C  EF4A  F018         	goto	u281
  4527  003090  EF4C  F018         	goto	u280
  4528  003094                     u281:
  4529  003094  EF44  F018         	goto	l1967
  4530  003098                     u280:
  4531  003098                     
  4532                           ; BSR set to: 0
  4533                           ;main.c: 399:     SPI1CON2bits.RXR = 1;
  4534  003098  8186               	bsf	134,0,b	;volatile
  4535  00309A                     
  4536                           ; BSR set to: 0
  4537                           ;main.c: 402:     if(src == ping) src = pong;
  4538  00309A  503E               	movf	PingPong2SPI@src^(0+1280),w,c
  4539  00309C  A4D8               	btfss	status,2,c
  4540  00309E  EF53  F018         	goto	u291
  4541  0030A2  EF55  F018         	goto	u290
  4542  0030A6                     u291:
  4543  0030A6  EF59  F018         	goto	l3493
  4544  0030AA                     u290:
  4545  0030AA                     
  4546                           ; BSR set to: 0
  4547  0030AA  0E01               	movlw	1
  4548  0030AC  6E3E               	movwf	PingPong2SPI@src^(0+1280),c
  4549  0030AE  EF5B  F018         	goto	l3495
  4550  0030B2                     l3493:
  4551                           
  4552                           ; BSR set to: 0
  4553  0030B2  0E00               	movlw	0
  4554  0030B4  6E3E               	movwf	PingPong2SPI@src^(0+1280),c
  4555  0030B6                     l3495:
  4556                           
  4557                           ; BSR set to: 0
  4558  0030B6  96C1               	bcf	193,3,c	;volatile
  4559  0030B8                     
  4560                           ; BSR set to: 0
  4561  0030B8  0012               	return		;funcret
  4562  0030BA                     __end_of_PingPong2SPI:
  4563                           	callstack 0
  4564                           
  4565 ;; *************** function _PingPong2BufferRam *****************
  4566 ;; Defined at:
  4567 ;;		line 358 in file "main.c"
  4568 ;; Parameters:    Size  Location     Type
  4569 ;;		None
  4570 ;; Auto vars:     Size  Location     Type
  4571 ;;		None
  4572 ;; Return value:  Size  Location     Type
  4573 ;;                  1    wreg      void 
  4574 ;; Registers used:
  4575 ;;		wreg, status,2
  4576 ;; Tracked objects:
  4577 ;;		On entry : 0/0
  4578 ;;		On exit  : 0/0
  4579 ;;		Unchanged: 0/0
  4580 ;; Data sizes:     COMRAM   BANK5   BANK6   BANK7   BANK8   BANK9  BANK10  BANK11  BANK12  BANK13  BANK14  BANK15  BANK1
      +6  BANK17  BANK18  BANK19  BANK20  BANK21  BANK22  BANK23  BANK24  BANK25  BANK26  BANK27  BANK28  BANK29  BANK30  BANK3
      +1  BANK32  BANK33  BANK34  BANK35  BANK36
  4581 ;;      Params:         0       0       0       0       0       0       0       0       0       0       0       0       
      +0       0       0       0       0       0       0       0       0       0       0       0       0       0       0       
      +0       0       0       0       0       0
  4582 ;;      Locals:         0       0       0       0       0       0       0       0       0       0       0       0       
      +0       0       0       0       0       0       0       0       0       0       0       0       0       0       0       
      +0       0       0       0       0       0
  4583 ;;      Temps:          0       0       0       0       0       0       0       0       0       0       0       0       
      +0       0       0       0       0       0       0       0       0       0       0       0       0       0       0       
      +0       0       0       0       0       0
  4584 ;;      Totals:         0       0       0       0       0       0       0       0       0       0       0       0       
      +0       0       0       0       0       0       0       0       0       0       0       0       0       0       0       
      +0       0       0       0       0       0
  4585 ;;Total ram usage:        0 bytes
  4586 ;; Hardware stack levels used:    1
  4587 ;; Hardware stack levels required when called:    3
  4588 ;; This function calls:
  4589 ;;		Nothing
  4590 ;; This function is called by:
  4591 ;;		_AUDIO_Record
  4592 ;; This function uses a non-reentrant model
  4593 ;;
  4594                           
  4595                           	psect	text36
  4596  003C0A                     __ptext36:
  4597                           	callstack 0
  4598  003C0A                     _PingPong2BufferRam:
  4599                           	callstack 123
  4600  003C0A  86C1               	bsf	193,3,c	;volatile
  4601  003C0C                     
  4602                           ;main.c: 361:     DMASELECT = 4;
  4603  003C0C  0E04               	movlw	4
  4604  003C0E  0100               	movlb	0	; () banked
  4605  003C10  6FE8               	movwf	232,b	;volatile
  4606  003C12                     
  4607                           ; BSR set to: 0
  4608                           ;main.c: 362:     DMAnCON0bits.DGO = 1;
  4609  003C12  8BFC               	bsf	252,5,b	;volatile
  4610  003C14                     l1947:
  4611                           
  4612                           ; BSR set to: 0
  4613  003C14  BBFC               	btfsc	252,5,b	;volatile
  4614  003C16  EF0F  F01E         	goto	u241
  4615  003C1A  EF11  F01E         	goto	u240
  4616  003C1E                     u241:
  4617  003C1E  EF0A  F01E         	goto	l1947
  4618  003C22                     u240:
  4619  003C22                     
  4620                           ; BSR set to: 0
  4621  003C22  96C1               	bcf	193,3,c	;volatile
  4622  003C24                     
  4623                           ; BSR set to: 0
  4624  003C24  0012               	return		;funcret
  4625  003C26                     __end_of_PingPong2BufferRam:
  4626                           	callstack 0
  4627                           
  4628 ;; *************** function _FLASH_WriteWord_ByWord *****************
  4629 ;; Defined at:
  4630 ;;		line 264 in file "main.c"
  4631 ;; Parameters:    Size  Location     Type
  4632 ;;  flashAddr       4    1[COMRAM] unsigned long 
  4633 ;; Auto vars:     Size  Location     Type
  4634 ;;  GIEBitValue     1    5[COMRAM] unsigned char 
  4635 ;; Return value:  Size  Location     Type
  4636 ;;                  1    wreg      void 
  4637 ;; Registers used:
  4638 ;;		wreg, status,2
  4639 ;; Tracked objects:
  4640 ;;		On entry : 0/0
  4641 ;;		On exit  : 0/0
  4642 ;;		Unchanged: 0/0
  4643 ;; Data sizes:     COMRAM   BANK5   BANK6   BANK7   BANK8   BANK9  BANK10  BANK11  BANK12  BANK13  BANK14  BANK15  BANK1
      +6  BANK17  BANK18  BANK19  BANK20  BANK21  BANK22  BANK23  BANK24  BANK25  BANK26  BANK27  BANK28  BANK29  BANK30  BANK3
      +1  BANK32  BANK33  BANK34  BANK35  BANK36
  4644 ;;      Params:         4       0       0       0       0       0       0       0       0       0       0       0       
      +0       0       0       0       0       0       0       0       0       0       0       0       0       0       0       
      +0       0       0       0       0       0
  4645 ;;      Locals:         1       0       0       0       0       0       0       0       0       0       0       0       
      +0       0       0       0       0       0       0       0       0       0       0       0       0       0       0       
      +0       0       0       0       0       0
  4646 ;;      Temps:          0       0       0       0       0       0       0       0       0       0       0       0       
      +0       0       0       0       0       0       0       0       0       0       0       0       0       0       0       
      +0       0       0       0       0       0
  4647 ;;      Totals:         5       0       0       0       0       0       0       0       0       0       0       0       
      +0       0       0       0       0       0       0       0       0       0       0       0       0       0       0       
      +0       0       0       0       0       0
  4648 ;;Total ram usage:        5 bytes
  4649 ;; Hardware stack levels used:    1
  4650 ;; Hardware stack levels required when called:    3
  4651 ;; This function calls:
  4652 ;;		Nothing
  4653 ;; This function is called by:
  4654 ;;		_AUDIO_Record
  4655 ;;		_FLASH_WritePage_ByWord
  4656 ;; This function uses a non-reentrant model
  4657 ;;
  4658                           
  4659                           	psect	text37
  4660  003530                     __ptext37:
  4661                           	callstack 0
  4662  003530                     _FLASH_WriteWord_ByWord:
  4663                           	callstack 123
  4664  003530                     
  4665                           ;main.c: 264: void FLASH_WriteWord_ByWord(uint32_t flashAddr);main.c: 265: {;main.c: 266
      +                          :     uint8_t GIEBitValue = INTCON0bits.GIE;
  4666  003530  0E00               	movlw	0
  4667  003532  BED6               	btfsc	214,7,c	;volatile
  4668  003534  0E01               	movlw	1
  4669  003536  6E06               	movwf	FLASH_WriteWord_ByWord@GIEBitValue^(0+1280),c
  4670  003538                     
  4671                           ;main.c: 269:     NVMADRU = (uint8_t) ((flashAddr & 0x00FF0000) >> 16);
  4672  003538  0061  F410  F045   	movff	FLASH_WriteWord_ByWord@flashAddr+2,69	;volatile
  4673  00353E                     
  4674                           ;main.c: 270:     NVMADRH = (uint8_t) ((flashAddr & 0x0000FF00) >> 8);
  4675  00353E  0061  F40C  F044   	movff	FLASH_WriteWord_ByWord@flashAddr+1,68	;volatile
  4676  003544                     
  4677                           ;main.c: 271:     NVMADRL = (uint8_t) (flashAddr & 0x000000FF);
  4678  003544  0061  F408  F043   	movff	FLASH_WriteWord_ByWord@flashAddr,67	;volatile
  4679  00354A                     
  4680                           ;main.c: 274:     NVMCON1bits.NVMCMD = 0b011;
  4681  00354A  0100               	movlb	0	; () banked
  4682  00354C  5141               	movf	65,w,b	;volsfr
  4683  00354E  0BF8               	andlw	-8
  4684  003550  0903               	iorlw	3
  4685  003552  6F41               	movwf	65,b	;volsfr
  4686  003554                     
  4687                           ; BSR set to: 0
  4688                           ;main.c: 277:     INTCON0bits.GIE = 0;
  4689  003554  9ED6               	bcf	214,7,c	;volatile
  4690  003556                     
  4691                           ; BSR set to: 0
  4692                           ;main.c: 280:     NVMLOCK = 0x55;
  4693  003556  0E55               	movlw	85
  4694  003558  6F42               	movwf	66,b	;volatile
  4695  00355A                     
  4696                           ; BSR set to: 0
  4697                           ;main.c: 281:     NVMLOCK = 0xAA;
  4698  00355A  0EAA               	movlw	170
  4699  00355C  6F42               	movwf	66,b	;volatile
  4700  00355E                     
  4701                           ; BSR set to: 0
  4702                           ;main.c: 284:     NVMCON0bits.GO = 1;
  4703  00355E  8140               	bsf	64,0,b	;volatile
  4704  003560                     l1922:
  4705                           
  4706                           ; BSR set to: 0
  4707  003560  B140               	btfsc	64,0,b	;volatile
  4708  003562  EFB5  F01A         	goto	u1401
  4709  003566  EFB7  F01A         	goto	u1400
  4710  00356A                     u1401:
  4711  00356A  EFB0  F01A         	goto	l1922
  4712  00356E                     u1400:
  4713  00356E                     
  4714                           ; BSR set to: 0
  4715                           ;main.c: 288:     INTCON0bits.GIE = GIEBitValue;
  4716  00356E  B006               	btfsc	FLASH_WriteWord_ByWord@GIEBitValue^(0+1280),0,c
  4717  003570  D002               	bra	u1415
  4718  003572  9ED6               	bcf	214,7,c	;volatile
  4719  003574  D001               	bra	u1416
  4720  003576                     u1415:
  4721  003576  8ED6               	bsf	214,7,c	;volatile
  4722  003578                     u1416:
  4723  003578                     
  4724                           ;main.c: 291:     NVMCON1bits.NVMCMD = 0b000;
  4725  003578  0EF8               	movlw	-8
  4726  00357A  0100               	movlb	0	; () banked
  4727  00357C  1741               	andwf	65,f,b	;volsfr
  4728  00357E                     
  4729                           ; BSR set to: 0
  4730  00357E  0012               	return		;funcret
  4731  003580                     __end_of_FLASH_WriteWord_ByWord:
  4732                           	callstack 0
  4733                           
  4734 ;; *************** function _DMA2_StopTransfer *****************
  4735 ;; Defined at:
  4736 ;;		line 163 in file "mcc_generated_files/dma2.c"
  4737 ;; Parameters:    Size  Location     Type
  4738 ;;		None
  4739 ;; Auto vars:     Size  Location     Type
  4740 ;;		None
  4741 ;; Return value:  Size  Location     Type
  4742 ;;                  1    wreg      void 
  4743 ;; Registers used:
  4744 ;;		wreg, status,2
  4745 ;; Tracked objects:
  4746 ;;		On entry : 0/0
  4747 ;;		On exit  : 0/0
  4748 ;;		Unchanged: 0/0
  4749 ;; Data sizes:     COMRAM   BANK5   BANK6   BANK7   BANK8   BANK9  BANK10  BANK11  BANK12  BANK13  BANK14  BANK15  BANK1
      +6  BANK17  BANK18  BANK19  BANK20  BANK21  BANK22  BANK23  BANK24  BANK25  BANK26  BANK27  BANK28  BANK29  BANK30  BANK3
      +1  BANK32  BANK33  BANK34  BANK35  BANK36
  4750 ;;      Params:         0       0       0       0       0       0       0       0       0       0       0       0       
      +0       0       0       0       0       0       0       0       0       0       0       0       0       0       0       
      +0       0       0       0       0       0
  4751 ;;      Locals:         0       0       0       0       0       0       0       0       0       0       0       0       
      +0       0       0       0       0       0       0       0       0       0       0       0       0       0       0       
      +0       0       0       0       0       0
  4752 ;;      Temps:          0       0       0       0       0       0       0       0       0       0       0       0       
      +0       0       0       0       0       0       0       0       0       0       0       0       0       0       0       
      +0       0       0       0       0       0
  4753 ;;      Totals:         0       0       0       0       0       0       0       0       0       0       0       0       
      +0       0       0       0       0       0       0       0       0       0       0       0       0       0       0       
      +0       0       0       0       0       0
  4754 ;;Total ram usage:        0 bytes
  4755 ;; Hardware stack levels used:    1
  4756 ;; Hardware stack levels required when called:    3
  4757 ;; This function calls:
  4758 ;;		Nothing
  4759 ;; This function is called by:
  4760 ;;		_AUDIO_Record
  4761 ;; This function uses a non-reentrant model
  4762 ;;
  4763                           
  4764                           	psect	text38
  4765  003DCC                     __ptext38:
  4766                           	callstack 0
  4767  003DCC                     _DMA2_StopTransfer:
  4768                           	callstack 123
  4769  003DCC                     
  4770                           ;mcc_generated_files/dma2.c: 165:     DMASELECT = 0x01;
  4771  003DCC  0E01               	movlw	1
  4772  003DCE  0100               	movlb	0	; () banked
  4773  003DD0  6FE8               	movwf	232,b	;volatile
  4774  003DD2                     
  4775                           ; BSR set to: 0
  4776                           ;mcc_generated_files/dma2.c: 166:  DMAnCON0bits.SIRQEN = 0;
  4777  003DD2  9DFC               	bcf	252,6,b	;volatile
  4778  003DD4                     
  4779                           ; BSR set to: 0
  4780                           ;mcc_generated_files/dma2.c: 167:  DMAnCON0bits.DGO = 0;
  4781  003DD4  9BFC               	bcf	252,5,b	;volatile
  4782  003DD6                     
  4783                           ; BSR set to: 0
  4784  003DD6  0012               	return		;funcret
  4785  003DD8                     __end_of_DMA2_StopTransfer:
  4786                           	callstack 0
  4787                           
  4788 ;; *************** function _DMA2_StartTransferWithTrigger *****************
  4789 ;; Defined at:
  4790 ;;		line 157 in file "mcc_generated_files/dma2.c"
  4791 ;; Parameters:    Size  Location     Type
  4792 ;;		None
  4793 ;; Auto vars:     Size  Location     Type
  4794 ;;		None
  4795 ;; Return value:  Size  Location     Type
  4796 ;;                  1    wreg      void 
  4797 ;; Registers used:
  4798 ;;		wreg, status,2
  4799 ;; Tracked objects:
  4800 ;;		On entry : 0/0
  4801 ;;		On exit  : 0/0
  4802 ;;		Unchanged: 0/0
  4803 ;; Data sizes:     COMRAM   BANK5   BANK6   BANK7   BANK8   BANK9  BANK10  BANK11  BANK12  BANK13  BANK14  BANK15  BANK1
      +6  BANK17  BANK18  BANK19  BANK20  BANK21  BANK22  BANK23  BANK24  BANK25  BANK26  BANK27  BANK28  BANK29  BANK30  BANK3
      +1  BANK32  BANK33  BANK34  BANK35  BANK36
  4804 ;;      Params:         0       0       0       0       0       0       0       0       0       0       0       0       
      +0       0       0       0       0       0       0       0       0       0       0       0       0       0       0       
      +0       0       0       0       0       0
  4805 ;;      Locals:         0       0       0       0       0       0       0       0       0       0       0       0       
      +0       0       0       0       0       0       0       0       0       0       0       0       0       0       0       
      +0       0       0       0       0       0
  4806 ;;      Temps:          0       0       0       0       0       0       0       0       0       0       0       0       
      +0       0       0       0       0       0       0       0       0       0       0       0       0       0       0       
      +0       0       0       0       0       0
  4807 ;;      Totals:         0       0       0       0       0       0       0       0       0       0       0       0       
      +0       0       0       0       0       0       0       0       0       0       0       0       0       0       0       
      +0       0       0       0       0       0
  4808 ;;Total ram usage:        0 bytes
  4809 ;; Hardware stack levels used:    1
  4810 ;; Hardware stack levels required when called:    3
  4811 ;; This function calls:
  4812 ;;		Nothing
  4813 ;; This function is called by:
  4814 ;;		_AUDIO_Record
  4815 ;; This function uses a non-reentrant model
  4816 ;;
  4817                           
  4818                           	psect	text39
  4819  003DF0                     __ptext39:
  4820                           	callstack 0
  4821  003DF0                     _DMA2_StartTransferWithTrigger:
  4822                           	callstack 123
  4823  003DF0                     
  4824                           ;mcc_generated_files/dma2.c: 159:     DMASELECT = 0x01;
  4825  003DF0  0E01               	movlw	1
  4826  003DF2  0100               	movlb	0	; () banked
  4827  003DF4  6FE8               	movwf	232,b	;volatile
  4828  003DF6                     
  4829                           ; BSR set to: 0
  4830                           ;mcc_generated_files/dma2.c: 160:  DMAnCON0bits.SIRQEN = 1;
  4831  003DF6  8DFC               	bsf	252,6,b	;volatile
  4832  003DF8                     
  4833                           ; BSR set to: 0
  4834  003DF8  0012               	return		;funcret
  4835  003DFA                     __end_of_DMA2_StartTransferWithTrigger:
  4836                           	callstack 0
  4837                           
  4838 ;; *************** function _AUDIO_Erase *****************
  4839 ;; Defined at:
  4840 ;;		line 488 in file "main.c"
  4841 ;; Parameters:    Size  Location     Type
  4842 ;;		None
  4843 ;; Auto vars:     Size  Location     Type
  4844 ;;		None
  4845 ;; Return value:  Size  Location     Type
  4846 ;;                  1    wreg      void 
  4847 ;; Registers used:
  4848 ;;		wreg, status,2, status,0, cstack
  4849 ;; Tracked objects:
  4850 ;;		On entry : 0/0
  4851 ;;		On exit  : 0/0
  4852 ;;		Unchanged: 0/0
  4853 ;; Data sizes:     COMRAM   BANK5   BANK6   BANK7   BANK8   BANK9  BANK10  BANK11  BANK12  BANK13  BANK14  BANK15  BANK1
      +6  BANK17  BANK18  BANK19  BANK20  BANK21  BANK22  BANK23  BANK24  BANK25  BANK26  BANK27  BANK28  BANK29  BANK30  BANK3
      +1  BANK32  BANK33  BANK34  BANK35  BANK36
  4854 ;;      Params:         0       0       0       0       0       0       0       0       0       0       0       0       
      +0       0       0       0       0       0       0       0       0       0       0       0       0       0       0       
      +0       0       0       0       0       0
  4855 ;;      Locals:         0       0       0       0       0       0       0       0       0       0       0       0       
      +0       0       0       0       0       0       0       0       0       0       0       0       0       0       0       
      +0       0       0       0       0       0
  4856 ;;      Temps:          0       0       0       0       0       0       0       0       0       0       0       0       
      +0       0       0       0       0       0       0       0       0       0       0       0       0       0       0       
      +0       0       0       0       0       0
  4857 ;;      Totals:         0       0       0       0       0       0       0       0       0       0       0       0       
      +0       0       0       0       0       0       0       0       0       0       0       0       0       0       0       
      +0       0       0       0       0       0
  4858 ;;Total ram usage:        0 bytes
  4859 ;; Hardware stack levels used:    1
  4860 ;; Hardware stack levels required when called:    7
  4861 ;; This function calls:
  4862 ;;		_AUDIO_UpdateMetaData
  4863 ;;		_FLASH_ErasePages
  4864 ;;		_LED0_Blink_Start
  4865 ;;		_LED0_Blink_Stop
  4866 ;;		_ResetSwitches
  4867 ;;		_SST26VF064B_Busy
  4868 ;;		_SST26VF064B_ChipErase
  4869 ;;		_UART1_Write
  4870 ;; This function is called by:
  4871 ;;		_AUDIO_Record
  4872 ;;		_main
  4873 ;; This function uses a non-reentrant model
  4874 ;;
  4875                           
  4876                           	psect	text40
  4877  002ED8                     __ptext40:
  4878                           	callstack 0
  4879  002ED8                     _AUDIO_Erase:
  4880                           	callstack 119
  4881  002ED8                     
  4882                           ;main.c: 490:     UART1_Write('E');
  4883  002ED8  0E45               	movlw	69
  4884  002EDA  EC3A  F01E         	call	_UART1_Write
  4885  002EDE                     
  4886                           ;main.c: 493:     ResetSwitches();
  4887  002EDE  EC07  F01F         	call	_ResetSwitches	;wreg free
  4888  002EE2                     
  4889                           ;main.c: 496:     LED0_Blink_Start();
  4890  002EE2  EC2C  F01F         	call	_LED0_Blink_Start	;wreg free
  4891  002EE6                     
  4892                           ;main.c: 497:     if(extMem) {
  4893  002EE6  5042               	movf	_extMem^(0+1280),w,c
  4894  002EE8  B4D8               	btfsc	status,2,c
  4895  002EEA  EF79  F017         	goto	u1471
  4896  002EEE  EF7B  F017         	goto	u1470
  4897  002EF2                     u1471:
  4898  002EF2  EF95  F017         	goto	l5177
  4899  002EF6                     u1470:
  4900  002EF6                     
  4901                           ;main.c: 498:         SST26VF064B_ChipErase();
  4902  002EF6  ECF0  F01C         	call	_SST26VF064B_ChipErase	;wreg free
  4903  002EFA                     l5173:
  4904  002EFA  ECE8  F01D         	call	_SST26VF064B_Busy	;wreg free
  4905  002EFE  0900               	iorlw	0
  4906  002F00  A4D8               	btfss	status,2,c
  4907  002F02  EF85  F017         	goto	u1481
  4908  002F06  EF87  F017         	goto	u1480
  4909  002F0A                     u1481:
  4910  002F0A  EF7D  F017         	goto	l5173
  4911  002F0E                     u1480:
  4912  002F0E                     
  4913                           ;main.c: 502:         extMemAudio.audioStartAddr = 0x0;
  4914  002F0E  0E00               	movlw	0
  4915  002F10  6E28               	movwf	_extMemAudio^(0+1280),c
  4916  002F12  0E00               	movlw	0
  4917  002F14  6E29               	movwf	(_extMemAudio+1)^(0+1280),c
  4918  002F16  0E00               	movlw	0
  4919  002F18  6E2A               	movwf	(_extMemAudio+2)^(0+1280),c
  4920  002F1A  0E00               	movlw	0
  4921  002F1C  6E2B               	movwf	(_extMemAudio+3)^(0+1280),c
  4922                           
  4923                           ;main.c: 503:         extMemAudio.audioSize_pages = 0;
  4924  002F1E  0E00               	movlw	0
  4925  002F20  6E2D               	movwf	(_extMemAudio+5)^(0+1280),c
  4926  002F22  0E00               	movlw	0
  4927  002F24  6E2C               	movwf	(_extMemAudio+4)^(0+1280),c
  4928                           
  4929                           ;main.c: 504:     }
  4930  002F26  EFAF  F017         	goto	l5183
  4931  002F2A                     l5177:
  4932                           
  4933                           ;main.c: 506:         FLASH_ErasePages(0x4000, 447);
  4934  002F2A  0E00               	movlw	0
  4935  002F2C  6E0B               	movwf	FLASH_ErasePages@flashAddr^(0+1280),c
  4936  002F2E  0E40               	movlw	64
  4937  002F30  6E0C               	movwf	(FLASH_ErasePages@flashAddr+1)^(0+1280),c
  4938  002F32  0E00               	movlw	0
  4939  002F34  6E0D               	movwf	(FLASH_ErasePages@flashAddr+2)^(0+1280),c
  4940  002F36  0E00               	movlw	0
  4941  002F38  6E0E               	movwf	(FLASH_ErasePages@flashAddr+3)^(0+1280),c
  4942  002F3A  0E01               	movlw	1
  4943  002F3C  6E10               	movwf	(FLASH_ErasePages@numPages+1)^(0+1280),c
  4944  002F3E  0EBF               	movlw	191
  4945  002F40  6E0F               	movwf	FLASH_ErasePages@numPages^(0+1280),c
  4946  002F42  EC1D  F019         	call	_FLASH_ErasePages	;wreg free
  4947  002F46                     
  4948                           ;main.c: 509:         pfmAudio.audioStartAddr = 0x4000;
  4949  002F46  0E00               	movlw	0
  4950  002F48  6E2E               	movwf	_pfmAudio^(0+1280),c
  4951  002F4A  0E40               	movlw	64
  4952  002F4C  6E2F               	movwf	(_pfmAudio+1)^(0+1280),c
  4953  002F4E  0E00               	movlw	0
  4954  002F50  6E30               	movwf	(_pfmAudio+2)^(0+1280),c
  4955  002F52  0E00               	movlw	0
  4956  002F54  6E31               	movwf	(_pfmAudio+3)^(0+1280),c
  4957  002F56                     
  4958                           ;main.c: 510:         pfmAudio.audioSize_pages = 0;
  4959  002F56  0E00               	movlw	0
  4960  002F58  6E33               	movwf	(_pfmAudio+5)^(0+1280),c
  4961  002F5A  0E00               	movlw	0
  4962  002F5C  6E32               	movwf	(_pfmAudio+4)^(0+1280),c
  4963  002F5E                     l5183:
  4964                           
  4965                           ;main.c: 512:     AUDIO_UpdateMetaData();
  4966  002F5E  EC01  F017         	call	_AUDIO_UpdateMetaData	;wreg free
  4967  002F62                     
  4968                           ;main.c: 513:     LED0_Blink_Stop();
  4969  002F62  EC14  F01F         	call	_LED0_Blink_Stop	;wreg free
  4970  002F66                     
  4971                           ;main.c: 515:     UART1_Write('x');
  4972  002F66  0E78               	movlw	120
  4973  002F68  EC3A  F01E         	call	_UART1_Write
  4974  002F6C                     
  4975                           ;main.c: 520:     if(mode == Erase) {
  4976  002F6C  0E03               	movlw	3
  4977  002F6E  183F               	xorwf	_mode^(0+1280),w,c
  4978  002F70  A4D8               	btfss	status,2,c
  4979  002F72  EFBD  F017         	goto	u1491
  4980  002F76  EFBF  F017         	goto	u1490
  4981  002F7A                     u1491:
  4982  002F7A  EFC1  F017         	goto	l1995
  4983  002F7E                     u1490:
  4984  002F7E                     
  4985                           ;main.c: 521:         mode = Idle;
  4986  002F7E  0E00               	movlw	0
  4987  002F80  6E3F               	movwf	_mode^(0+1280),c
  4988  002F82                     l1995:
  4989  002F82  0012               	return		;funcret
  4990  002F84                     __end_of_AUDIO_Erase:
  4991                           	callstack 0
  4992                           
  4993 ;; *************** function _SST26VF064B_ChipErase *****************
  4994 ;; Defined at:
  4995 ;;		line 157 in file "SST26VF064B.c"
  4996 ;; Parameters:    Size  Location     Type
  4997 ;;		None
  4998 ;; Auto vars:     Size  Location     Type
  4999 ;;		None
  5000 ;; Return value:  Size  Location     Type
  5001 ;;                  1    wreg      void 
  5002 ;; Registers used:
  5003 ;;		wreg, status,2, status,0, cstack
  5004 ;; Tracked objects:
  5005 ;;		On entry : 0/0
  5006 ;;		On exit  : 0/0
  5007 ;;		Unchanged: 0/0
  5008 ;; Data sizes:     COMRAM   BANK5   BANK6   BANK7   BANK8   BANK9  BANK10  BANK11  BANK12  BANK13  BANK14  BANK15  BANK1
      +6  BANK17  BANK18  BANK19  BANK20  BANK21  BANK22  BANK23  BANK24  BANK25  BANK26  BANK27  BANK28  BANK29  BANK30  BANK3
      +1  BANK32  BANK33  BANK34  BANK35  BANK36
  5009 ;;      Params:         0       0       0       0       0       0       0       0       0       0       0       0       
      +0       0       0       0       0       0       0       0       0       0       0       0       0       0       0       
      +0       0       0       0       0       0
  5010 ;;      Locals:         0       0       0       0       0       0       0       0       0       0       0       0       
      +0       0       0       0       0       0       0       0       0       0       0       0       0       0       0       
      +0       0       0       0       0       0
  5011 ;;      Temps:          0       0       0       0       0       0       0       0       0       0       0       0       
      +0       0       0       0       0       0       0       0       0       0       0       0       0       0       0       
      +0       0       0       0       0       0
  5012 ;;      Totals:         0       0       0       0       0       0       0       0       0       0       0       0       
      +0       0       0       0       0       0       0       0       0       0       0       0       0       0       0       
      +0       0       0       0       0       0
  5013 ;;Total ram usage:        0 bytes
  5014 ;; Hardware stack levels used:    1
  5015 ;; Hardware stack levels required when called:    6
  5016 ;; This function calls:
  5017 ;;		_SST26VF064B_Busy
  5018 ;;		_SST26VF064B_CS_High
  5019 ;;		_SST26VF064B_CS_Low
  5020 ;;		_SST26VF064B_Command
  5021 ;;		_SST26VF064B_WriteEnable
  5022 ;; This function is called by:
  5023 ;;		_AUDIO_Erase
  5024 ;; This function uses a non-reentrant model
  5025 ;;
  5026                           
  5027                           	psect	text41
  5028  0039E0                     __ptext41:
  5029                           	callstack 0
  5030  0039E0                     _SST26VF064B_ChipErase:
  5031                           	callstack 119
  5032  0039E0                     l3109:
  5033  0039E0  ECE8  F01D         	call	_SST26VF064B_Busy	;wreg free
  5034  0039E4  0900               	iorlw	0
  5035  0039E6  A4D8               	btfss	status,2,c
  5036  0039E8  EFF8  F01C         	goto	u121
  5037  0039EC  EFFA  F01C         	goto	u120
  5038  0039F0                     u121:
  5039  0039F0  EFF0  F01C         	goto	l3109
  5040  0039F4                     u120:
  5041  0039F4                     
  5042                           ;SST26VF064B.c: 161:     SST26VF064B_WriteEnable();
  5043  0039F4  EC92  F01E         	call	_SST26VF064B_WriteEnable	;wreg free
  5044  0039F8                     
  5045                           ;SST26VF064B.c: 162:     SST26VF064B_CS_Low();
  5046  0039F8  EC3D  F01F         	call	_SST26VF064B_CS_Low	;wreg free
  5047  0039FC                     
  5048                           ;SST26VF064B.c: 163:     SST26VF064B_Command( CMD_CE );
  5049  0039FC  0EC7               	movlw	199
  5050  0039FE  EC02  F01F         	call	_SST26VF064B_Command
  5051                           
  5052                           ;SST26VF064B.c: 164:     SST26VF064B_CS_High();
  5053  003A02  EC3F  F01F         	call	_SST26VF064B_CS_High	;wreg free
  5054  003A06  0012               	return		;funcret
  5055  003A08                     __end_of_SST26VF064B_ChipErase:
  5056                           	callstack 0
  5057                           
  5058 ;; *************** function _FLASH_ErasePages *****************
  5059 ;; Defined at:
  5060 ;;		line 340 in file "main.c"
  5061 ;; Parameters:    Size  Location     Type
  5062 ;;  flashAddr       4   10[COMRAM] unsigned long 
  5063 ;;  numPages        2   14[COMRAM] unsigned short 
  5064 ;; Auto vars:     Size  Location     Type
  5065 ;;  i               2   16[COMRAM] unsigned short 
  5066 ;; Return value:  Size  Location     Type
  5067 ;;                  1    wreg      void 
  5068 ;; Registers used:
  5069 ;;		wreg, status,2, status,0, cstack
  5070 ;; Tracked objects:
  5071 ;;		On entry : 0/0
  5072 ;;		On exit  : 0/0
  5073 ;;		Unchanged: 0/0
  5074 ;; Data sizes:     COMRAM   BANK5   BANK6   BANK7   BANK8   BANK9  BANK10  BANK11  BANK12  BANK13  BANK14  BANK15  BANK1
      +6  BANK17  BANK18  BANK19  BANK20  BANK21  BANK22  BANK23  BANK24  BANK25  BANK26  BANK27  BANK28  BANK29  BANK30  BANK3
      +1  BANK32  BANK33  BANK34  BANK35  BANK36
  5075 ;;      Params:         6       0       0       0       0       0       0       0       0       0       0       0       
      +0       0       0       0       0       0       0       0       0       0       0       0       0       0       0       
      +0       0       0       0       0       0
  5076 ;;      Locals:         2       0       0       0       0       0       0       0       0       0       0       0       
      +0       0       0       0       0       0       0       0       0       0       0       0       0       0       0       
      +0       0       0       0       0       0
  5077 ;;      Temps:          0       0       0       0       0       0       0       0       0       0       0       0       
      +0       0       0       0       0       0       0       0       0       0       0       0       0       0       0       
      +0       0       0       0       0       0
  5078 ;;      Totals:         8       0       0       0       0       0       0       0       0       0       0       0       
      +0       0       0       0       0       0       0       0       0       0       0       0       0       0       0       
      +0       0       0       0       0       0
  5079 ;;Total ram usage:        8 bytes
  5080 ;; Hardware stack levels used:    1
  5081 ;; Hardware stack levels required when called:    4
  5082 ;; This function calls:
  5083 ;;		_FLASH_EraseBlock
  5084 ;; This function is called by:
  5085 ;;		_AUDIO_Erase
  5086 ;; This function uses a non-reentrant model
  5087 ;;
  5088                           
  5089                           	psect	text42
  5090  00323A                     __ptext42:
  5091                           	callstack 0
  5092  00323A                     _FLASH_ErasePages:
  5093                           	callstack 121
  5094  00323A                     
  5095                           ;main.c: 340: void FLASH_ErasePages(uint32_t flashAddr, uint16_t numPages);main.c: 341: 
      +                          {;main.c: 342:     if(numPages > 447) {
  5096  00323A  0EC0               	movlw	192
  5097  00323C  5C0F               	subwf	FLASH_ErasePages@numPages^(0+1280),w,c
  5098  00323E  0E01               	movlw	1
  5099  003240  5810               	subwfb	(FLASH_ErasePages@numPages+1)^(0+1280),w,c
  5100  003242  A0D8               	btfss	status,0,c
  5101  003244  EF26  F019         	goto	u1371
  5102  003248  EF28  F019         	goto	u1370
  5103  00324C                     u1371:
  5104  00324C  EF2C  F019         	goto	l1938
  5105  003250                     u1370:
  5106  003250                     
  5107                           ;main.c: 343:         numPages = 447;
  5108  003250  0E01               	movlw	1
  5109  003252  6E10               	movwf	(FLASH_ErasePages@numPages+1)^(0+1280),c
  5110  003254  0EBF               	movlw	191
  5111  003256  6E0F               	movwf	FLASH_ErasePages@numPages^(0+1280),c
  5112  003258                     l1938:
  5113                           
  5114                           ;main.c: 346:     for(uint16_t i = 0; i < numPages; i++) {
  5115  003258  0E00               	movlw	0
  5116  00325A  6E12               	movwf	(FLASH_ErasePages@i+1)^(0+1280),c
  5117  00325C  0E00               	movlw	0
  5118  00325E  6E11               	movwf	FLASH_ErasePages@i^(0+1280),c
  5119  003260  EF46  F019         	goto	l5039
  5120  003264                     l5033:
  5121                           
  5122                           ;main.c: 347:         FLASH_EraseBlock(flashAddr);
  5123  003264  C50B  F502         	movff	FLASH_ErasePages@flashAddr,FLASH_EraseBlock@flashAddr
  5124  003268  C50C  F503         	movff	FLASH_ErasePages@flashAddr+1,FLASH_EraseBlock@flashAddr+1
  5125  00326C  C50D  F504         	movff	FLASH_ErasePages@flashAddr+2,FLASH_EraseBlock@flashAddr+2
  5126  003270  C50E  F505         	movff	FLASH_ErasePages@flashAddr+3,FLASH_EraseBlock@flashAddr+3
  5127  003274  EC83  F019         	call	_FLASH_EraseBlock	;wreg free
  5128  003278                     
  5129                           ;main.c: 348:         flashAddr += 256;
  5130  003278  0E00               	movlw	0
  5131  00327A  260B               	addwf	FLASH_ErasePages@flashAddr^(0+1280),f,c
  5132  00327C  0E01               	movlw	1
  5133  00327E  220C               	addwfc	(FLASH_ErasePages@flashAddr+1)^(0+1280),f,c
  5134  003280  0E00               	movlw	0
  5135  003282  220D               	addwfc	(FLASH_ErasePages@flashAddr+2)^(0+1280),f,c
  5136  003284  0E00               	movlw	0
  5137  003286  220E               	addwfc	(FLASH_ErasePages@flashAddr+3)^(0+1280),f,c
  5138  003288                     
  5139                           ;main.c: 349:     }
  5140  003288  4A11               	infsnz	FLASH_ErasePages@i^(0+1280),f,c
  5141  00328A  2A12               	incf	(FLASH_ErasePages@i+1)^(0+1280),f,c
  5142  00328C                     l5039:
  5143  00328C  500F               	movf	FLASH_ErasePages@numPages^(0+1280),w,c
  5144  00328E  5C11               	subwf	FLASH_ErasePages@i^(0+1280),w,c
  5145  003290  5010               	movf	(FLASH_ErasePages@numPages+1)^(0+1280),w,c
  5146  003292  5812               	subwfb	(FLASH_ErasePages@i+1)^(0+1280),w,c
  5147  003294  A0D8               	btfss	status,0,c
  5148  003296  EF4F  F019         	goto	u1381
  5149  00329A  EF51  F019         	goto	u1380
  5150  00329E                     u1381:
  5151  00329E  EF32  F019         	goto	l5033
  5152  0032A2                     u1380:
  5153  0032A2  0012               	return		;funcret
  5154  0032A4                     __end_of_FLASH_ErasePages:
  5155                           	callstack 0
  5156                           
  5157 ;; *************** function _FLASH_EraseBlock *****************
  5158 ;; Defined at:
  5159 ;;		line 200 in file "mcc_generated_files/memory.c"
  5160 ;; Parameters:    Size  Location     Type
  5161 ;;  flashAddr       4    1[COMRAM] unsigned long 
  5162 ;; Auto vars:     Size  Location     Type
  5163 ;;  blockStartAd    4    6[COMRAM] unsigned long 
  5164 ;;  GIEBitValue     1    5[COMRAM] unsigned char 
  5165 ;; Return value:  Size  Location     Type
  5166 ;;                  1    wreg      void 
  5167 ;; Registers used:
  5168 ;;		wreg, status,2, status,0
  5169 ;; Tracked objects:
  5170 ;;		On entry : 0/0
  5171 ;;		On exit  : 0/0
  5172 ;;		Unchanged: 0/0
  5173 ;; Data sizes:     COMRAM   BANK5   BANK6   BANK7   BANK8   BANK9  BANK10  BANK11  BANK12  BANK13  BANK14  BANK15  BANK1
      +6  BANK17  BANK18  BANK19  BANK20  BANK21  BANK22  BANK23  BANK24  BANK25  BANK26  BANK27  BANK28  BANK29  BANK30  BANK3
      +1  BANK32  BANK33  BANK34  BANK35  BANK36
  5174 ;;      Params:         4       0       0       0       0       0       0       0       0       0       0       0       
      +0       0       0       0       0       0       0       0       0       0       0       0       0       0       0       
      +0       0       0       0       0       0
  5175 ;;      Locals:         5       0       0       0       0       0       0       0       0       0       0       0       
      +0       0       0       0       0       0       0       0       0       0       0       0       0       0       0       
      +0       0       0       0       0       0
  5176 ;;      Temps:          0       0       0       0       0       0       0       0       0       0       0       0       
      +0       0       0       0       0       0       0       0       0       0       0       0       0       0       0       
      +0       0       0       0       0       0
  5177 ;;      Totals:         9       0       0       0       0       0       0       0       0       0       0       0       
      +0       0       0       0       0       0       0       0       0       0       0       0       0       0       0       
      +0       0       0       0       0       0
  5178 ;;Total ram usage:        9 bytes
  5179 ;; Hardware stack levels used:    1
  5180 ;; Hardware stack levels required when called:    3
  5181 ;; This function calls:
  5182 ;;		Nothing
  5183 ;; This function is called by:
  5184 ;;		_FLASH_ErasePages
  5185 ;;		_FLASH_WriteWord
  5186 ;;		_FLASH_WriteBlock
  5187 ;; This function uses a non-reentrant model
  5188 ;;
  5189                           
  5190                           	psect	text43
  5191  003306                     __ptext43:
  5192                           	callstack 0
  5193  003306                     _FLASH_EraseBlock:
  5194                           	callstack 121
  5195  003306                     
  5196                           ;mcc_generated_files/memory.c: 200: void FLASH_EraseBlock(uint32_t flashAddr);mcc_genera
      +                          ted_files/memory.c: 201: {;mcc_generated_files/memory.c: 202:     uint32_t blockStartAdd
      +                          r = (uint32_t) (flashAddr & ((0x020000 - 1) ^ ((128 * 2) - 1)));
  5197  003306  0E00               	movlw	0
  5198  003308  1402               	andwf	FLASH_EraseBlock@flashAddr^(0+1280),w,c
  5199  00330A  6E07               	movwf	FLASH_EraseBlock@blockStartAddr^(0+1280),c
  5200  00330C  0EFF               	movlw	255
  5201  00330E  1403               	andwf	(FLASH_EraseBlock@flashAddr+1)^(0+1280),w,c
  5202  003310  6E08               	movwf	(FLASH_EraseBlock@blockStartAddr+1)^(0+1280),c
  5203  003312  0E01               	movlw	1
  5204  003314  1404               	andwf	(FLASH_EraseBlock@flashAddr+2)^(0+1280),w,c
  5205  003316  6E09               	movwf	(FLASH_EraseBlock@blockStartAddr+2)^(0+1280),c
  5206  003318  0E00               	movlw	0
  5207  00331A  1405               	andwf	(FLASH_EraseBlock@flashAddr+3)^(0+1280),w,c
  5208  00331C  6E0A               	movwf	(FLASH_EraseBlock@blockStartAddr+3)^(0+1280),c
  5209  00331E                     
  5210                           ;mcc_generated_files/memory.c: 203:     uint8_t GIEBitValue = INTCON0bits.GIE;
  5211  00331E  0E00               	movlw	0
  5212  003320  BED6               	btfsc	214,7,c	;volatile
  5213  003322  0E01               	movlw	1
  5214  003324  6E06               	movwf	FLASH_EraseBlock@GIEBitValue^(0+1280),c
  5215  003326                     
  5216                           ;mcc_generated_files/memory.c: 207:     NVMADRU = (uint8_t) ((blockStartAddr & 0x00FF000
      +                          0) >> 16);
  5217  003326  0061  F424  F045   	movff	FLASH_EraseBlock@blockStartAddr+2,69	;volatile
  5218  00332C                     
  5219                           ;mcc_generated_files/memory.c: 208:     NVMADRH = (uint8_t) ((blockStartAddr & 0x0000FF0
      +                          0) >> 8);
  5220  00332C  0061  F420  F044   	movff	FLASH_EraseBlock@blockStartAddr+1,68	;volatile
  5221  003332                     
  5222                           ;mcc_generated_files/memory.c: 211:     NVMCON1bits.NVMCMD = 0b110;
  5223  003332  0100               	movlb	0	; () banked
  5224  003334  5141               	movf	65,w,b	;volsfr
  5225  003336  0BF8               	andlw	-8
  5226  003338  0906               	iorlw	6
  5227  00333A  6F41               	movwf	65,b	;volsfr
  5228  00333C                     
  5229                           ; BSR set to: 0
  5230                           ;mcc_generated_files/memory.c: 214:     INTCON0bits.GIE = 0;
  5231  00333C  9ED6               	bcf	214,7,c	;volatile
  5232  00333E                     
  5233                           ; BSR set to: 0
  5234                           ;mcc_generated_files/memory.c: 217:     NVMLOCK = 0x55;
  5235  00333E  0E55               	movlw	85
  5236  003340  6F42               	movwf	66,b	;volatile
  5237  003342                     
  5238                           ; BSR set to: 0
  5239                           ;mcc_generated_files/memory.c: 218:     NVMLOCK = 0xAA;
  5240  003342  0EAA               	movlw	170
  5241  003344  6F42               	movwf	66,b	;volatile
  5242  003346                     
  5243                           ; BSR set to: 0
  5244                           ;mcc_generated_files/memory.c: 221:     NVMCON0bits.GO = 1;
  5245  003346  8140               	bsf	64,0,b	;volatile
  5246  003348                     l917:
  5247                           
  5248                           ; BSR set to: 0
  5249  003348  B140               	btfsc	64,0,b	;volatile
  5250  00334A  EFA9  F019         	goto	u1311
  5251  00334E  EFAB  F019         	goto	u1310
  5252  003352                     u1311:
  5253  003352  EFA4  F019         	goto	l917
  5254  003356                     u1310:
  5255  003356                     
  5256                           ; BSR set to: 0
  5257                           ;mcc_generated_files/memory.c: 225:     INTCON0bits.GIE = GIEBitValue;
  5258  003356  B006               	btfsc	FLASH_EraseBlock@GIEBitValue^(0+1280),0,c
  5259  003358  D002               	bra	u1325
  5260  00335A  9ED6               	bcf	214,7,c	;volatile
  5261  00335C  D001               	bra	u1326
  5262  00335E                     u1325:
  5263  00335E  8ED6               	bsf	214,7,c	;volatile
  5264  003360                     u1326:
  5265  003360                     
  5266                           ;mcc_generated_files/memory.c: 228:     NVMCON1bits.NVMCMD = 0b000;
  5267  003360  0EF8               	movlw	-8
  5268  003362  0100               	movlb	0	; () banked
  5269  003364  1741               	andwf	65,f,b	;volsfr
  5270  003366                     
  5271                           ; BSR set to: 0
  5272  003366  0012               	return		;funcret
  5273  003368                     __end_of_FLASH_EraseBlock:
  5274                           	callstack 0
  5275                           
  5276 ;; *************** function _AUDIO_UpdateMetaData *****************
  5277 ;; Defined at:
  5278 ;;		line 458 in file "main.c"
  5279 ;; Parameters:    Size  Location     Type
  5280 ;;		None
  5281 ;; Auto vars:     Size  Location     Type
  5282 ;;		None
  5283 ;; Return value:  Size  Location     Type
  5284 ;;                  1    wreg      void 
  5285 ;; Registers used:
  5286 ;;		wreg, status,2, cstack
  5287 ;; Tracked objects:
  5288 ;;		On entry : 0/0
  5289 ;;		On exit  : 0/0
  5290 ;;		Unchanged: 0/0
  5291 ;; Data sizes:     COMRAM   BANK5   BANK6   BANK7   BANK8   BANK9  BANK10  BANK11  BANK12  BANK13  BANK14  BANK15  BANK1
      +6  BANK17  BANK18  BANK19  BANK20  BANK21  BANK22  BANK23  BANK24  BANK25  BANK26  BANK27  BANK28  BANK29  BANK30  BANK3
      +1  BANK32  BANK33  BANK34  BANK35  BANK36
  5292 ;;      Params:         0       0       0       0       0       0       0       0       0       0       0       0       
      +0       0       0       0       0       0       0       0       0       0       0       0       0       0       0       
      +0       0       0       0       0       0
  5293 ;;      Locals:         0       0       0       0       0       0       0       0       0       0       0       0       
      +0       0       0       0       0       0       0       0       0       0       0       0       0       0       0       
      +0       0       0       0       0       0
  5294 ;;      Temps:          0       0       0       0       0       0       0       0       0       0       0       0       
      +0       0       0       0       0       0       0       0       0       0       0       0       0       0       0       
      +0       0       0       0       0       0
  5295 ;;      Totals:         0       0       0       0       0       0       0       0       0       0       0       0       
      +0       0       0       0       0       0       0       0       0       0       0       0       0       0       0       
      +0       0       0       0       0       0
  5296 ;;Total ram usage:        0 bytes
  5297 ;; Hardware stack levels used:    1
  5298 ;; Hardware stack levels required when called:    4
  5299 ;; This function calls:
  5300 ;;		_DATAEE_WriteByte
  5301 ;; This function is called by:
  5302 ;;		_AUDIO_Erase
  5303 ;;		_AUDIO_Record
  5304 ;; This function uses a non-reentrant model
  5305 ;;
  5306                           
  5307                           	psect	text44
  5308  002E02                     __ptext44:
  5309                           	callstack 0
  5310  002E02                     _AUDIO_UpdateMetaData:
  5311                           	callstack 122
  5312  002E02                     
  5313                           ;main.c: 460:     if(extMem)
  5314  002E02  5042               	movf	_extMem^(0+1280),w,c
  5315  002E04  B4D8               	btfsc	status,2,c
  5316  002E06  EF07  F017         	goto	u1391
  5317  002E0A  EF09  F017         	goto	u1390
  5318  002E0E                     u1391:
  5319  002E0E  EF3B  F017         	goto	l5045
  5320  002E12                     u1390:
  5321  002E12                     
  5322                           ;main.c: 461:     {;main.c: 462:         DATAEE_WriteByte(0x0010, extMemAudio.audioStart
      +                          Addr >> 24);
  5323  002E12  0E00               	movlw	0
  5324  002E14  6E03               	movwf	(DATAEE_WriteByte@bAdd+1)^(0+1280),c
  5325  002E16  0E10               	movlw	16
  5326  002E18  6E02               	movwf	DATAEE_WriteByte@bAdd^(0+1280),c
  5327  002E1A  C52B  F504         	movff	_extMemAudio+3,DATAEE_WriteByte@bData
  5328  002E1E  EC6F  F01A         	call	_DATAEE_WriteByte	;wreg free
  5329                           
  5330                           ;main.c: 463:         DATAEE_WriteByte(0x0010 +1, extMemAudio.audioStartAddr >> 16);
  5331  002E22  0E00               	movlw	0
  5332  002E24  6E03               	movwf	(DATAEE_WriteByte@bAdd+1)^(0+1280),c
  5333  002E26  0E11               	movlw	17
  5334  002E28  6E02               	movwf	DATAEE_WriteByte@bAdd^(0+1280),c
  5335  002E2A  C52A  F504         	movff	_extMemAudio+2,DATAEE_WriteByte@bData
  5336  002E2E  EC6F  F01A         	call	_DATAEE_WriteByte	;wreg free
  5337                           
  5338                           ;main.c: 464:         DATAEE_WriteByte(0x0010 +2, extMemAudio.audioStartAddr >> 8);
  5339  002E32  0E00               	movlw	0
  5340  002E34  6E03               	movwf	(DATAEE_WriteByte@bAdd+1)^(0+1280),c
  5341  002E36  0E12               	movlw	18
  5342  002E38  6E02               	movwf	DATAEE_WriteByte@bAdd^(0+1280),c
  5343  002E3A  C529  F504         	movff	_extMemAudio+1,DATAEE_WriteByte@bData
  5344  002E3E  EC6F  F01A         	call	_DATAEE_WriteByte	;wreg free
  5345                           
  5346                           ;main.c: 465:         DATAEE_WriteByte(0x0010 +3, extMemAudio.audioStartAddr);
  5347  002E42  0E00               	movlw	0
  5348  002E44  6E03               	movwf	(DATAEE_WriteByte@bAdd+1)^(0+1280),c
  5349  002E46  0E13               	movlw	19
  5350  002E48  6E02               	movwf	DATAEE_WriteByte@bAdd^(0+1280),c
  5351  002E4A  C528  F504         	movff	_extMemAudio,DATAEE_WriteByte@bData
  5352  002E4E  EC6F  F01A         	call	_DATAEE_WriteByte	;wreg free
  5353                           
  5354                           ;main.c: 467:         DATAEE_WriteByte(0x0010 +4, extMemAudio.audioSize_pages >> 8);
  5355  002E52  0E00               	movlw	0
  5356  002E54  6E03               	movwf	(DATAEE_WriteByte@bAdd+1)^(0+1280),c
  5357  002E56  0E14               	movlw	20
  5358  002E58  6E02               	movwf	DATAEE_WriteByte@bAdd^(0+1280),c
  5359  002E5A  502D               	movf	(_extMemAudio+5)^(0+1280),w,c
  5360  002E5C  6E04               	movwf	DATAEE_WriteByte@bData^(0+1280),c
  5361  002E5E  EC6F  F01A         	call	_DATAEE_WriteByte	;wreg free
  5362                           
  5363                           ;main.c: 468:         DATAEE_WriteByte(0x0010 +5, extMemAudio.audioSize_pages);
  5364  002E62  0E00               	movlw	0
  5365  002E64  6E03               	movwf	(DATAEE_WriteByte@bAdd+1)^(0+1280),c
  5366  002E66  0E15               	movlw	21
  5367  002E68  6E02               	movwf	DATAEE_WriteByte@bAdd^(0+1280),c
  5368  002E6A  C52C  F504         	movff	_extMemAudio+4,DATAEE_WriteByte@bData
  5369  002E6E  EC6F  F01A         	call	_DATAEE_WriteByte	;wreg free
  5370                           
  5371                           ;main.c: 469:     }
  5372  002E72  EF6B  F017         	goto	l1986
  5373  002E76                     l5045:
  5374                           
  5375                           ;main.c: 471:     {;main.c: 472:         DATAEE_WriteByte(0x0000, pfmAudio.audioStartAdd
      +                          r >> 24);
  5376  002E76  0E00               	movlw	0
  5377  002E78  6E03               	movwf	(DATAEE_WriteByte@bAdd+1)^(0+1280),c
  5378  002E7A  0E00               	movlw	0
  5379  002E7C  6E02               	movwf	DATAEE_WriteByte@bAdd^(0+1280),c
  5380  002E7E  C531  F504         	movff	_pfmAudio+3,DATAEE_WriteByte@bData
  5381  002E82  EC6F  F01A         	call	_DATAEE_WriteByte	;wreg free
  5382                           
  5383                           ;main.c: 473:         DATAEE_WriteByte(0x0000 +1, pfmAudio.audioStartAddr >> 16);
  5384  002E86  0E00               	movlw	0
  5385  002E88  6E03               	movwf	(DATAEE_WriteByte@bAdd+1)^(0+1280),c
  5386  002E8A  0E01               	movlw	1
  5387  002E8C  6E02               	movwf	DATAEE_WriteByte@bAdd^(0+1280),c
  5388  002E8E  C530  F504         	movff	_pfmAudio+2,DATAEE_WriteByte@bData
  5389  002E92  EC6F  F01A         	call	_DATAEE_WriteByte	;wreg free
  5390                           
  5391                           ;main.c: 474:         DATAEE_WriteByte(0x0000 +2, pfmAudio.audioStartAddr >> 8);
  5392  002E96  0E00               	movlw	0
  5393  002E98  6E03               	movwf	(DATAEE_WriteByte@bAdd+1)^(0+1280),c
  5394  002E9A  0E02               	movlw	2
  5395  002E9C  6E02               	movwf	DATAEE_WriteByte@bAdd^(0+1280),c
  5396  002E9E  C52F  F504         	movff	_pfmAudio+1,DATAEE_WriteByte@bData
  5397  002EA2  EC6F  F01A         	call	_DATAEE_WriteByte	;wreg free
  5398                           
  5399                           ;main.c: 475:         DATAEE_WriteByte(0x0000 +3, pfmAudio.audioStartAddr);
  5400  002EA6  0E00               	movlw	0
  5401  002EA8  6E03               	movwf	(DATAEE_WriteByte@bAdd+1)^(0+1280),c
  5402  002EAA  0E03               	movlw	3
  5403  002EAC  6E02               	movwf	DATAEE_WriteByte@bAdd^(0+1280),c
  5404  002EAE  C52E  F504         	movff	_pfmAudio,DATAEE_WriteByte@bData
  5405  002EB2  EC6F  F01A         	call	_DATAEE_WriteByte	;wreg free
  5406                           
  5407                           ;main.c: 477:         DATAEE_WriteByte(0x0000 +4, pfmAudio.audioSize_pages >> 8);
  5408  002EB6  0E00               	movlw	0
  5409  002EB8  6E03               	movwf	(DATAEE_WriteByte@bAdd+1)^(0+1280),c
  5410  002EBA  0E04               	movlw	4
  5411  002EBC  6E02               	movwf	DATAEE_WriteByte@bAdd^(0+1280),c
  5412  002EBE  5033               	movf	(_pfmAudio+5)^(0+1280),w,c
  5413  002EC0  6E04               	movwf	DATAEE_WriteByte@bData^(0+1280),c
  5414  002EC2  EC6F  F01A         	call	_DATAEE_WriteByte	;wreg free
  5415                           
  5416                           ;main.c: 478:         DATAEE_WriteByte(0x0000 +5, pfmAudio.audioSize_pages);
  5417  002EC6  0E00               	movlw	0
  5418  002EC8  6E03               	movwf	(DATAEE_WriteByte@bAdd+1)^(0+1280),c
  5419  002ECA  0E05               	movlw	5
  5420  002ECC  6E02               	movwf	DATAEE_WriteByte@bAdd^(0+1280),c
  5421  002ECE  C532  F504         	movff	_pfmAudio+4,DATAEE_WriteByte@bData
  5422  002ED2  EC6F  F01A         	call	_DATAEE_WriteByte	;wreg free
  5423  002ED6                     l1986:
  5424  002ED6  0012               	return		;funcret
  5425  002ED8                     __end_of_AUDIO_UpdateMetaData:
  5426                           	callstack 0
  5427                           
  5428 ;; *************** function _DATAEE_WriteByte *****************
  5429 ;; Defined at:
  5430 ;;		line 231 in file "mcc_generated_files/memory.c"
  5431 ;; Parameters:    Size  Location     Type
  5432 ;;  bAdd            2    1[COMRAM] unsigned short 
  5433 ;;  bData           1    3[COMRAM] unsigned char 
  5434 ;; Auto vars:     Size  Location     Type
  5435 ;;  GIEBitValue     1    4[COMRAM] unsigned char 
  5436 ;; Return value:  Size  Location     Type
  5437 ;;                  1    wreg      void 
  5438 ;; Registers used:
  5439 ;;		wreg, status,2
  5440 ;; Tracked objects:
  5441 ;;		On entry : 0/0
  5442 ;;		On exit  : 0/0
  5443 ;;		Unchanged: 0/0
  5444 ;; Data sizes:     COMRAM   BANK5   BANK6   BANK7   BANK8   BANK9  BANK10  BANK11  BANK12  BANK13  BANK14  BANK15  BANK1
      +6  BANK17  BANK18  BANK19  BANK20  BANK21  BANK22  BANK23  BANK24  BANK25  BANK26  BANK27  BANK28  BANK29  BANK30  BANK3
      +1  BANK32  BANK33  BANK34  BANK35  BANK36
  5445 ;;      Params:         3       0       0       0       0       0       0       0       0       0       0       0       
      +0       0       0       0       0       0       0       0       0       0       0       0       0       0       0       
      +0       0       0       0       0       0
  5446 ;;      Locals:         1       0       0       0       0       0       0       0       0       0       0       0       
      +0       0       0       0       0       0       0       0       0       0       0       0       0       0       0       
      +0       0       0       0       0       0
  5447 ;;      Temps:          0       0       0       0       0       0       0       0       0       0       0       0       
      +0       0       0       0       0       0       0       0       0       0       0       0       0       0       0       
      +0       0       0       0       0       0
  5448 ;;      Totals:         4       0       0       0       0       0       0       0       0       0       0       0       
      +0       0       0       0       0       0       0       0       0       0       0       0       0       0       0       
      +0       0       0       0       0       0
  5449 ;;Total ram usage:        4 bytes
  5450 ;; Hardware stack levels used:    1
  5451 ;; Hardware stack levels required when called:    3
  5452 ;; This function calls:
  5453 ;;		Nothing
  5454 ;; This function is called by:
  5455 ;;		_AUDIO_UpdateMetaData
  5456 ;; This function uses a non-reentrant model
  5457 ;;
  5458                           
  5459                           	psect	text45
  5460  0034DE                     __ptext45:
  5461                           	callstack 0
  5462  0034DE                     _DATAEE_WriteByte:
  5463                           	callstack 122
  5464  0034DE                     
  5465                           ;mcc_generated_files/memory.c: 231: void DATAEE_WriteByte(uint16_t bAdd, uint8_t bData);
      +                          mcc_generated_files/memory.c: 232: {;mcc_generated_files/memory.c: 233:     uint8_t GIEB
      +                          itValue = INTCON0bits.GIE;
  5466  0034DE  0E00               	movlw	0
  5467  0034E0  BED6               	btfsc	214,7,c	;volatile
  5468  0034E2  0E01               	movlw	1
  5469  0034E4  6E05               	movwf	DATAEE_WriteByte@GIEBitValue^(0+1280),c
  5470  0034E6                     
  5471                           ;mcc_generated_files/memory.c: 236:     NVMADRU = 0x38;
  5472  0034E6  0E38               	movlw	56
  5473  0034E8  0100               	movlb	0	; () banked
  5474  0034EA  6F45               	movwf	69,b	;volatile
  5475  0034EC                     
  5476                           ; BSR set to: 0
  5477                           ;mcc_generated_files/memory.c: 237:     NVMADRH = (uint8_t) ((bAdd & 0xFF00) >> 8);
  5478  0034EC  5003               	movf	(DATAEE_WriteByte@bAdd+1)^(0+1280),w,c
  5479  0034EE  6F44               	movwf	68,b	;volatile
  5480  0034F0                     
  5481                           ; BSR set to: 0
  5482                           ;mcc_generated_files/memory.c: 238:     NVMADRL = (uint8_t) (bAdd & 0x00FF);
  5483  0034F0  0061  F408  F043   	movff	DATAEE_WriteByte@bAdd,67	;volatile
  5484  0034F6                     
  5485                           ; BSR set to: 0
  5486                           ;mcc_generated_files/memory.c: 241:     NVMDATL = bData;
  5487  0034F6  0061  F410  F046   	movff	DATAEE_WriteByte@bData,70	;volatile
  5488  0034FC                     
  5489                           ; BSR set to: 0
  5490                           ;mcc_generated_files/memory.c: 244:     NVMCON1bits.NVMCMD = 0b011;
  5491  0034FC  5141               	movf	65,w,b	;volsfr
  5492  0034FE  0BF8               	andlw	-8
  5493  003500  0903               	iorlw	3
  5494  003502  6F41               	movwf	65,b	;volsfr
  5495  003504                     
  5496                           ; BSR set to: 0
  5497                           ;mcc_generated_files/memory.c: 247:     INTCON0bits.GIE = 0;
  5498  003504  9ED6               	bcf	214,7,c	;volatile
  5499  003506                     
  5500                           ; BSR set to: 0
  5501                           ;mcc_generated_files/memory.c: 250:     NVMLOCK = 0x55;
  5502  003506  0E55               	movlw	85
  5503  003508  6F42               	movwf	66,b	;volatile
  5504  00350A                     
  5505                           ; BSR set to: 0
  5506                           ;mcc_generated_files/memory.c: 251:     NVMLOCK = 0xAA;
  5507  00350A  0EAA               	movlw	170
  5508  00350C  6F42               	movwf	66,b	;volatile
  5509  00350E                     
  5510                           ; BSR set to: 0
  5511                           ;mcc_generated_files/memory.c: 254:     NVMCON0bits.GO = 1;
  5512  00350E  8140               	bsf	64,0,b	;volatile
  5513  003510                     l923:
  5514                           
  5515                           ; BSR set to: 0
  5516  003510  B140               	btfsc	64,0,b	;volatile
  5517  003512  EF8D  F01A         	goto	u1331
  5518  003516  EF8F  F01A         	goto	u1330
  5519  00351A                     u1331:
  5520  00351A  EF88  F01A         	goto	l923
  5521  00351E                     u1330:
  5522  00351E                     
  5523                           ; BSR set to: 0
  5524                           ;mcc_generated_files/memory.c: 258:     INTCON0bits.GIE = GIEBitValue;
  5525  00351E  B005               	btfsc	DATAEE_WriteByte@GIEBitValue^(0+1280),0,c
  5526  003520  D002               	bra	u1345
  5527  003522  9ED6               	bcf	214,7,c	;volatile
  5528  003524  D001               	bra	u1346
  5529  003526                     u1345:
  5530  003526  8ED6               	bsf	214,7,c	;volatile
  5531  003528                     u1346:
  5532  003528                     
  5533                           ;mcc_generated_files/memory.c: 261:     NVMCON1bits.NVMCMD = 0b000;
  5534  003528  0EF8               	movlw	-8
  5535  00352A  0100               	movlb	0	; () banked
  5536  00352C  1741               	andwf	65,f,b	;volsfr
  5537  00352E                     
  5538                           ; BSR set to: 0
  5539  00352E  0012               	return		;funcret
  5540  003530                     __end_of_DATAEE_WriteByte:
  5541                           	callstack 0
  5542                           
  5543 ;; *************** function _AUDIO_Playback *****************
  5544 ;; Defined at:
  5545 ;;		line 771 in file "main.c"
  5546 ;; Parameters:    Size  Location     Type
  5547 ;;		None
  5548 ;; Auto vars:     Size  Location     Type
  5549 ;;  i               2   17[COMRAM] unsigned short 
  5550 ;;  i               2   15[COMRAM] unsigned short 
  5551 ;;  flashAddr       4    9[COMRAM] unsigned long 
  5552 ;;  numPages        2   13[COMRAM] unsigned short 
  5553 ;; Return value:  Size  Location     Type
  5554 ;;                  1    wreg      void 
  5555 ;; Registers used:
  5556 ;;		wreg, status,2, status,0, cstack
  5557 ;; Tracked objects:
  5558 ;;		On entry : 0/0
  5559 ;;		On exit  : 0/0
  5560 ;;		Unchanged: 0/0
  5561 ;; Data sizes:     COMRAM   BANK5   BANK6   BANK7   BANK8   BANK9  BANK10  BANK11  BANK12  BANK13  BANK14  BANK15  BANK1
      +6  BANK17  BANK18  BANK19  BANK20  BANK21  BANK22  BANK23  BANK24  BANK25  BANK26  BANK27  BANK28  BANK29  BANK30  BANK3
      +1  BANK32  BANK33  BANK34  BANK35  BANK36
  5562 ;;      Params:         0       0       0       0       0       0       0       0       0       0       0       0       
      +0       0       0       0       0       0       0       0       0       0       0       0       0       0       0       
      +0       0       0       0       0       0
  5563 ;;      Locals:        10       0       0       0       0       0       0       0       0       0       0       0       
      +0       0       0       0       0       0       0       0       0       0       0       0       0       0       0       
      +0       0       0       0       0       0
  5564 ;;      Temps:          0       0       0       0       0       0       0       0       0       0       0       0       
      +0       0       0       0       0       0       0       0       0       0       0       0       0       0       0       
      +0       0       0       0       0       0
  5565 ;;      Totals:        10       0       0       0       0       0       0       0       0       0       0       0       
      +0       0       0       0       0       0       0       0       0       0       0       0       0       0       0       
      +0       0       0       0       0       0
  5566 ;;Total ram usage:       10 bytes
  5567 ;; Hardware stack levels used:    1
  5568 ;; Hardware stack levels required when called:    6
  5569 ;; This function calls:
  5570 ;;		_ResetDMA
  5571 ;;		_ResetSwitches
  5572 ;;		_SST26VF064B_Busy
  5573 ;;		_SST26VF064B_CS_High
  5574 ;;		_SST26VF064B_CS_Low
  5575 ;;		_SST26VF064B_Read_Cmd
  5576 ;;		_SST26VF064B_WriteAddress
  5577 ;;		_TMR0_Reload
  5578 ;;		_TMR0_StartTimer
  5579 ;;		_TMR0_StopTimer
  5580 ;;		_UART1_Write
  5581 ;; This function is called by:
  5582 ;;		_main
  5583 ;; This function uses a non-reentrant model
  5584 ;;
  5585                           
  5586                           	psect	text46
  5587  002A38                     __ptext46:
  5588                           	callstack 0
  5589  002A38                     _AUDIO_Playback:
  5590                           	callstack 121
  5591  002A38                     
  5592                           ;main.c: 773:     UART1_Write('P');
  5593  002A38  0E50               	movlw	80
  5594  002A3A  EC3A  F01E         	call	_UART1_Write
  5595  002A3E                     
  5596                           ;main.c: 776:     ResetSwitches();
  5597  002A3E  EC07  F01F         	call	_ResetSwitches	;wreg free
  5598  002A42                     
  5599                           ;main.c: 779:     uint32_t flashAddr;;main.c: 780:     uint16_t numPages;;main.c: 782:  
      +                             if(extMem)
  5600  002A42  5042               	movf	_extMem^(0+1280),w,c
  5601  002A44  B4D8               	btfsc	status,2,c
  5602  002A46  EF27  F015         	goto	u1741
  5603  002A4A  EF29  F015         	goto	u1740
  5604  002A4E                     u1741:
  5605  002A4E  EF37  F015         	goto	l2060
  5606  002A52                     u1740:
  5607  002A52                     
  5608                           ;main.c: 783:     {;main.c: 784:         flashAddr = extMemAudio.audioStartAddr;
  5609  002A52  C528  F50A         	movff	_extMemAudio,AUDIO_Playback@flashAddr
  5610  002A56  C529  F50B         	movff	_extMemAudio+1,AUDIO_Playback@flashAddr+1
  5611  002A5A  C52A  F50C         	movff	_extMemAudio+2,AUDIO_Playback@flashAddr+2
  5612  002A5E  C52B  F50D         	movff	_extMemAudio+3,AUDIO_Playback@flashAddr+3
  5613                           
  5614                           ;main.c: 785:         numPages = extMemAudio.audioSize_pages;
  5615  002A62  C52C  F50E         	movff	_extMemAudio+4,AUDIO_Playback@numPages
  5616  002A66  C52D  F50F         	movff	_extMemAudio+5,AUDIO_Playback@numPages+1
  5617                           
  5618                           ;main.c: 786:     }
  5619  002A6A  EF43  F015         	goto	l2061
  5620  002A6E                     l2060:
  5621                           
  5622                           ;main.c: 788:     {;main.c: 789:         flashAddr = pfmAudio.audioStartAddr;
  5623  002A6E  C52E  F50A         	movff	_pfmAudio,AUDIO_Playback@flashAddr
  5624  002A72  C52F  F50B         	movff	_pfmAudio+1,AUDIO_Playback@flashAddr+1
  5625  002A76  C530  F50C         	movff	_pfmAudio+2,AUDIO_Playback@flashAddr+2
  5626  002A7A  C531  F50D         	movff	_pfmAudio+3,AUDIO_Playback@flashAddr+3
  5627                           
  5628                           ;main.c: 790:         numPages = pfmAudio.audioSize_pages;
  5629  002A7E  C532  F50E         	movff	_pfmAudio+4,AUDIO_Playback@numPages
  5630  002A82  C533  F50F         	movff	_pfmAudio+5,AUDIO_Playback@numPages+1
  5631  002A86                     l2061:
  5632                           
  5633                           ;main.c: 794:     DAC1CONbits.EN = 1;
  5634  002A86  0100               	movlb	0	; () banked
  5635  002A88  8F7F               	bsf	127,7,b	;volatile
  5636  002A8A                     
  5637                           ; BSR set to: 0
  5638                           ;main.c: 797:     ResetDMA(2);
  5639  002A8A  0E02               	movlw	2
  5640  002A8C  EC51  F01D         	call	_ResetDMA
  5641                           
  5642                           ;main.c: 798:     ResetDMA(5);
  5643  002A90  0E05               	movlw	5
  5644  002A92  EC51  F01D         	call	_ResetDMA
  5645  002A96                     
  5646                           ;main.c: 801:     TMR0_Reload();
  5647  002A96  ECD9  F01E         	call	_TMR0_Reload	;wreg free
  5648  002A9A                     
  5649                           ;main.c: 802:     TMR0_StartTimer();
  5650  002A9A  EC20  F01F         	call	_TMR0_StartTimer	;wreg free
  5651  002A9E  96C3               	bcf	195,3,c	;volatile
  5652  002AA0                     
  5653                           ;main.c: 805:     if(extMem) {
  5654  002AA0  5042               	movf	_extMem^(0+1280),w,c
  5655  002AA2  B4D8               	btfsc	status,2,c
  5656  002AA4  EF56  F015         	goto	u1751
  5657  002AA8  EF58  F015         	goto	u1750
  5658  002AAC                     u1751:
  5659  002AAC  EFB7  F015         	goto	l5469
  5660  002AB0                     u1750:
  5661  002AB0                     l5441:
  5662  002AB0  ECE8  F01D         	call	_SST26VF064B_Busy	;wreg free
  5663  002AB4  0900               	iorlw	0
  5664  002AB6  A4D8               	btfss	status,2,c
  5665  002AB8  EF60  F015         	goto	u1761
  5666  002ABC  EF62  F015         	goto	u1760
  5667  002AC0                     u1761:
  5668  002AC0  EF58  F015         	goto	l5441
  5669  002AC4                     u1760:
  5670  002AC4                     
  5671                           ;main.c: 808:         SST26VF064B_CS_Low();
  5672  002AC4  EC3D  F01F         	call	_SST26VF064B_CS_Low	;wreg free
  5673  002AC8                     
  5674                           ;main.c: 809:         SST26VF064B_Read_Cmd( );
  5675  002AC8  EC10  F01F         	call	_SST26VF064B_Read_Cmd	;wreg free
  5676  002ACC                     
  5677                           ;main.c: 810:         SST26VF064B_WriteAddress(flashAddr);
  5678  002ACC  C50A  F503         	movff	AUDIO_Playback@flashAddr,SST26VF064B_WriteAddress@address
  5679  002AD0  C50B  F504         	movff	AUDIO_Playback@flashAddr+1,SST26VF064B_WriteAddress@address+1
  5680  002AD4  C50C  F505         	movff	AUDIO_Playback@flashAddr+2,SST26VF064B_WriteAddress@address+2
  5681  002AD8  C50D  F506         	movff	AUDIO_Playback@flashAddr+3,SST26VF064B_WriteAddress@address+3
  5682  002ADC  ECBA  F01D         	call	_SST26VF064B_WriteAddress	;wreg free
  5683  002AE0                     l2068:
  5684  002AE0  0100               	movlb	0	; () banked
  5685  002AE2  BF86               	btfsc	134,7,b	;volatile
  5686  002AE4  EF76  F015         	goto	u1771
  5687  002AE8  EF78  F015         	goto	u1770
  5688  002AEC                     u1771:
  5689  002AEC  EF70  F015         	goto	l2068
  5690  002AF0                     u1770:
  5691  002AF0                     
  5692                           ; BSR set to: 0
  5693                           ;main.c: 814:         SPI1CON2bits.TXR = 0;
  5694  002AF0  9386               	bcf	134,1,b	;volatile
  5695                           
  5696                           ;main.c: 817:         for(uint16_t i = numPages; i > 0; i--)
  5697  002AF2  C50E  F510         	movff	AUDIO_Playback@numPages,AUDIO_Playback@i
  5698  002AF6  C50F  F511         	movff	AUDIO_Playback@numPages+1,AUDIO_Playback@i+1
  5699  002AFA                     l5449:
  5700  002AFA  5010               	movf	AUDIO_Playback@i^(0+1280),w,c
  5701  002AFC  1011               	iorwf	(AUDIO_Playback@i+1)^(0+1280),w,c
  5702  002AFE  A4D8               	btfss	status,2,c
  5703  002B00  EF84  F015         	goto	u1781
  5704  002B04  EF86  F015         	goto	u1780
  5705  002B08                     u1781:
  5706  002B08  EF88  F015         	goto	l5453
  5707  002B0C                     u1780:
  5708  002B0C  EFAA  F015         	goto	l2077
  5709  002B10                     l5453:
  5710                           
  5711                           ;main.c: 818:         {;main.c: 820:             SPI1TCNT = 256;
  5712  002B10  0E01               	movlw	1
  5713  002B12  0100               	movlb	0	; () banked
  5714  002B14  6F83               	movwf	131,b	;volatile
  5715  002B16  0E00               	movlw	0
  5716  002B18  6F82               	movwf	130,b	;volatile
  5717  002B1A                     
  5718                           ; BSR set to: 0
  5719                           ;main.c: 823:             PIR10bits.DMA3SCNTIF = 0;
  5720  002B1A  98B8               	bcf	184,4,c	;volatile
  5721                           
  5722                           ;main.c: 824:             DMASELECT = 2;
  5723  002B1C  0E02               	movlw	2
  5724  002B1E  6FE8               	movwf	232,b	;volatile
  5725  002B20                     
  5726                           ; BSR set to: 0
  5727                           ;main.c: 825:             DMAnCON0bits.SIRQEN = 1;
  5728  002B20  8DFC               	bsf	252,6,b	;volatile
  5729  002B22                     l2073:
  5730  002B22  A8B8               	btfss	184,4,c	;volatile
  5731  002B24  EF96  F015         	goto	u1791
  5732  002B28  EF98  F015         	goto	u1790
  5733  002B2C                     u1791:
  5734  002B2C  EF91  F015         	goto	l2073
  5735  002B30                     u1790:
  5736  002B30                     
  5737                           ;main.c: 827:             PIR10bits.DMA3SCNTIF = 0;
  5738  002B30  98B8               	bcf	184,4,c	;volatile
  5739  002B32                     
  5740                           ;main.c: 830:             if(sw0_pressed) {
  5741  002B32  5046               	movf	_sw0_pressed^(0+1280),w,c
  5742  002B34  B4D8               	btfsc	status,2,c
  5743  002B36  EF9F  F015         	goto	u1801
  5744  002B3A  EFA1  F015         	goto	u1800
  5745  002B3E                     u1801:
  5746  002B3E  EFA5  F015         	goto	l5463
  5747  002B42                     u1800:
  5748  002B42                     
  5749                           ;main.c: 831:                 sw0_pressed = 0;
  5750  002B42  0E00               	movlw	0
  5751  002B44  6E46               	movwf	_sw0_pressed^(0+1280),c
  5752                           
  5753                           ;main.c: 832:                 break;
  5754  002B46  EFAA  F015         	goto	l2077
  5755  002B4A                     l5463:
  5756                           
  5757                           ;main.c: 835:         }
  5758  002B4A  0610               	decf	AUDIO_Playback@i^(0+1280),f,c
  5759  002B4C  A0D8               	btfss	status,0,c
  5760  002B4E  0611               	decf	(AUDIO_Playback@i+1)^(0+1280),f,c
  5761  002B50  EF7D  F015         	goto	l5449
  5762  002B54                     l2077:
  5763  002B54  0100               	movlb	0	; () banked
  5764  002B56  BF86               	btfsc	134,7,b	;volatile
  5765  002B58  EFB0  F015         	goto	u1811
  5766  002B5C  EFB2  F015         	goto	u1810
  5767  002B60                     u1811:
  5768  002B60  EFAA  F015         	goto	l2077
  5769  002B64                     u1810:
  5770  002B64                     
  5771                           ; BSR set to: 0
  5772                           ;main.c: 839:         SPI1CON2bits.TXR = 1;
  5773  002B64  8386               	bsf	134,1,b	;volatile
  5774  002B66                     
  5775                           ; BSR set to: 0
  5776                           ;main.c: 841:         SST26VF064B_CS_High();
  5777  002B66  EC3F  F01F         	call	_SST26VF064B_CS_High	;wreg free
  5778                           
  5779                           ;main.c: 842:     }
  5780  002B6A  EFF8  F015         	goto	l5493
  5781  002B6E                     l5469:
  5782                           
  5783                           ;main.c: 845:         DMASELECT = 5;
  5784  002B6E  0E05               	movlw	5
  5785  002B70  0100               	movlb	0	; () banked
  5786  002B72  6FE8               	movwf	232,b	;volatile
  5787  002B74                     
  5788                           ; BSR set to: 0
  5789                           ;main.c: 846:         DMAnSSA = flashAddr;
  5790  002B74  0061  F428  F0F9   	movff	AUDIO_Playback@flashAddr,249	;volatile
  5791  002B7A  0061  F42C  F0FA   	movff	AUDIO_Playback@flashAddr+1,250	;volatile
  5792  002B80  0061  F430  F0FB   	movff	AUDIO_Playback@flashAddr+2,251	;volatile
  5793  002B86                     
  5794                           ; BSR set to: 0
  5795                           ;main.c: 849:         for(uint16_t i = numPages; i > 0; i--)
  5796  002B86  C50E  F512         	movff	AUDIO_Playback@numPages,AUDIO_Playback@i_3992
  5797  002B8A  C50F  F513         	movff	AUDIO_Playback@numPages+1,AUDIO_Playback@i_3992+1
  5798  002B8E                     l5475:
  5799  002B8E  5012               	movf	AUDIO_Playback@i_3992^(0+1280),w,c
  5800  002B90  1013               	iorwf	(AUDIO_Playback@i_3992+1)^(0+1280),w,c
  5801  002B92  A4D8               	btfss	status,2,c
  5802  002B94  EFCE  F015         	goto	u1821
  5803  002B98  EFD0  F015         	goto	u1820
  5804  002B9C                     u1821:
  5805  002B9C  EFD2  F015         	goto	l2083
  5806  002BA0                     u1820:
  5807  002BA0  EFF8  F015         	goto	l5493
  5808  002BA4                     l2083:
  5809  002BA4  86C1               	bsf	193,3,c	;volatile
  5810  002BA6                     
  5811                           ;main.c: 852:             PIR13bits.DMA6SCNTIF = 0;
  5812  002BA6  98BB               	bcf	187,4,c	;volatile
  5813  002BA8                     
  5814                           ;main.c: 853:             DMASELECT = 5;
  5815  002BA8  0E05               	movlw	5
  5816  002BAA  0100               	movlb	0	; () banked
  5817  002BAC  6FE8               	movwf	232,b	;volatile
  5818  002BAE                     
  5819                           ; BSR set to: 0
  5820                           ;main.c: 854:             DMAnCON0bits.SIRQEN = 1;
  5821  002BAE  8DFC               	bsf	252,6,b	;volatile
  5822  002BB0                     
  5823                           ; BSR set to: 0
  5824                           ;main.c: 855:             DMAnSSA += 256;
  5825  002BB0  0E00               	movlw	0
  5826  002BB2  27F9               	addwf	249,f,b	;volatile
  5827  002BB4  0E01               	movlw	1
  5828  002BB6  23FA               	addwfc	250,f,b	;volatile
  5829  002BB8  0E00               	movlw	0
  5830  002BBA  23FB               	addwfc	251,f,b	;volatile
  5831  002BBC                     l2085:
  5832  002BBC  A8BB               	btfss	187,4,c	;volatile
  5833  002BBE  EFE3  F015         	goto	u1831
  5834  002BC2  EFE5  F015         	goto	u1830
  5835  002BC6                     u1831:
  5836  002BC6  EFDE  F015         	goto	l2085
  5837  002BCA                     u1830:
  5838  002BCA                     
  5839                           ;main.c: 857:             PIR13bits.DMA6SCNTIF = 0;
  5840  002BCA  98BB               	bcf	187,4,c	;volatile
  5841  002BCC  96C1               	bcf	193,3,c	;volatile
  5842  002BCE                     
  5843                           ;main.c: 861:             if(sw0_pressed) {
  5844  002BCE  5046               	movf	_sw0_pressed^(0+1280),w,c
  5845  002BD0  B4D8               	btfsc	status,2,c
  5846  002BD2  EFED  F015         	goto	u1841
  5847  002BD6  EFEF  F015         	goto	u1840
  5848  002BDA                     u1841:
  5849  002BDA  EFF3  F015         	goto	l5489
  5850  002BDE                     u1840:
  5851  002BDE                     
  5852                           ;main.c: 862:                 sw0_pressed = 0;
  5853  002BDE  0E00               	movlw	0
  5854  002BE0  6E46               	movwf	_sw0_pressed^(0+1280),c
  5855                           
  5856                           ;main.c: 863:                 break;
  5857  002BE2  EFF8  F015         	goto	l5493
  5858  002BE6                     l5489:
  5859                           
  5860                           ;main.c: 865:         }
  5861  002BE6  0612               	decf	AUDIO_Playback@i_3992^(0+1280),f,c
  5862  002BE8  A0D8               	btfss	status,0,c
  5863  002BEA  0613               	decf	(AUDIO_Playback@i_3992+1)^(0+1280),f,c
  5864  002BEC  EFC7  F015         	goto	l5475
  5865  002BF0                     l5493:
  5866                           
  5867                           ;main.c: 869:     TMR0_StopTimer();
  5868  002BF0  EC38  F01F         	call	_TMR0_StopTimer	;wreg free
  5869  002BF4                     
  5870                           ;main.c: 870:     TMR0_Reload();
  5871  002BF4  ECD9  F01E         	call	_TMR0_Reload	;wreg free
  5872  002BF8  86C3               	bsf	195,3,c	;volatile
  5873  002BFA                     
  5874                           ;main.c: 874:     DAC1CONbits.EN = 0;
  5875  002BFA  0100               	movlb	0	; () banked
  5876  002BFC  9F7F               	bcf	127,7,b	;volatile
  5877  002BFE                     
  5878                           ; BSR set to: 0
  5879                           ;main.c: 877:     ResetSwitches();
  5880  002BFE  EC07  F01F         	call	_ResetSwitches	;wreg free
  5881  002C02                     
  5882                           ;main.c: 880:     mode = Idle;
  5883  002C02  0E00               	movlw	0
  5884  002C04  6E3F               	movwf	_mode^(0+1280),c
  5885  002C06                     
  5886                           ;main.c: 881:     UART1_Write('x');
  5887  002C06  0E78               	movlw	120
  5888  002C08  EC3A  F01E         	call	_UART1_Write
  5889  002C0C  0012               	return		;funcret
  5890  002C0E                     __end_of_AUDIO_Playback:
  5891                           	callstack 0
  5892                           
  5893 ;; *************** function _SST26VF064B_WriteAddress *****************
  5894 ;; Defined at:
  5895 ;;		line 120 in file "SST26VF064B.c"
  5896 ;; Parameters:    Size  Location     Type
  5897 ;;  address         4    2[COMRAM] unsigned long 
  5898 ;; Auto vars:     Size  Location     Type
  5899 ;;  addr_lo         1    8[COMRAM] unsigned char 
  5900 ;;  addr_mi         1    7[COMRAM] unsigned char 
  5901 ;;  addr_hi         1    6[COMRAM] unsigned char 
  5902 ;; Return value:  Size  Location     Type
  5903 ;;                  1    wreg      void 
  5904 ;; Registers used:
  5905 ;;		wreg, status,2, cstack
  5906 ;; Tracked objects:
  5907 ;;		On entry : 0/0
  5908 ;;		On exit  : 0/0
  5909 ;;		Unchanged: 0/0
  5910 ;; Data sizes:     COMRAM   BANK5   BANK6   BANK7   BANK8   BANK9  BANK10  BANK11  BANK12  BANK13  BANK14  BANK15  BANK1
      +6  BANK17  BANK18  BANK19  BANK20  BANK21  BANK22  BANK23  BANK24  BANK25  BANK26  BANK27  BANK28  BANK29  BANK30  BANK3
      +1  BANK32  BANK33  BANK34  BANK35  BANK36
  5911 ;;      Params:         4       0       0       0       0       0       0       0       0       0       0       0       
      +0       0       0       0       0       0       0       0       0       0       0       0       0       0       0       
      +0       0       0       0       0       0
  5912 ;;      Locals:         3       0       0       0       0       0       0       0       0       0       0       0       
      +0       0       0       0       0       0       0       0       0       0       0       0       0       0       0       
      +0       0       0       0       0       0
  5913 ;;      Temps:          0       0       0       0       0       0       0       0       0       0       0       0       
      +0       0       0       0       0       0       0       0       0       0       0       0       0       0       0       
      +0       0       0       0       0       0
  5914 ;;      Totals:         7       0       0       0       0       0       0       0       0       0       0       0       
      +0       0       0       0       0       0       0       0       0       0       0       0       0       0       0       
      +0       0       0       0       0       0
  5915 ;;Total ram usage:        7 bytes
  5916 ;; Hardware stack levels used:    1
  5917 ;; Hardware stack levels required when called:    4
  5918 ;; This function calls:
  5919 ;;		_SPI1_ExchangeByte
  5920 ;; This function is called by:
  5921 ;;		_AUDIO_Record
  5922 ;;		_AUDIO_Playback
  5923 ;;		_SST26VF064B_SectorErase
  5924 ;;		_SST26VF064B_BlockErase
  5925 ;; This function uses a non-reentrant model
  5926 ;;
  5927                           
  5928                           	psect	text47
  5929  003B74                     __ptext47:
  5930                           	callstack 0
  5931  003B74                     _SST26VF064B_WriteAddress:
  5932                           	callstack 122
  5933  003B74                     
  5934                           ;SST26VF064B.c: 120: void SST26VF064B_WriteAddress( uint32_t address );SST26VF064B.c: 12
      +                          1: {;SST26VF064B.c: 122:     uint8_t addr_hi = address >> 16;
  5935  003B74  C505  F507         	movff	SST26VF064B_WriteAddress@address+2,SST26VF064B_WriteAddress@addr_hi
  5936                           
  5937                           ;SST26VF064B.c: 123:     uint8_t addr_mi = ( address & 0x00FF00 ) >> 8;
  5938  003B78  C504  F508         	movff	SST26VF064B_WriteAddress@address+1,SST26VF064B_WriteAddress@addr_mi
  5939                           
  5940                           ;SST26VF064B.c: 124:     uint8_t addr_lo = ( address & 0x0000FF );
  5941  003B7C  C503  F509         	movff	SST26VF064B_WriteAddress@address,SST26VF064B_WriteAddress@addr_lo
  5942  003B80                     
  5943                           ;SST26VF064B.c: 126:     SPI1_ExchangeByte( addr_hi );
  5944  003B80  5007               	movf	SST26VF064B_WriteAddress@addr_hi^(0+1280),w,c
  5945  003B82  EC99  F01D         	call	_SPI1_ExchangeByte
  5946                           
  5947                           ;SST26VF064B.c: 127:     SPI1_ExchangeByte( addr_mi );
  5948  003B86  5008               	movf	SST26VF064B_WriteAddress@addr_mi^(0+1280),w,c
  5949  003B88  EC99  F01D         	call	_SPI1_ExchangeByte
  5950                           
  5951                           ;SST26VF064B.c: 128:     SPI1_ExchangeByte( addr_lo );
  5952  003B8C  5009               	movf	SST26VF064B_WriteAddress@addr_lo^(0+1280),w,c
  5953  003B8E  EC99  F01D         	call	_SPI1_ExchangeByte
  5954  003B92  0012               	return		;funcret
  5955  003B94                     __end_of_SST26VF064B_WriteAddress:
  5956                           	callstack 0
  5957                           
  5958 ;; *************** function _SST26VF064B_Read_Cmd *****************
  5959 ;; Defined at:
  5960 ;;		line 227 in file "SST26VF064B.c"
  5961 ;; Parameters:    Size  Location     Type
  5962 ;;		None
  5963 ;; Auto vars:     Size  Location     Type
  5964 ;;		None
  5965 ;; Return value:  Size  Location     Type
  5966 ;;                  1    wreg      void 
  5967 ;; Registers used:
  5968 ;;		wreg, status,2, cstack
  5969 ;; Tracked objects:
  5970 ;;		On entry : 0/0
  5971 ;;		On exit  : 0/0
  5972 ;;		Unchanged: 0/0
  5973 ;; Data sizes:     COMRAM   BANK5   BANK6   BANK7   BANK8   BANK9  BANK10  BANK11  BANK12  BANK13  BANK14  BANK15  BANK1
      +6  BANK17  BANK18  BANK19  BANK20  BANK21  BANK22  BANK23  BANK24  BANK25  BANK26  BANK27  BANK28  BANK29  BANK30  BANK3
      +1  BANK32  BANK33  BANK34  BANK35  BANK36
  5974 ;;      Params:         0       0       0       0       0       0       0       0       0       0       0       0       
      +0       0       0       0       0       0       0       0       0       0       0       0       0       0       0       
      +0       0       0       0       0       0
  5975 ;;      Locals:         0       0       0       0       0       0       0       0       0       0       0       0       
      +0       0       0       0       0       0       0       0       0       0       0       0       0       0       0       
      +0       0       0       0       0       0
  5976 ;;      Temps:          0       0       0       0       0       0       0       0       0       0       0       0       
      +0       0       0       0       0       0       0       0       0       0       0       0       0       0       0       
      +0       0       0       0       0       0
  5977 ;;      Totals:         0       0       0       0       0       0       0       0       0       0       0       0       
      +0       0       0       0       0       0       0       0       0       0       0       0       0       0       0       
      +0       0       0       0       0       0
  5978 ;;Total ram usage:        0 bytes
  5979 ;; Hardware stack levels used:    1
  5980 ;; Hardware stack levels required when called:    5
  5981 ;; This function calls:
  5982 ;;		_SST26VF064B_Command
  5983 ;; This function is called by:
  5984 ;;		_AUDIO_Playback
  5985 ;; This function uses a non-reentrant model
  5986 ;;
  5987                           
  5988                           	psect	text48
  5989  003E20                     __ptext48:
  5990                           	callstack 0
  5991  003E20                     _SST26VF064B_Read_Cmd:
  5992                           	callstack 121
  5993  003E20                     
  5994                           ;SST26VF064B.c: 229:     SST26VF064B_Command( CMD_READ );
  5995  003E20  0E03               	movlw	3
  5996  003E22  EC02  F01F         	call	_SST26VF064B_Command
  5997  003E26  0012               	return		;funcret
  5998  003E28                     __end_of_SST26VF064B_Read_Cmd:
  5999                           	callstack 0
  6000                           
  6001 ;; *************** function _AUDIO_Passthrough *****************
  6002 ;; Defined at:
  6003 ;;		line 890 in file "main.c"
  6004 ;; Parameters:    Size  Location     Type
  6005 ;;		None
  6006 ;; Auto vars:     Size  Location     Type
  6007 ;;		None
  6008 ;; Return value:  Size  Location     Type
  6009 ;;                  1    wreg      void 
  6010 ;; Registers used:
  6011 ;;		wreg, status,2, status,0, cstack
  6012 ;; Tracked objects:
  6013 ;;		On entry : 0/0
  6014 ;;		On exit  : 0/0
  6015 ;;		Unchanged: 0/0
  6016 ;; Data sizes:     COMRAM   BANK5   BANK6   BANK7   BANK8   BANK9  BANK10  BANK11  BANK12  BANK13  BANK14  BANK15  BANK1
      +6  BANK17  BANK18  BANK19  BANK20  BANK21  BANK22  BANK23  BANK24  BANK25  BANK26  BANK27  BANK28  BANK29  BANK30  BANK3
      +1  BANK32  BANK33  BANK34  BANK35  BANK36
  6017 ;;      Params:         0       0       0       0       0       0       0       0       0       0       0       0       
      +0       0       0       0       0       0       0       0       0       0       0       0       0       0       0       
      +0       0       0       0       0       0
  6018 ;;      Locals:         0       0       0       0       0       0       0       0       0       0       0       0       
      +0       0       0       0       0       0       0       0       0       0       0       0       0       0       0       
      +0       0       0       0       0       0
  6019 ;;      Temps:          0       0       0       0       0       0       0       0       0       0       0       0       
      +0       0       0       0       0       0       0       0       0       0       0       0       0       0       0       
      +0       0       0       0       0       0
  6020 ;;      Totals:         0       0       0       0       0       0       0       0       0       0       0       0       
      +0       0       0       0       0       0       0       0       0       0       0       0       0       0       0       
      +0       0       0       0       0       0
  6021 ;;Total ram usage:        0 bytes
  6022 ;; Hardware stack levels used:    1
  6023 ;; Hardware stack levels required when called:    4
  6024 ;; This function calls:
  6025 ;;		_DMA1_StartTransferWithTrigger
  6026 ;;		_DMA1_StopTransfer
  6027 ;;		_ResetDMA
  6028 ;;		_ResetSwitches
  6029 ;;		_TMR0_Reload
  6030 ;;		_TMR0_StartTimer
  6031 ;;		_TMR0_StopTimer
  6032 ;;		_UART1_Write
  6033 ;; This function is called by:
  6034 ;;		_main
  6035 ;; This function uses a non-reentrant model
  6036 ;;
  6037                           
  6038                           	psect	text49
  6039  003368                     __ptext49:
  6040                           	callstack 0
  6041  003368                     _AUDIO_Passthrough:
  6042                           	callstack 123
  6043  003368                     
  6044                           ;main.c: 892:     UART1_Write('T');
  6045  003368  0E54               	movlw	84
  6046  00336A  EC3A  F01E         	call	_UART1_Write
  6047  00336E                     
  6048                           ;main.c: 895:     ResetSwitches();
  6049  00336E  EC07  F01F         	call	_ResetSwitches	;wreg free
  6050  003372                     
  6051                           ;main.c: 898:     ADCON0bits.ON = 1;
  6052  003372  0103               	movlb	3	; () banked
  6053  003374  8FF3               	bsf	243,7,b	;volatile
  6054  003376                     
  6055                           ; BSR set to: 3
  6056                           ;main.c: 899:     DAC1CONbits.EN = 1;
  6057  003376  0100               	movlb	0	; () banked
  6058  003378  8F7F               	bsf	127,7,b	;volatile
  6059  00337A                     
  6060                           ; BSR set to: 0
  6061                           ;main.c: 902:     ResetDMA(0x00);
  6062  00337A  0E00               	movlw	0
  6063  00337C  EC51  F01D         	call	_ResetDMA
  6064  003380                     
  6065                           ;main.c: 905:     DMA1_StartTransferWithTrigger();
  6066  003380  ECFD  F01E         	call	_DMA1_StartTransferWithTrigger	;wreg free
  6067  003384                     
  6068                           ;main.c: 906:     TMR0_Reload();
  6069  003384  ECD9  F01E         	call	_TMR0_Reload	;wreg free
  6070  003388                     
  6071                           ;main.c: 907:     TMR0_StartTimer();
  6072  003388  EC20  F01F         	call	_TMR0_StartTimer	;wreg free
  6073  00338C  96C3               	bcf	195,3,c	;volatile
  6074  00338E                     l3995:
  6075  00338E  5046               	movf	_sw0_pressed^(0+1280),w,c
  6076  003390  B4D8               	btfsc	status,2,c
  6077  003392  EFCD  F019         	goto	u841
  6078  003396  EFCF  F019         	goto	u840
  6079  00339A                     u841:
  6080  00339A  EFC7  F019         	goto	l3995
  6081  00339E                     u840:
  6082  00339E                     
  6083                           ;main.c: 914:     sw0_pressed = 0;
  6084  00339E  0E00               	movlw	0
  6085  0033A0  6E46               	movwf	_sw0_pressed^(0+1280),c
  6086  0033A2                     
  6087                           ;main.c: 917:     DMA1_StopTransfer();
  6088  0033A2  ECEC  F01E         	call	_DMA1_StopTransfer	;wreg free
  6089                           
  6090                           ;main.c: 918:     TMR0_StopTimer();
  6091  0033A6  EC38  F01F         	call	_TMR0_StopTimer	;wreg free
  6092  0033AA                     
  6093                           ;main.c: 919:     TMR0_Reload();
  6094  0033AA  ECD9  F01E         	call	_TMR0_Reload	;wreg free
  6095  0033AE  86C3               	bsf	195,3,c	;volatile
  6096  0033B0                     
  6097                           ;main.c: 923:     ADCON0bits.ON = 0;
  6098  0033B0  0103               	movlb	3	; () banked
  6099  0033B2  9FF3               	bcf	243,7,b	;volatile
  6100  0033B4                     
  6101                           ; BSR set to: 3
  6102                           ;main.c: 924:     DAC1CONbits.EN = 0;
  6103  0033B4  0100               	movlb	0	; () banked
  6104  0033B6  9F7F               	bcf	127,7,b	;volatile
  6105  0033B8                     
  6106                           ; BSR set to: 0
  6107                           ;main.c: 927:     ResetSwitches();
  6108  0033B8  EC07  F01F         	call	_ResetSwitches	;wreg free
  6109  0033BC                     
  6110                           ;main.c: 930:     mode = Idle;
  6111  0033BC  0E00               	movlw	0
  6112  0033BE  6E3F               	movwf	_mode^(0+1280),c
  6113  0033C0                     
  6114                           ;main.c: 931:     UART1_Write('x');
  6115  0033C0  0E78               	movlw	120
  6116  0033C2  EC3A  F01E         	call	_UART1_Write
  6117  0033C6  0012               	return		;funcret
  6118  0033C8                     __end_of_AUDIO_Passthrough:
  6119                           	callstack 0
  6120                           
  6121 ;; *************** function _UART1_Write *****************
  6122 ;; Defined at:
  6123 ;;		line 170 in file "mcc_generated_files/uart1.c"
  6124 ;; Parameters:    Size  Location     Type
  6125 ;;  txData          1    wreg     unsigned char 
  6126 ;; Auto vars:     Size  Location     Type
  6127 ;;  txData          1    1[COMRAM] unsigned char 
  6128 ;; Return value:  Size  Location     Type
  6129 ;;                  1    wreg      void 
  6130 ;; Registers used:
  6131 ;;		wreg
  6132 ;; Tracked objects:
  6133 ;;		On entry : 0/0
  6134 ;;		On exit  : 0/0
  6135 ;;		Unchanged: 0/0
  6136 ;; Data sizes:     COMRAM   BANK5   BANK6   BANK7   BANK8   BANK9  BANK10  BANK11  BANK12  BANK13  BANK14  BANK15  BANK1
      +6  BANK17  BANK18  BANK19  BANK20  BANK21  BANK22  BANK23  BANK24  BANK25  BANK26  BANK27  BANK28  BANK29  BANK30  BANK3
      +1  BANK32  BANK33  BANK34  BANK35  BANK36
  6137 ;;      Params:         0       0       0       0       0       0       0       0       0       0       0       0       
      +0       0       0       0       0       0       0       0       0       0       0       0       0       0       0       
      +0       0       0       0       0       0
  6138 ;;      Locals:         1       0       0       0       0       0       0       0       0       0       0       0       
      +0       0       0       0       0       0       0       0       0       0       0       0       0       0       0       
      +0       0       0       0       0       0
  6139 ;;      Temps:          0       0       0       0       0       0       0       0       0       0       0       0       
      +0       0       0       0       0       0       0       0       0       0       0       0       0       0       0       
      +0       0       0       0       0       0
  6140 ;;      Totals:         1       0       0       0       0       0       0       0       0       0       0       0       
      +0       0       0       0       0       0       0       0       0       0       0       0       0       0       0       
      +0       0       0       0       0       0
  6141 ;;Total ram usage:        1 bytes
  6142 ;; Hardware stack levels used:    1
  6143 ;; Hardware stack levels required when called:    3
  6144 ;; This function calls:
  6145 ;;		Nothing
  6146 ;; This function is called by:
  6147 ;;		_AUDIO_Erase
  6148 ;;		_AUDIO_Record
  6149 ;;		_AUDIO_Playback
  6150 ;;		_AUDIO_Passthrough
  6151 ;; This function uses a non-reentrant model
  6152 ;;
  6153                           
  6154                           	psect	text50
  6155  003C74                     __ptext50:
  6156                           	callstack 0
  6157  003C74                     _UART1_Write:
  6158                           	callstack 123
  6159                           
  6160                           ;incstack = 0
  6161                           ;UART1_Write@txData stored from wreg
  6162  003C74  6E02               	movwf	UART1_Write@txData^(0+1280),c
  6163  003C76                     l189:
  6164                           
  6165                           ;mcc_generated_files/uart1.c: 172:     while(0 == PIR4bits.U1TXIF)
  6166  003C76  A2B2               	btfss	178,1,c	;volatile
  6167  003C78  EF40  F01E         	goto	u71
  6168  003C7C  EF42  F01E         	goto	u70
  6169  003C80                     u71:
  6170  003C80  EF3B  F01E         	goto	l189
  6171  003C84                     u70:
  6172  003C84                     
  6173                           ;mcc_generated_files/uart1.c: 176:     U1TXB = txData;
  6174  003C84  0061  F408  F2A3   	movff	UART1_Write@txData,675	;volatile
  6175  003C8A  0012               	return		;funcret
  6176  003C8C                     __end_of_UART1_Write:
  6177                           	callstack 0
  6178                           
  6179 ;; *************** function _TMR0_StartTimer *****************
  6180 ;; Defined at:
  6181 ;;		line 96 in file "mcc_generated_files/tmr0.c"
  6182 ;; Parameters:    Size  Location     Type
  6183 ;;		None
  6184 ;; Auto vars:     Size  Location     Type
  6185 ;;		None
  6186 ;; Return value:  Size  Location     Type
  6187 ;;                  1    wreg      void 
  6188 ;; Registers used:
  6189 ;;		None
  6190 ;; Tracked objects:
  6191 ;;		On entry : 0/0
  6192 ;;		On exit  : 0/0
  6193 ;;		Unchanged: 0/0
  6194 ;; Data sizes:     COMRAM   BANK5   BANK6   BANK7   BANK8   BANK9  BANK10  BANK11  BANK12  BANK13  BANK14  BANK15  BANK1
      +6  BANK17  BANK18  BANK19  BANK20  BANK21  BANK22  BANK23  BANK24  BANK25  BANK26  BANK27  BANK28  BANK29  BANK30  BANK3
      +1  BANK32  BANK33  BANK34  BANK35  BANK36
  6195 ;;      Params:         0       0       0       0       0       0       0       0       0       0       0       0       
      +0       0       0       0       0       0       0       0       0       0       0       0       0       0       0       
      +0       0       0       0       0       0
  6196 ;;      Locals:         0       0       0       0       0       0       0       0       0       0       0       0       
      +0       0       0       0       0       0       0       0       0       0       0       0       0       0       0       
      +0       0       0       0       0       0
  6197 ;;      Temps:          0       0       0       0       0       0       0       0       0       0       0       0       
      +0       0       0       0       0       0       0       0       0       0       0       0       0       0       0       
      +0       0       0       0       0       0
  6198 ;;      Totals:         0       0       0       0       0       0       0       0       0       0       0       0       
      +0       0       0       0       0       0       0       0       0       0       0       0       0       0       0       
      +0       0       0       0       0       0
  6199 ;;Total ram usage:        0 bytes
  6200 ;; Hardware stack levels used:    1
  6201 ;; Hardware stack levels required when called:    3
  6202 ;; This function calls:
  6203 ;;		Nothing
  6204 ;; This function is called by:
  6205 ;;		_AUDIO_Record
  6206 ;;		_AUDIO_Playback
  6207 ;;		_AUDIO_Passthrough
  6208 ;; This function uses a non-reentrant model
  6209 ;;
  6210                           
  6211                           	psect	text51
  6212  003E40                     __ptext51:
  6213                           	callstack 0
  6214  003E40                     _TMR0_StartTimer:
  6215                           	callstack 123
  6216  003E40                     
  6217                           ;mcc_generated_files/tmr0.c: 99:     T0CON0bits.T0EN = 1;
  6218  003E40  0103               	movlb	3	; () banked
  6219  003E42  8F1A               	bsf	26,7,b	;volatile
  6220  003E44                     
  6221                           ; BSR set to: 3
  6222  003E44  0012               	return		;funcret
  6223  003E46                     __end_of_TMR0_StartTimer:
  6224                           	callstack 0
  6225                           
  6226 ;; *************** function _ResetDMA *****************
  6227 ;; Defined at:
  6228 ;;		line 230 in file "main.c"
  6229 ;; Parameters:    Size  Location     Type
  6230 ;;  dma             1    wreg     unsigned char 
  6231 ;; Auto vars:     Size  Location     Type
  6232 ;;  dma             1    1[COMRAM] unsigned char 
  6233 ;; Return value:  Size  Location     Type
  6234 ;;                  1    wreg      void 
  6235 ;; Registers used:
  6236 ;;		wreg, status,2, status,0
  6237 ;; Tracked objects:
  6238 ;;		On entry : 0/0
  6239 ;;		On exit  : 0/0
  6240 ;;		Unchanged: 0/0
  6241 ;; Data sizes:     COMRAM   BANK5   BANK6   BANK7   BANK8   BANK9  BANK10  BANK11  BANK12  BANK13  BANK14  BANK15  BANK1
      +6  BANK17  BANK18  BANK19  BANK20  BANK21  BANK22  BANK23  BANK24  BANK25  BANK26  BANK27  BANK28  BANK29  BANK30  BANK3
      +1  BANK32  BANK33  BANK34  BANK35  BANK36
  6242 ;;      Params:         0       0       0       0       0       0       0       0       0       0       0       0       
      +0       0       0       0       0       0       0       0       0       0       0       0       0       0       0       
      +0       0       0       0       0       0
  6243 ;;      Locals:         1       0       0       0       0       0       0       0       0       0       0       0       
      +0       0       0       0       0       0       0       0       0       0       0       0       0       0       0       
      +0       0       0       0       0       0
  6244 ;;      Temps:          0       0       0       0       0       0       0       0       0       0       0       0       
      +0       0       0       0       0       0       0       0       0       0       0       0       0       0       0       
      +0       0       0       0       0       0
  6245 ;;      Totals:         1       0       0       0       0       0       0       0       0       0       0       0       
      +0       0       0       0       0       0       0       0       0       0       0       0       0       0       0       
      +0       0       0       0       0       0
  6246 ;;Total ram usage:        1 bytes
  6247 ;; Hardware stack levels used:    1
  6248 ;; Hardware stack levels required when called:    3
  6249 ;; This function calls:
  6250 ;;		Nothing
  6251 ;; This function is called by:
  6252 ;;		_AUDIO_Record
  6253 ;;		_AUDIO_Playback
  6254 ;;		_AUDIO_Passthrough
  6255 ;; This function uses a non-reentrant model
  6256 ;;
  6257                           
  6258                           	psect	text52
  6259  003AA2                     __ptext52:
  6260                           	callstack 0
  6261  003AA2                     _ResetDMA:
  6262                           	callstack 123
  6263                           
  6264                           ; BSR set to: 3
  6265                           ;incstack = 0
  6266                           ;ResetDMA@dma stored from wreg
  6267  003AA2  6E02               	movwf	ResetDMA@dma^(0+1280),c
  6268  003AA4                     
  6269                           ;main.c: 230: void __attribute__((inline)) ResetDMA(uint8_t dma);main.c: 231: {;main.c: 
      +                          233:     if(dma > 6 -1)
  6270  003AA4  0E05               	movlw	5
  6271  003AA6  6402               	cpfsgt	ResetDMA@dma^(0+1280),c
  6272  003AA8  EF58  F01D         	goto	u201
  6273  003AAC  EF5A  F01D         	goto	u200
  6274  003AB0                     u201:
  6275  003AB0  EF5C  F01D         	goto	l1913
  6276  003AB4                     u200:
  6277  003AB4  EF62  F01D         	goto	l1914
  6278  003AB8                     l1913:
  6279                           
  6280                           ;main.c: 236:     DMASELECT = dma;
  6281  003AB8  0061  F408  F0E8   	movff	ResetDMA@dma,232	;volatile
  6282                           
  6283                           ;main.c: 237:     DMAnCON0bits.EN = 0;
  6284  003ABE  0100               	movlb	0	; () banked
  6285  003AC0  9FFC               	bcf	252,7,b	;volatile
  6286                           
  6287                           ;main.c: 238:     DMAnCON0bits.EN = 1;
  6288  003AC2  8FFC               	bsf	252,7,b	;volatile
  6289  003AC4                     l1914:
  6290  003AC4  0012               	return		;funcret
  6291  003AC6                     __end_of_ResetDMA:
  6292                           	callstack 0
  6293                           
  6294 ;; *************** function _DMA1_StopTransfer *****************
  6295 ;; Defined at:
  6296 ;;		line 163 in file "mcc_generated_files/dma1.c"
  6297 ;; Parameters:    Size  Location     Type
  6298 ;;		None
  6299 ;; Auto vars:     Size  Location     Type
  6300 ;;		None
  6301 ;; Return value:  Size  Location     Type
  6302 ;;                  1    wreg      void 
  6303 ;; Registers used:
  6304 ;;		wreg, status,2
  6305 ;; Tracked objects:
  6306 ;;		On entry : 0/0
  6307 ;;		On exit  : 0/0
  6308 ;;		Unchanged: 0/0
  6309 ;; Data sizes:     COMRAM   BANK5   BANK6   BANK7   BANK8   BANK9  BANK10  BANK11  BANK12  BANK13  BANK14  BANK15  BANK1
      +6  BANK17  BANK18  BANK19  BANK20  BANK21  BANK22  BANK23  BANK24  BANK25  BANK26  BANK27  BANK28  BANK29  BANK30  BANK3
      +1  BANK32  BANK33  BANK34  BANK35  BANK36
  6310 ;;      Params:         0       0       0       0       0       0       0       0       0       0       0       0       
      +0       0       0       0       0       0       0       0       0       0       0       0       0       0       0       
      +0       0       0       0       0       0
  6311 ;;      Locals:         0       0       0       0       0       0       0       0       0       0       0       0       
      +0       0       0       0       0       0       0       0       0       0       0       0       0       0       0       
      +0       0       0       0       0       0
  6312 ;;      Temps:          0       0       0       0       0       0       0       0       0       0       0       0       
      +0       0       0       0       0       0       0       0       0       0       0       0       0       0       0       
      +0       0       0       0       0       0
  6313 ;;      Totals:         0       0       0       0       0       0       0       0       0       0       0       0       
      +0       0       0       0       0       0       0       0       0       0       0       0       0       0       0       
      +0       0       0       0       0       0
  6314 ;;Total ram usage:        0 bytes
  6315 ;; Hardware stack levels used:    1
  6316 ;; Hardware stack levels required when called:    3
  6317 ;; This function calls:
  6318 ;;		Nothing
  6319 ;; This function is called by:
  6320 ;;		_AUDIO_Passthrough
  6321 ;; This function uses a non-reentrant model
  6322 ;;
  6323                           
  6324                           	psect	text53
  6325  003DD8                     __ptext53:
  6326                           	callstack 0
  6327  003DD8                     _DMA1_StopTransfer:
  6328                           	callstack 123
  6329  003DD8                     
  6330                           ;mcc_generated_files/dma1.c: 165:     DMASELECT = 0x00;
  6331  003DD8  0E00               	movlw	0
  6332  003DDA  0100               	movlb	0	; () banked
  6333  003DDC  6FE8               	movwf	232,b	;volatile
  6334  003DDE                     
  6335                           ; BSR set to: 0
  6336                           ;mcc_generated_files/dma1.c: 166:  DMAnCON0bits.SIRQEN = 0;
  6337  003DDE  9DFC               	bcf	252,6,b	;volatile
  6338  003DE0                     
  6339                           ; BSR set to: 0
  6340                           ;mcc_generated_files/dma1.c: 167:  DMAnCON0bits.DGO = 0;
  6341  003DE0  9BFC               	bcf	252,5,b	;volatile
  6342  003DE2                     
  6343                           ; BSR set to: 0
  6344  003DE2  0012               	return		;funcret
  6345  003DE4                     __end_of_DMA1_StopTransfer:
  6346                           	callstack 0
  6347                           
  6348 ;; *************** function _DMA1_StartTransferWithTrigger *****************
  6349 ;; Defined at:
  6350 ;;		line 157 in file "mcc_generated_files/dma1.c"
  6351 ;; Parameters:    Size  Location     Type
  6352 ;;		None
  6353 ;; Auto vars:     Size  Location     Type
  6354 ;;		None
  6355 ;; Return value:  Size  Location     Type
  6356 ;;                  1    wreg      void 
  6357 ;; Registers used:
  6358 ;;		wreg, status,2
  6359 ;; Tracked objects:
  6360 ;;		On entry : 0/0
  6361 ;;		On exit  : 0/0
  6362 ;;		Unchanged: 0/0
  6363 ;; Data sizes:     COMRAM   BANK5   BANK6   BANK7   BANK8   BANK9  BANK10  BANK11  BANK12  BANK13  BANK14  BANK15  BANK1
      +6  BANK17  BANK18  BANK19  BANK20  BANK21  BANK22  BANK23  BANK24  BANK25  BANK26  BANK27  BANK28  BANK29  BANK30  BANK3
      +1  BANK32  BANK33  BANK34  BANK35  BANK36
  6364 ;;      Params:         0       0       0       0       0       0       0       0       0       0       0       0       
      +0       0       0       0       0       0       0       0       0       0       0       0       0       0       0       
      +0       0       0       0       0       0
  6365 ;;      Locals:         0       0       0       0       0       0       0       0       0       0       0       0       
      +0       0       0       0       0       0       0       0       0       0       0       0       0       0       0       
      +0       0       0       0       0       0
  6366 ;;      Temps:          0       0       0       0       0       0       0       0       0       0       0       0       
      +0       0       0       0       0       0       0       0       0       0       0       0       0       0       0       
      +0       0       0       0       0       0
  6367 ;;      Totals:         0       0       0       0       0       0       0       0       0       0       0       0       
      +0       0       0       0       0       0       0       0       0       0       0       0       0       0       0       
      +0       0       0       0       0       0
  6368 ;;Total ram usage:        0 bytes
  6369 ;; Hardware stack levels used:    1
  6370 ;; Hardware stack levels required when called:    3
  6371 ;; This function calls:
  6372 ;;		Nothing
  6373 ;; This function is called by:
  6374 ;;		_AUDIO_Passthrough
  6375 ;; This function uses a non-reentrant model
  6376 ;;
  6377                           
  6378                           	psect	text54
  6379  003DFA                     __ptext54:
  6380                           	callstack 0
  6381  003DFA                     _DMA1_StartTransferWithTrigger:
  6382                           	callstack 123
  6383  003DFA                     
  6384                           ;mcc_generated_files/dma1.c: 159:     DMASELECT = 0x00;
  6385  003DFA  0E00               	movlw	0
  6386  003DFC  0100               	movlb	0	; () banked
  6387  003DFE  6FE8               	movwf	232,b	;volatile
  6388  003E00                     
  6389                           ; BSR set to: 0
  6390                           ;mcc_generated_files/dma1.c: 160:  DMAnCON0bits.SIRQEN = 1;
  6391  003E00  8DFC               	bsf	252,6,b	;volatile
  6392  003E02                     
  6393                           ; BSR set to: 0
  6394  003E02  0012               	return		;funcret
  6395  003E04                     __end_of_DMA1_StartTransferWithTrigger:
  6396                           	callstack 0
  6397                           
  6398 ;; *************** function _AUDIO_Idle *****************
  6399 ;; Defined at:
  6400 ;;		line 531 in file "main.c"
  6401 ;; Parameters:    Size  Location     Type
  6402 ;;		None
  6403 ;; Auto vars:     Size  Location     Type
  6404 ;;		None
  6405 ;; Return value:  Size  Location     Type
  6406 ;;                  1    wreg      void 
  6407 ;; Registers used:
  6408 ;;		wreg, status,2, cstack
  6409 ;; Tracked objects:
  6410 ;;		On entry : 0/0
  6411 ;;		On exit  : 0/0
  6412 ;;		Unchanged: 0/0
  6413 ;; Data sizes:     COMRAM   BANK5   BANK6   BANK7   BANK8   BANK9  BANK10  BANK11  BANK12  BANK13  BANK14  BANK15  BANK1
      +6  BANK17  BANK18  BANK19  BANK20  BANK21  BANK22  BANK23  BANK24  BANK25  BANK26  BANK27  BANK28  BANK29  BANK30  BANK3
      +1  BANK32  BANK33  BANK34  BANK35  BANK36
  6414 ;;      Params:         0       0       0       0       0       0       0       0       0       0       0       0       
      +0       0       0       0       0       0       0       0       0       0       0       0       0       0       0       
      +0       0       0       0       0       0
  6415 ;;      Locals:         0       0       0       0       0       0       0       0       0       0       0       0       
      +0       0       0       0       0       0       0       0       0       0       0       0       0       0       0       
      +0       0       0       0       0       0
  6416 ;;      Temps:          0       0       0       0       0       0       0       0       0       0       0       0       
      +0       0       0       0       0       0       0       0       0       0       0       0       0       0       0       
      +0       0       0       0       0       0
  6417 ;;      Totals:         0       0       0       0       0       0       0       0       0       0       0       0       
      +0       0       0       0       0       0       0       0       0       0       0       0       0       0       0       
      +0       0       0       0       0       0
  6418 ;;Total ram usage:        0 bytes
  6419 ;; Hardware stack levels used:    1
  6420 ;; Hardware stack levels required when called:    6
  6421 ;; This function calls:
  6422 ;;		_LED0_Blink_Start
  6423 ;;		_LED0_Blink_Stop
  6424 ;;		_TMR1_HasOverflowOccured
  6425 ;;		_TMR1_StopAndStartTimer
  6426 ;;		_TMR1_StopTimer
  6427 ;; This function is called by:
  6428 ;;		_main
  6429 ;; This function uses a non-reentrant model
  6430 ;;
  6431                           
  6432                           	psect	text55
  6433  002C0E                     __ptext55:
  6434                           	callstack 0
  6435  002C0E                     _AUDIO_Idle:
  6436                           	callstack 121
  6437  002C0E                     
  6438                           ;main.c: 538:     if(sw0_pressed) {
  6439  002C0E  5046               	movf	_sw0_pressed^(0+1280),w,c
  6440  002C10  B4D8               	btfsc	status,2,c
  6441  002C12  EF0D  F016         	goto	u1531
  6442  002C16  EF0F  F016         	goto	u1530
  6443  002C1A                     u1531:
  6444  002C1A  EF5F  F016         	goto	l5275
  6445  002C1E                     u1530:
  6446  002C1E                     
  6447                           ;main.c: 539:         sw0_pressed = 0;
  6448  002C1E  0E00               	movlw	0
  6449  002C20  6E46               	movwf	_sw0_pressed^(0+1280),c
  6450                           
  6451                           ;main.c: 540:         sw0_released = 0;
  6452  002C22  0E00               	movlw	0
  6453  002C24  6E45               	movwf	_sw0_released^(0+1280),c
  6454  002C26                     
  6455                           ;main.c: 541:         TMR1_StopAndStartTimer(0x48E5);
  6456  002C26  0E48               	movlw	72
  6457  002C28  6E05               	movwf	(TMR1_StopAndStartTimer@delay+1)^(0+1280),c
  6458  002C2A  0EE5               	movlw	229
  6459  002C2C  6E04               	movwf	TMR1_StopAndStartTimer@delay^(0+1280),c
  6460  002C2E  EC46  F01E         	call	_TMR1_StopAndStartTimer	;wreg free
  6461                           
  6462                           ;main.c: 542:         while(!TMR1_HasOverflowOccured()){
  6463  002C32  EF4F  F016         	goto	l5265
  6464  002C36                     l5239:
  6465                           
  6466                           ;main.c: 543:             if(sw0_released){
  6467  002C36  5045               	movf	_sw0_released^(0+1280),w,c
  6468  002C38  B4D8               	btfsc	status,2,c
  6469  002C3A  EF21  F016         	goto	u1541
  6470  002C3E  EF23  F016         	goto	u1540
  6471  002C42                     u1541:
  6472  002C42  EF4F  F016         	goto	l5265
  6473  002C46                     u1540:
  6474  002C46                     
  6475                           ;main.c: 544:                 sw0_released = 0;
  6476  002C46  0E00               	movlw	0
  6477  002C48  6E45               	movwf	_sw0_released^(0+1280),c
  6478  002C4A                     
  6479                           ;main.c: 545:                 LED0_Blink_Start();
  6480  002C4A  EC2C  F01F         	call	_LED0_Blink_Start	;wreg free
  6481                           
  6482                           ;main.c: 546:                 TMR1_StopAndStartTimer(0xE17B);
  6483  002C4E  0EE1               	movlw	225
  6484  002C50  6E05               	movwf	(TMR1_StopAndStartTimer@delay+1)^(0+1280),c
  6485  002C52  0E7B               	movlw	123
  6486  002C54  6E04               	movwf	TMR1_StopAndStartTimer@delay^(0+1280),c
  6487  002C56  EC46  F01E         	call	_TMR1_StopAndStartTimer	;wreg free
  6488                           
  6489                           ;main.c: 547:                 while(!TMR1_HasOverflowOccured()){
  6490  002C5A  EF41  F016         	goto	l5255
  6491  002C5E                     l5245:
  6492                           
  6493                           ;main.c: 548:                     if(sw0_pressed) {
  6494  002C5E  5046               	movf	_sw0_pressed^(0+1280),w,c
  6495  002C60  B4D8               	btfsc	status,2,c
  6496  002C62  EF35  F016         	goto	u1551
  6497  002C66  EF37  F016         	goto	u1550
  6498  002C6A                     u1551:
  6499  002C6A  EF41  F016         	goto	l5255
  6500  002C6E                     u1550:
  6501  002C6E                     
  6502                           ;main.c: 549:                         sw0_pressed = 0;
  6503  002C6E  0E00               	movlw	0
  6504  002C70  6E46               	movwf	_sw0_pressed^(0+1280),c
  6505                           
  6506                           ;main.c: 550:                         mode = Record;
  6507  002C72  0E01               	movlw	1
  6508  002C74  6E3F               	movwf	_mode^(0+1280),c
  6509  002C76                     l5249:
  6510                           
  6511                           ;main.c: 551:                         TMR1_StopTimer();
  6512  002C76  EC35  F01F         	call	_TMR1_StopTimer	;wreg free
  6513  002C7A                     
  6514                           ;main.c: 552:                         LED0_Blink_Stop();
  6515  002C7A  EC14  F01F         	call	_LED0_Blink_Stop	;wreg free
  6516  002C7E  EF8D  F016         	goto	l2005
  6517  002C82                     l5255:
  6518                           
  6519                           ;main.c: 547:                 while(!TMR1_HasOverflowOccured()){
  6520  002C82  EC7D  F01E         	call	_TMR1_HasOverflowOccured	;wreg free
  6521  002C86  0900               	iorlw	0
  6522  002C88  B4D8               	btfsc	status,2,c
  6523  002C8A  EF49  F016         	goto	u1561
  6524  002C8E  EF4B  F016         	goto	u1560
  6525  002C92                     u1561:
  6526  002C92  EF2F  F016         	goto	l5245
  6527  002C96                     u1560:
  6528  002C96                     
  6529                           ;main.c: 556:                 mode = Playback;
  6530  002C96  0E02               	movlw	2
  6531  002C98  6E3F               	movwf	_mode^(0+1280),c
  6532  002C9A  EF3B  F016         	goto	l5249
  6533  002C9E                     l5265:
  6534                           
  6535                           ;main.c: 542:         while(!TMR1_HasOverflowOccured()){
  6536  002C9E  EC7D  F01E         	call	_TMR1_HasOverflowOccured	;wreg free
  6537  002CA2  0900               	iorlw	0
  6538  002CA4  B4D8               	btfsc	status,2,c
  6539  002CA6  EF57  F016         	goto	u1571
  6540  002CAA  EF59  F016         	goto	u1570
  6541  002CAE                     u1571:
  6542  002CAE  EF1B  F016         	goto	l5239
  6543  002CB2                     u1570:
  6544  002CB2                     
  6545                           ;main.c: 562:         mode = Erase;
  6546  002CB2  0E03               	movlw	3
  6547  002CB4  6E3F               	movwf	_mode^(0+1280),c
  6548  002CB6                     l5269:
  6549                           
  6550                           ;main.c: 563:         TMR1_StopTimer();
  6551  002CB6  EC35  F01F         	call	_TMR1_StopTimer	;wreg free
  6552  002CBA  EF8D  F016         	goto	l2005
  6553  002CBE                     l5275:
  6554  002CBE  5044               	movf	_sw1_pressed^(0+1280),w,c
  6555  002CC0  B4D8               	btfsc	status,2,c
  6556  002CC2  EF65  F016         	goto	u1581
  6557  002CC6  EF67  F016         	goto	u1580
  6558  002CCA                     u1581:
  6559  002CCA  EF8D  F016         	goto	l2005
  6560  002CCE                     u1580:
  6561  002CCE                     
  6562                           ;main.c: 570:         sw1_pressed = 0;
  6563  002CCE  0E00               	movlw	0
  6564  002CD0  6E44               	movwf	_sw1_pressed^(0+1280),c
  6565                           
  6566                           ;main.c: 571:         sw1_released = 0;
  6567  002CD2  0E00               	movlw	0
  6568  002CD4  6E43               	movwf	_sw1_released^(0+1280),c
  6569  002CD6                     
  6570                           ;main.c: 572:         TMR1_StopAndStartTimer(0x48E5);
  6571  002CD6  0E48               	movlw	72
  6572  002CD8  6E05               	movwf	(TMR1_StopAndStartTimer@delay+1)^(0+1280),c
  6573  002CDA  0EE5               	movlw	229
  6574  002CDC  6E04               	movwf	TMR1_StopAndStartTimer@delay^(0+1280),c
  6575  002CDE  EC46  F01E         	call	_TMR1_StopAndStartTimer	;wreg free
  6576                           
  6577                           ;main.c: 573:         while(!TMR1_HasOverflowOccured()){
  6578  002CE2  EF7F  F016         	goto	l5287
  6579  002CE6                     l5281:
  6580                           
  6581                           ;main.c: 574:             if(sw1_released) {
  6582  002CE6  5043               	movf	_sw1_released^(0+1280),w,c
  6583  002CE8  B4D8               	btfsc	status,2,c
  6584  002CEA  EF79  F016         	goto	u1591
  6585  002CEE  EF7B  F016         	goto	u1590
  6586  002CF2                     u1591:
  6587  002CF2  EF7F  F016         	goto	l5287
  6588  002CF6                     u1590:
  6589  002CF6                     
  6590                           ;main.c: 575:                 sw1_released = 0;
  6591  002CF6  0E00               	movlw	0
  6592  002CF8  6E43               	movwf	_sw1_released^(0+1280),c
  6593  002CFA  EF8D  F016         	goto	l2005
  6594  002CFE                     l5287:
  6595                           
  6596                           ;main.c: 573:         while(!TMR1_HasOverflowOccured()){
  6597  002CFE  EC7D  F01E         	call	_TMR1_HasOverflowOccured	;wreg free
  6598  002D02  0900               	iorlw	0
  6599  002D04  B4D8               	btfsc	status,2,c
  6600  002D06  EF87  F016         	goto	u1601
  6601  002D0A  EF89  F016         	goto	u1600
  6602  002D0E                     u1601:
  6603  002D0E  EF73  F016         	goto	l5281
  6604  002D12                     u1600:
  6605  002D12                     
  6606                           ;main.c: 579:         mode = Passthrough;
  6607  002D12  0E04               	movlw	4
  6608  002D14  6E3F               	movwf	_mode^(0+1280),c
  6609  002D16  EF5B  F016         	goto	l5269
  6610  002D1A                     l2005:
  6611  002D1A  0012               	return		;funcret
  6612  002D1C                     __end_of_AUDIO_Idle:
  6613                           	callstack 0
  6614                           
  6615 ;; *************** function _TMR1_StopAndStartTimer *****************
  6616 ;; Defined at:
  6617 ;;		line 201 in file "main.c"
  6618 ;; Parameters:    Size  Location     Type
  6619 ;;  delay           2    3[COMRAM] unsigned short 
  6620 ;; Auto vars:     Size  Location     Type
  6621 ;;		None
  6622 ;; Return value:  Size  Location     Type
  6623 ;;                  1    wreg      void 
  6624 ;; Registers used:
  6625 ;;		wreg, status,2, cstack
  6626 ;; Tracked objects:
  6627 ;;		On entry : 0/0
  6628 ;;		On exit  : 0/0
  6629 ;;		Unchanged: 0/0
  6630 ;; Data sizes:     COMRAM   BANK5   BANK6   BANK7   BANK8   BANK9  BANK10  BANK11  BANK12  BANK13  BANK14  BANK15  BANK1
      +6  BANK17  BANK18  BANK19  BANK20  BANK21  BANK22  BANK23  BANK24  BANK25  BANK26  BANK27  BANK28  BANK29  BANK30  BANK3
      +1  BANK32  BANK33  BANK34  BANK35  BANK36
  6631 ;;      Params:         2       0       0       0       0       0       0       0       0       0       0       0       
      +0       0       0       0       0       0       0       0       0       0       0       0       0       0       0       
      +0       0       0       0       0       0
  6632 ;;      Locals:         0       0       0       0       0       0       0       0       0       0       0       0       
      +0       0       0       0       0       0       0       0       0       0       0       0       0       0       0       
      +0       0       0       0       0       0
  6633 ;;      Temps:          0       0       0       0       0       0       0       0       0       0       0       0       
      +0       0       0       0       0       0       0       0       0       0       0       0       0       0       0       
      +0       0       0       0       0       0
  6634 ;;      Totals:         2       0       0       0       0       0       0       0       0       0       0       0       
      +0       0       0       0       0       0       0       0       0       0       0       0       0       0       0       
      +0       0       0       0       0       0
  6635 ;;Total ram usage:        2 bytes
  6636 ;; Hardware stack levels used:    1
  6637 ;; Hardware stack levels required when called:    4
  6638 ;; This function calls:
  6639 ;;		_TMR1_StartTimer
  6640 ;;		_TMR1_StopTimer
  6641 ;;		_TMR1_WriteTimer
  6642 ;; This function is called by:
  6643 ;;		_AUDIO_Idle
  6644 ;; This function uses a non-reentrant model
  6645 ;;
  6646                           
  6647                           	psect	text56
  6648  003C8C                     __ptext56:
  6649                           	callstack 0
  6650  003C8C                     _TMR1_StopAndStartTimer:
  6651                           	callstack 122
  6652  003C8C                     
  6653                           ;main.c: 201: __attribute__((inline)) void TMR1_StopAndStartTimer(uint16_t delay);main.c
      +                          : 202: {;main.c: 204:     PIR3bits.TMR1IF = 0;
  6654  003C8C  98B1               	bcf	177,4,c	;volatile
  6655  003C8E                     
  6656                           ;main.c: 207:     TMR1_StopTimer();
  6657  003C8E  EC35  F01F         	call	_TMR1_StopTimer	;wreg free
  6658  003C92                     
  6659                           ;main.c: 208:     TMR1_WriteTimer(delay);
  6660  003C92  C504  F502         	movff	TMR1_StopAndStartTimer@delay,TMR1_WriteTimer@timerVal
  6661  003C96  C505  F503         	movff	TMR1_StopAndStartTimer@delay+1,TMR1_WriteTimer@timerVal+1
  6662  003C9A  ECD9  F01C         	call	_TMR1_WriteTimer	;wreg free
  6663  003C9E                     
  6664                           ;main.c: 209:     TMR1_StartTimer();
  6665  003C9E  EC23  F01F         	call	_TMR1_StartTimer	;wreg free
  6666  003CA2  0012               	return		;funcret
  6667  003CA4                     __end_of_TMR1_StopAndStartTimer:
  6668                           	callstack 0
  6669                           
  6670 ;; *************** function _TMR1_WriteTimer *****************
  6671 ;; Defined at:
  6672 ;;		line 120 in file "mcc_generated_files/tmr1.c"
  6673 ;; Parameters:    Size  Location     Type
  6674 ;;  timerVal        2    1[COMRAM] unsigned short 
  6675 ;; Auto vars:     Size  Location     Type
  6676 ;;		None
  6677 ;; Return value:  Size  Location     Type
  6678 ;;                  1    wreg      void 
  6679 ;; Registers used:
  6680 ;;		wreg, status,2
  6681 ;; Tracked objects:
  6682 ;;		On entry : 0/0
  6683 ;;		On exit  : 0/0
  6684 ;;		Unchanged: 0/0
  6685 ;; Data sizes:     COMRAM   BANK5   BANK6   BANK7   BANK8   BANK9  BANK10  BANK11  BANK12  BANK13  BANK14  BANK15  BANK1
      +6  BANK17  BANK18  BANK19  BANK20  BANK21  BANK22  BANK23  BANK24  BANK25  BANK26  BANK27  BANK28  BANK29  BANK30  BANK3
      +1  BANK32  BANK33  BANK34  BANK35  BANK36
  6686 ;;      Params:         2       0       0       0       0       0       0       0       0       0       0       0       
      +0       0       0       0       0       0       0       0       0       0       0       0       0       0       0       
      +0       0       0       0       0       0
  6687 ;;      Locals:         0       0       0       0       0       0       0       0       0       0       0       0       
      +0       0       0       0       0       0       0       0       0       0       0       0       0       0       0       
      +0       0       0       0       0       0
  6688 ;;      Temps:          0       0       0       0       0       0       0       0       0       0       0       0       
      +0       0       0       0       0       0       0       0       0       0       0       0       0       0       0       
      +0       0       0       0       0       0
  6689 ;;      Totals:         2       0       0       0       0       0       0       0       0       0       0       0       
      +0       0       0       0       0       0       0       0       0       0       0       0       0       0       0       
      +0       0       0       0       0       0
  6690 ;;Total ram usage:        2 bytes
  6691 ;; Hardware stack levels used:    1
  6692 ;; Hardware stack levels required when called:    3
  6693 ;; This function calls:
  6694 ;;		Nothing
  6695 ;; This function is called by:
  6696 ;;		_TMR1_StopAndStartTimer
  6697 ;;		_TMR1_Reload
  6698 ;; This function uses a non-reentrant model
  6699 ;;
  6700                           
  6701                           	psect	text57
  6702  0039B2                     __ptext57:
  6703                           	callstack 0
  6704  0039B2                     _TMR1_WriteTimer:
  6705                           	callstack 122
  6706  0039B2                     
  6707                           ;mcc_generated_files/tmr1.c: 120: void TMR1_WriteTimer(uint16_t timerVal);mcc_generated_
      +                          files/tmr1.c: 121: {;mcc_generated_files/tmr1.c: 122:     if (T1CONbits.NOT_SYNC == 1)
  6708  0039B2  0103               	movlb	3	; () banked
  6709  0039B4  A51E               	btfss	30,2,b	;volatile
  6710  0039B6  EFDF  F01C         	goto	u1361
  6711  0039BA  EFE1  F01C         	goto	u1360
  6712  0039BE                     u1361:
  6713  0039BE  EFEA  F01C         	goto	l5011
  6714  0039C2                     u1360:
  6715  0039C2                     
  6716                           ; BSR set to: 3
  6717                           ;mcc_generated_files/tmr1.c: 123:     {;mcc_generated_files/tmr1.c: 125:         T1CONbi
      +                          ts.TMR1ON = 0;
  6718  0039C2  911E               	bcf	30,0,b	;volatile
  6719  0039C4                     
  6720                           ; BSR set to: 3
  6721                           ;mcc_generated_files/tmr1.c: 128:         TMR1H = (timerVal >> 8);
  6722  0039C4  5003               	movf	(TMR1_WriteTimer@timerVal+1)^(0+1280),w,c
  6723  0039C6  6F1D               	movwf	29,b	;volatile
  6724  0039C8                     
  6725                           ; BSR set to: 3
  6726                           ;mcc_generated_files/tmr1.c: 129:         TMR1L = timerVal;
  6727  0039C8  0061  F408  F31C   	movff	TMR1_WriteTimer@timerVal,796	;volatile
  6728  0039CE                     
  6729                           ; BSR set to: 3
  6730                           ;mcc_generated_files/tmr1.c: 132:         T1CONbits.TMR1ON =1;
  6731  0039CE  811E               	bsf	30,0,b	;volatile
  6732                           
  6733                           ;mcc_generated_files/tmr1.c: 133:     }
  6734  0039D0  EFEF  F01C         	goto	l672
  6735  0039D4                     l5011:
  6736                           
  6737                           ; BSR set to: 3
  6738                           ;mcc_generated_files/tmr1.c: 135:     {;mcc_generated_files/tmr1.c: 137:         TMR1H =
      +                           (timerVal >> 8);
  6739  0039D4  5003               	movf	(TMR1_WriteTimer@timerVal+1)^(0+1280),w,c
  6740  0039D6  6F1D               	movwf	29,b	;volatile
  6741  0039D8                     
  6742                           ; BSR set to: 3
  6743                           ;mcc_generated_files/tmr1.c: 138:         TMR1L = timerVal;
  6744  0039D8  0061  F408  F31C   	movff	TMR1_WriteTimer@timerVal,796	;volatile
  6745  0039DE                     l672:
  6746                           
  6747                           ; BSR set to: 3
  6748  0039DE  0012               	return		;funcret
  6749  0039E0                     __end_of_TMR1_WriteTimer:
  6750                           	callstack 0
  6751                           
  6752 ;; *************** function _TMR1_StartTimer *****************
  6753 ;; Defined at:
  6754 ;;		line 92 in file "mcc_generated_files/tmr1.c"
  6755 ;; Parameters:    Size  Location     Type
  6756 ;;		None
  6757 ;; Auto vars:     Size  Location     Type
  6758 ;;		None
  6759 ;; Return value:  Size  Location     Type
  6760 ;;                  1    wreg      void 
  6761 ;; Registers used:
  6762 ;;		None
  6763 ;; Tracked objects:
  6764 ;;		On entry : 0/0
  6765 ;;		On exit  : 0/0
  6766 ;;		Unchanged: 0/0
  6767 ;; Data sizes:     COMRAM   BANK5   BANK6   BANK7   BANK8   BANK9  BANK10  BANK11  BANK12  BANK13  BANK14  BANK15  BANK1
      +6  BANK17  BANK18  BANK19  BANK20  BANK21  BANK22  BANK23  BANK24  BANK25  BANK26  BANK27  BANK28  BANK29  BANK30  BANK3
      +1  BANK32  BANK33  BANK34  BANK35  BANK36
  6768 ;;      Params:         0       0       0       0       0       0       0       0       0       0       0       0       
      +0       0       0       0       0       0       0       0       0       0       0       0       0       0       0       
      +0       0       0       0       0       0
  6769 ;;      Locals:         0       0       0       0       0       0       0       0       0       0       0       0       
      +0       0       0       0       0       0       0       0       0       0       0       0       0       0       0       
      +0       0       0       0       0       0
  6770 ;;      Temps:          0       0       0       0       0       0       0       0       0       0       0       0       
      +0       0       0       0       0       0       0       0       0       0       0       0       0       0       0       
      +0       0       0       0       0       0
  6771 ;;      Totals:         0       0       0       0       0       0       0       0       0       0       0       0       
      +0       0       0       0       0       0       0       0       0       0       0       0       0       0       0       
      +0       0       0       0       0       0
  6772 ;;Total ram usage:        0 bytes
  6773 ;; Hardware stack levels used:    1
  6774 ;; Hardware stack levels required when called:    3
  6775 ;; This function calls:
  6776 ;;		Nothing
  6777 ;; This function is called by:
  6778 ;;		_TMR1_StopAndStartTimer
  6779 ;; This function uses a non-reentrant model
  6780 ;;
  6781                           
  6782                           	psect	text58
  6783  003E46                     __ptext58:
  6784                           	callstack 0
  6785  003E46                     _TMR1_StartTimer:
  6786                           	callstack 122
  6787  003E46                     
  6788                           ;mcc_generated_files/tmr1.c: 95:     T1CONbits.TMR1ON = 1;
  6789  003E46  0103               	movlb	3	; () banked
  6790  003E48  811E               	bsf	30,0,b	;volatile
  6791  003E4A                     
  6792                           ; BSR set to: 3
  6793  003E4A  0012               	return		;funcret
  6794  003E4C                     __end_of_TMR1_StartTimer:
  6795                           	callstack 0
  6796                           
  6797 ;; *************** function _TMR1_HasOverflowOccured *****************
  6798 ;; Defined at:
  6799 ;;		line 157 in file "mcc_generated_files/tmr1.c"
  6800 ;; Parameters:    Size  Location     Type
  6801 ;;		None
  6802 ;; Auto vars:     Size  Location     Type
  6803 ;;		None
  6804 ;; Return value:  Size  Location     Type
  6805 ;;                  1    wreg      _Bool 
  6806 ;; Registers used:
  6807 ;;		wreg
  6808 ;; Tracked objects:
  6809 ;;		On entry : 0/0
  6810 ;;		On exit  : 0/0
  6811 ;;		Unchanged: 0/0
  6812 ;; Data sizes:     COMRAM   BANK5   BANK6   BANK7   BANK8   BANK9  BANK10  BANK11  BANK12  BANK13  BANK14  BANK15  BANK1
      +6  BANK17  BANK18  BANK19  BANK20  BANK21  BANK22  BANK23  BANK24  BANK25  BANK26  BANK27  BANK28  BANK29  BANK30  BANK3
      +1  BANK32  BANK33  BANK34  BANK35  BANK36
  6813 ;;      Params:         0       0       0       0       0       0       0       0       0       0       0       0       
      +0       0       0       0       0       0       0       0       0       0       0       0       0       0       0       
      +0       0       0       0       0       0
  6814 ;;      Locals:         0       0       0       0       0       0       0       0       0       0       0       0       
      +0       0       0       0       0       0       0       0       0       0       0       0       0       0       0       
      +0       0       0       0       0       0
  6815 ;;      Temps:          0       0       0       0       0       0       0       0       0       0       0       0       
      +0       0       0       0       0       0       0       0       0       0       0       0       0       0       0       
      +0       0       0       0       0       0
  6816 ;;      Totals:         0       0       0       0       0       0       0       0       0       0       0       0       
      +0       0       0       0       0       0       0       0       0       0       0       0       0       0       0       
      +0       0       0       0       0       0
  6817 ;;Total ram usage:        0 bytes
  6818 ;; Hardware stack levels used:    1
  6819 ;; Hardware stack levels required when called:    3
  6820 ;; This function calls:
  6821 ;;		Nothing
  6822 ;; This function is called by:
  6823 ;;		_AUDIO_Idle
  6824 ;; This function uses a non-reentrant model
  6825 ;;
  6826                           
  6827                           	psect	text59
  6828  003CFA                     __ptext59:
  6829                           	callstack 0
  6830  003CFA                     _TMR1_HasOverflowOccured:
  6831                           	callstack 123
  6832  003CFA                     
  6833                           ;mcc_generated_files/tmr1.c: 160:     return(PIR3bits.TMR1IF);
  6834  003CFA  B8B1               	btfsc	177,4,c	;volatile
  6835  003CFC  EF82  F01E         	goto	u151
  6836  003D00  EF85  F01E         	goto	u150
  6837  003D04                     u151:
  6838  003D04  0E01               	movlw	1
  6839  003D06  EF86  F01E         	goto	u156
  6840  003D0A                     u150:
  6841  003D0A  0E00               	movlw	0
  6842  003D0C                     u156:
  6843  003D0C  0012               	return		;funcret
  6844  003D0E                     __end_of_TMR1_HasOverflowOccured:
  6845                           	callstack 0
  6846                           
  6847 ;; *************** function _LED0_Blink_Stop *****************
  6848 ;; Defined at:
  6849 ;;		line 189 in file "main.c"
  6850 ;; Parameters:    Size  Location     Type
  6851 ;;		None
  6852 ;; Auto vars:     Size  Location     Type
  6853 ;;		None
  6854 ;; Return value:  Size  Location     Type
  6855 ;;                  1    wreg      void 
  6856 ;; Registers used:
  6857 ;;		cstack
  6858 ;; Tracked objects:
  6859 ;;		On entry : 0/0
  6860 ;;		On exit  : 0/0
  6861 ;;		Unchanged: 0/0
  6862 ;; Data sizes:     COMRAM   BANK5   BANK6   BANK7   BANK8   BANK9  BANK10  BANK11  BANK12  BANK13  BANK14  BANK15  BANK1
      +6  BANK17  BANK18  BANK19  BANK20  BANK21  BANK22  BANK23  BANK24  BANK25  BANK26  BANK27  BANK28  BANK29  BANK30  BANK3
      +1  BANK32  BANK33  BANK34  BANK35  BANK36
  6863 ;;      Params:         0       0       0       0       0       0       0       0       0       0       0       0       
      +0       0       0       0       0       0       0       0       0       0       0       0       0       0       0       
      +0       0       0       0       0       0
  6864 ;;      Locals:         0       0       0       0       0       0       0       0       0       0       0       0       
      +0       0       0       0       0       0       0       0       0       0       0       0       0       0       0       
      +0       0       0       0       0       0
  6865 ;;      Temps:          0       0       0       0       0       0       0       0       0       0       0       0       
      +0       0       0       0       0       0       0       0       0       0       0       0       0       0       0       
      +0       0       0       0       0       0
  6866 ;;      Totals:         0       0       0       0       0       0       0       0       0       0       0       0       
      +0       0       0       0       0       0       0       0       0       0       0       0       0       0       0       
      +0       0       0       0       0       0
  6867 ;;Total ram usage:        0 bytes
  6868 ;; Hardware stack levels used:    1
  6869 ;; Hardware stack levels required when called:    5
  6870 ;; This function calls:
  6871 ;;		_TMR6_StopTimer
  6872 ;; This function is called by:
  6873 ;;		_AUDIO_Erase
  6874 ;;		_AUDIO_Idle
  6875 ;; This function uses a non-reentrant model
  6876 ;;
  6877                           
  6878                           	psect	text60
  6879  003E28                     __ptext60:
  6880                           	callstack 0
  6881  003E28                     _LED0_Blink_Stop:
  6882                           	callstack 120
  6883  003E28                     
  6884                           ;main.c: 191:     TMR6_StopTimer();
  6885  003E28  EC26  F01F         	call	_TMR6_StopTimer	;wreg free
  6886  003E2C  86C3               	bsf	195,3,c	;volatile
  6887  003E2E  0012               	return		;funcret
  6888  003E30                     __end_of_LED0_Blink_Stop:
  6889                           	callstack 0
  6890                           
  6891 ;; *************** function _TMR6_StopTimer *****************
  6892 ;; Defined at:
  6893 ;;		line 126 in file "mcc_generated_files/tmr6.c"
  6894 ;; Parameters:    Size  Location     Type
  6895 ;;		None
  6896 ;; Auto vars:     Size  Location     Type
  6897 ;;		None
  6898 ;; Return value:  Size  Location     Type
  6899 ;;                  1    wreg      void 
  6900 ;; Registers used:
  6901 ;;		cstack
  6902 ;; Tracked objects:
  6903 ;;		On entry : 0/0
  6904 ;;		On exit  : 0/0
  6905 ;;		Unchanged: 0/0
  6906 ;; Data sizes:     COMRAM   BANK5   BANK6   BANK7   BANK8   BANK9  BANK10  BANK11  BANK12  BANK13  BANK14  BANK15  BANK1
      +6  BANK17  BANK18  BANK19  BANK20  BANK21  BANK22  BANK23  BANK24  BANK25  BANK26  BANK27  BANK28  BANK29  BANK30  BANK3
      +1  BANK32  BANK33  BANK34  BANK35  BANK36
  6907 ;;      Params:         0       0       0       0       0       0       0       0       0       0       0       0       
      +0       0       0       0       0       0       0       0       0       0       0       0       0       0       0       
      +0       0       0       0       0       0
  6908 ;;      Locals:         0       0       0       0       0       0       0       0       0       0       0       0       
      +0       0       0       0       0       0       0       0       0       0       0       0       0       0       0       
      +0       0       0       0       0       0
  6909 ;;      Temps:          0       0       0       0       0       0       0       0       0       0       0       0       
      +0       0       0       0       0       0       0       0       0       0       0       0       0       0       0       
      +0       0       0       0       0       0
  6910 ;;      Totals:         0       0       0       0       0       0       0       0       0       0       0       0       
      +0       0       0       0       0       0       0       0       0       0       0       0       0       0       0       
      +0       0       0       0       0       0
  6911 ;;Total ram usage:        0 bytes
  6912 ;; Hardware stack levels used:    1
  6913 ;; Hardware stack levels required when called:    4
  6914 ;; This function calls:
  6915 ;;		_TMR6_Stop
  6916 ;; This function is called by:
  6917 ;;		_LED0_Blink_Stop
  6918 ;; This function uses a non-reentrant model
  6919 ;;
  6920                           
  6921                           	psect	text61
  6922  003E4C                     __ptext61:
  6923                           	callstack 0
  6924  003E4C                     _TMR6_StopTimer:
  6925                           	callstack 120
  6926  003E4C                     
  6927                           ;mcc_generated_files/tmr6.c: 128:     TMR6_Stop();
  6928  003E4C  EC29  F01F         	call	_TMR6_Stop	;wreg free
  6929  003E50  0012               	return		;funcret
  6930  003E52                     __end_of_TMR6_StopTimer:
  6931                           	callstack 0
  6932                           
  6933 ;; *************** function _TMR6_Stop *****************
  6934 ;; Defined at:
  6935 ;;		line 120 in file "mcc_generated_files/tmr6.c"
  6936 ;; Parameters:    Size  Location     Type
  6937 ;;		None
  6938 ;; Auto vars:     Size  Location     Type
  6939 ;;		None
  6940 ;; Return value:  Size  Location     Type
  6941 ;;                  1    wreg      void 
  6942 ;; Registers used:
  6943 ;;		None
  6944 ;; Tracked objects:
  6945 ;;		On entry : 0/0
  6946 ;;		On exit  : 0/0
  6947 ;;		Unchanged: 0/0
  6948 ;; Data sizes:     COMRAM   BANK5   BANK6   BANK7   BANK8   BANK9  BANK10  BANK11  BANK12  BANK13  BANK14  BANK15  BANK1
      +6  BANK17  BANK18  BANK19  BANK20  BANK21  BANK22  BANK23  BANK24  BANK25  BANK26  BANK27  BANK28  BANK29  BANK30  BANK3
      +1  BANK32  BANK33  BANK34  BANK35  BANK36
  6949 ;;      Params:         0       0       0       0       0       0       0       0       0       0       0       0       
      +0       0       0       0       0       0       0       0       0       0       0       0       0       0       0       
      +0       0       0       0       0       0
  6950 ;;      Locals:         0       0       0       0       0       0       0       0       0       0       0       0       
      +0       0       0       0       0       0       0       0       0       0       0       0       0       0       0       
      +0       0       0       0       0       0
  6951 ;;      Temps:          0       0       0       0       0       0       0       0       0       0       0       0       
      +0       0       0       0       0       0       0       0       0       0       0       0       0       0       0       
      +0       0       0       0       0       0
  6952 ;;      Totals:         0       0       0       0       0       0       0       0       0       0       0       0       
      +0       0       0       0       0       0       0       0       0       0       0       0       0       0       0       
      +0       0       0       0       0       0
  6953 ;;Total ram usage:        0 bytes
  6954 ;; Hardware stack levels used:    1
  6955 ;; Hardware stack levels required when called:    3
  6956 ;; This function calls:
  6957 ;;		Nothing
  6958 ;; This function is called by:
  6959 ;;		_TMR6_StopTimer
  6960 ;; This function uses a non-reentrant model
  6961 ;;
  6962                           
  6963                           	psect	text62
  6964  003E52                     __ptext62:
  6965                           	callstack 0
  6966  003E52                     _TMR6_Stop:
  6967                           	callstack 120
  6968  003E52                     
  6969                           ;mcc_generated_files/tmr6.c: 123:     T6CONbits.TMR6ON = 0;
  6970  003E52  0103               	movlb	3	; () banked
  6971  003E54  9F3C               	bcf	60,7,b	;volatile
  6972  003E56                     
  6973                           ; BSR set to: 3
  6974  003E56  0012               	return		;funcret
  6975  003E58                     __end_of_TMR6_Stop:
  6976                           	callstack 0
  6977                           
  6978 ;; *************** function _LED0_Blink_Start *****************
  6979 ;; Defined at:
  6980 ;;		line 178 in file "main.c"
  6981 ;; Parameters:    Size  Location     Type
  6982 ;;		None
  6983 ;; Auto vars:     Size  Location     Type
  6984 ;;		None
  6985 ;; Return value:  Size  Location     Type
  6986 ;;                  1    wreg      void 
  6987 ;; Registers used:
  6988 ;;		cstack
  6989 ;; Tracked objects:
  6990 ;;		On entry : 0/0
  6991 ;;		On exit  : 0/0
  6992 ;;		Unchanged: 0/0
  6993 ;; Data sizes:     COMRAM   BANK5   BANK6   BANK7   BANK8   BANK9  BANK10  BANK11  BANK12  BANK13  BANK14  BANK15  BANK1
      +6  BANK17  BANK18  BANK19  BANK20  BANK21  BANK22  BANK23  BANK24  BANK25  BANK26  BANK27  BANK28  BANK29  BANK30  BANK3
      +1  BANK32  BANK33  BANK34  BANK35  BANK36
  6994 ;;      Params:         0       0       0       0       0       0       0       0       0       0       0       0       
      +0       0       0       0       0       0       0       0       0       0       0       0       0       0       0       
      +0       0       0       0       0       0
  6995 ;;      Locals:         0       0       0       0       0       0       0       0       0       0       0       0       
      +0       0       0       0       0       0       0       0       0       0       0       0       0       0       0       
      +0       0       0       0       0       0
  6996 ;;      Temps:          0       0       0       0       0       0       0       0       0       0       0       0       
      +0       0       0       0       0       0       0       0       0       0       0       0       0       0       0       
      +0       0       0       0       0       0
  6997 ;;      Totals:         0       0       0       0       0       0       0       0       0       0       0       0       
      +0       0       0       0       0       0       0       0       0       0       0       0       0       0       0       
      +0       0       0       0       0       0
  6998 ;;Total ram usage:        0 bytes
  6999 ;; Hardware stack levels used:    1
  7000 ;; Hardware stack levels required when called:    5
  7001 ;; This function calls:
  7002 ;;		_TMR6_StartTimer
  7003 ;; This function is called by:
  7004 ;;		_AUDIO_Erase
  7005 ;;		_AUDIO_Idle
  7006 ;; This function uses a non-reentrant model
  7007 ;;
  7008                           
  7009                           	psect	text63
  7010  003E58                     __ptext63:
  7011                           	callstack 0
  7012  003E58                     _LED0_Blink_Start:
  7013                           	callstack 120
  7014  003E58                     
  7015                           ;main.c: 180:     TMR6_StartTimer();
  7016  003E58  EC2F  F01F         	call	_TMR6_StartTimer	;wreg free
  7017  003E5C  0012               	return		;funcret
  7018  003E5E                     __end_of_LED0_Blink_Start:
  7019                           	callstack 0
  7020                           
  7021 ;; *************** function _TMR6_StartTimer *****************
  7022 ;; Defined at:
  7023 ;;		line 115 in file "mcc_generated_files/tmr6.c"
  7024 ;; Parameters:    Size  Location     Type
  7025 ;;		None
  7026 ;; Auto vars:     Size  Location     Type
  7027 ;;		None
  7028 ;; Return value:  Size  Location     Type
  7029 ;;                  1    wreg      void 
  7030 ;; Registers used:
  7031 ;;		cstack
  7032 ;; Tracked objects:
  7033 ;;		On entry : 0/0
  7034 ;;		On exit  : 0/0
  7035 ;;		Unchanged: 0/0
  7036 ;; Data sizes:     COMRAM   BANK5   BANK6   BANK7   BANK8   BANK9  BANK10  BANK11  BANK12  BANK13  BANK14  BANK15  BANK1
      +6  BANK17  BANK18  BANK19  BANK20  BANK21  BANK22  BANK23  BANK24  BANK25  BANK26  BANK27  BANK28  BANK29  BANK30  BANK3
      +1  BANK32  BANK33  BANK34  BANK35  BANK36
  7037 ;;      Params:         0       0       0       0       0       0       0       0       0       0       0       0       
      +0       0       0       0       0       0       0       0       0       0       0       0       0       0       0       
      +0       0       0       0       0       0
  7038 ;;      Locals:         0       0       0       0       0       0       0       0       0       0       0       0       
      +0       0       0       0       0       0       0       0       0       0       0       0       0       0       0       
      +0       0       0       0       0       0
  7039 ;;      Temps:          0       0       0       0       0       0       0       0       0       0       0       0       
      +0       0       0       0       0       0       0       0       0       0       0       0       0       0       0       
      +0       0       0       0       0       0
  7040 ;;      Totals:         0       0       0       0       0       0       0       0       0       0       0       0       
      +0       0       0       0       0       0       0       0       0       0       0       0       0       0       0       
      +0       0       0       0       0       0
  7041 ;;Total ram usage:        0 bytes
  7042 ;; Hardware stack levels used:    1
  7043 ;; Hardware stack levels required when called:    4
  7044 ;; This function calls:
  7045 ;;		_TMR6_Start
  7046 ;; This function is called by:
  7047 ;;		_LED0_Blink_Start
  7048 ;; This function uses a non-reentrant model
  7049 ;;
  7050                           
  7051                           	psect	text64
  7052  003E5E                     __ptext64:
  7053                           	callstack 0
  7054  003E5E                     _TMR6_StartTimer:
  7055                           	callstack 120
  7056  003E5E                     
  7057                           ;mcc_generated_files/tmr6.c: 117:     TMR6_Start();
  7058  003E5E  EC32  F01F         	call	_TMR6_Start	;wreg free
  7059  003E62  0012               	return		;funcret
  7060  003E64                     __end_of_TMR6_StartTimer:
  7061                           	callstack 0
  7062                           
  7063 ;; *************** function _TMR6_Start *****************
  7064 ;; Defined at:
  7065 ;;		line 109 in file "mcc_generated_files/tmr6.c"
  7066 ;; Parameters:    Size  Location     Type
  7067 ;;		None
  7068 ;; Auto vars:     Size  Location     Type
  7069 ;;		None
  7070 ;; Return value:  Size  Location     Type
  7071 ;;                  1    wreg      void 
  7072 ;; Registers used:
  7073 ;;		None
  7074 ;; Tracked objects:
  7075 ;;		On entry : 0/0
  7076 ;;		On exit  : 0/0
  7077 ;;		Unchanged: 0/0
  7078 ;; Data sizes:     COMRAM   BANK5   BANK6   BANK7   BANK8   BANK9  BANK10  BANK11  BANK12  BANK13  BANK14  BANK15  BANK1
      +6  BANK17  BANK18  BANK19  BANK20  BANK21  BANK22  BANK23  BANK24  BANK25  BANK26  BANK27  BANK28  BANK29  BANK30  BANK3
      +1  BANK32  BANK33  BANK34  BANK35  BANK36
  7079 ;;      Params:         0       0       0       0       0       0       0       0       0       0       0       0       
      +0       0       0       0       0       0       0       0       0       0       0       0       0       0       0       
      +0       0       0       0       0       0
  7080 ;;      Locals:         0       0       0       0       0       0       0       0       0       0       0       0       
      +0       0       0       0       0       0       0       0       0       0       0       0       0       0       0       
      +0       0       0       0       0       0
  7081 ;;      Temps:          0       0       0       0       0       0       0       0       0       0       0       0       
      +0       0       0       0       0       0       0       0       0       0       0       0       0       0       0       
      +0       0       0       0       0       0
  7082 ;;      Totals:         0       0       0       0       0       0       0       0       0       0       0       0       
      +0       0       0       0       0       0       0       0       0       0       0       0       0       0       0       
      +0       0       0       0       0       0
  7083 ;;Total ram usage:        0 bytes
  7084 ;; Hardware stack levels used:    1
  7085 ;; Hardware stack levels required when called:    3
  7086 ;; This function calls:
  7087 ;;		Nothing
  7088 ;; This function is called by:
  7089 ;;		_TMR6_StartTimer
  7090 ;; This function uses a non-reentrant model
  7091 ;;
  7092                           
  7093                           	psect	text65
  7094  003E64                     __ptext65:
  7095                           	callstack 0
  7096  003E64                     _TMR6_Start:
  7097                           	callstack 120
  7098  003E64                     
  7099                           ;mcc_generated_files/tmr6.c: 112:     T6CONbits.TMR6ON = 1;
  7100  003E64  0103               	movlb	3	; () banked
  7101  003E66  8F3C               	bsf	60,7,b	;volatile
  7102  003E68                     
  7103                           ; BSR set to: 3
  7104  003E68  0012               	return		;funcret
  7105  003E6A                     __end_of_TMR6_Start:
  7106                           	callstack 0
  7107                           
  7108 ;; *************** function _APP_Initialize *****************
  7109 ;; Defined at:
  7110 ;;		line 941 in file "main.c"
  7111 ;; Parameters:    Size  Location     Type
  7112 ;;		None
  7113 ;; Auto vars:     Size  Location     Type
  7114 ;;		None
  7115 ;; Return value:  Size  Location     Type
  7116 ;;                  1    wreg      void 
  7117 ;; Registers used:
  7118 ;;		wreg, fsr2l, fsr2h, status,2, status,0, cstack
  7119 ;; Tracked objects:
  7120 ;;		On entry : 0/0
  7121 ;;		On exit  : 0/0
  7122 ;;		Unchanged: 0/0
  7123 ;; Data sizes:     COMRAM   BANK5   BANK6   BANK7   BANK8   BANK9  BANK10  BANK11  BANK12  BANK13  BANK14  BANK15  BANK1
      +6  BANK17  BANK18  BANK19  BANK20  BANK21  BANK22  BANK23  BANK24  BANK25  BANK26  BANK27  BANK28  BANK29  BANK30  BANK3
      +1  BANK32  BANK33  BANK34  BANK35  BANK36
  7124 ;;      Params:         0       0       0       0       0       0       0       0       0       0       0       0       
      +0       0       0       0       0       0       0       0       0       0       0       0       0       0       0       
      +0       0       0       0       0       0
  7125 ;;      Locals:         0       0       0       0       0       0       0       0       0       0       0       0       
      +0       0       0       0       0       0       0       0       0       0       0       0       0       0       0       
      +0       0       0       0       0       0
  7126 ;;      Temps:          0       0       0       0       0       0       0       0       0       0       0       0       
      +0       0       0       0       0       0       0       0       0       0       0       0       0       0       0       
      +0       0       0       0       0       0
  7127 ;;      Totals:         0       0       0       0       0       0       0       0       0       0       0       0       
      +0       0       0       0       0       0       0       0       0       0       0       0       0       0       0       
      +0       0       0       0       0       0
  7128 ;;Total ram usage:        0 bytes
  7129 ;; Hardware stack levels used:    1
  7130 ;; Hardware stack levels required when called:    8
  7131 ;; This function calls:
  7132 ;;		_AUDIO_ReadMetaData
  7133 ;;		_ResetAllDMA
  7134 ;;		_ResetSwitches
  7135 ;;		_SST26VF064B_GlobalBlockUnlock
  7136 ;;		_SST26VF064B_Initialize
  7137 ;;		_TMR0_Reload
  7138 ;;		_TMR0_SetInterruptHandler
  7139 ;;		_TMR0_StopTimer
  7140 ;;		_TMR1_StopTimer
  7141 ;;		_TMR6_SetInterruptHandler
  7142 ;; This function is called by:
  7143 ;;		_main
  7144 ;; This function uses a non-reentrant model
  7145 ;;
  7146                           
  7147                           	psect	text66
  7148  0033C8                     __ptext66:
  7149                           	callstack 0
  7150  0033C8                     _APP_Initialize:
  7151                           	callstack 119
  7152  0033C8                     
  7153                           ;main.c: 944:     TMR0_StopTimer();
  7154  0033C8  EC38  F01F         	call	_TMR0_StopTimer	;wreg free
  7155  0033CC                     
  7156                           ;main.c: 945:     TMR0_Reload();
  7157  0033CC  ECD9  F01E         	call	_TMR0_Reload	;wreg free
  7158  0033D0                     
  7159                           ;main.c: 948:     TMR1_StopTimer();
  7160  0033D0  EC35  F01F         	call	_TMR1_StopTimer	;wreg free
  7161  0033D4                     
  7162                           ;main.c: 951:     ADCON0bits.ON = 0;
  7163  0033D4  0103               	movlb	3	; () banked
  7164  0033D6  9FF3               	bcf	243,7,b	;volatile
  7165  0033D8                     
  7166                           ; BSR set to: 3
  7167                           ;main.c: 952:     DAC1CONbits.EN = 0;
  7168  0033D8  0100               	movlb	0	; () banked
  7169  0033DA  9F7F               	bcf	127,7,b	;volatile
  7170  0033DC                     
  7171                           ; BSR set to: 0
  7172                           ;main.c: 955:     ResetAllDMA();
  7173  0033DC  EC2C  F01D         	call	_ResetAllDMA	;wreg free
  7174  0033E0                     
  7175                           ;main.c: 958:     ResetSwitches();
  7176  0033E0  EC07  F01F         	call	_ResetSwitches	;wreg free
  7177                           
  7178                           ;main.c: 961:     TMR0_SetInterruptHandler(TimerTick_ISR);
  7179  0033E4  0ECE               	movlw	low _TimerTick_ISR
  7180  0033E6  6E02               	movwf	TMR0_SetInterruptHandler@InterruptHandler^(0+1280),c
  7181  0033E8  0E37               	movlw	high _TimerTick_ISR
  7182  0033EA  6E03               	movwf	(TMR0_SetInterruptHandler@InterruptHandler+1)^(0+1280),c
  7183  0033EC  0E00               	movlw	low (_TimerTick_ISR shr (0+16))
  7184  0033EE  6E04               	movwf	(TMR0_SetInterruptHandler@InterruptHandler+2)^(0+1280),c
  7185  0033F0  ECD2  F01E         	call	_TMR0_SetInterruptHandler	;wreg free
  7186                           
  7187                           ;main.c: 962:     TMR6_SetInterruptHandler(BlinkTimer_ISR);
  7188  0033F4  0E30               	movlw	low _BlinkTimer_ISR
  7189  0033F6  6E02               	movwf	TMR6_SetInterruptHandler@InterruptHandler^(0+1280),c
  7190  0033F8  0E3A               	movlw	high _BlinkTimer_ISR
  7191  0033FA  6E03               	movwf	(TMR6_SetInterruptHandler@InterruptHandler+1)^(0+1280),c
  7192  0033FC  0E00               	movlw	low (_BlinkTimer_ISR shr (0+16))
  7193  0033FE  6E04               	movwf	(TMR6_SetInterruptHandler@InterruptHandler+2)^(0+1280),c
  7194  003400  ECCB  F01E         	call	_TMR6_SetInterruptHandler	;wreg free
  7195  003404                     
  7196                           ;main.c: 966:     extMem = SST26VF064B_Initialize();
  7197  003404  EC42  F01A         	call	_SST26VF064B_Initialize	;wreg free
  7198  003408  6E42               	movwf	_extMem^(0+1280),c
  7199  00340A                     
  7200                           ;main.c: 967:     if(extMem) {
  7201  00340A  5042               	movf	_extMem^(0+1280),w,c
  7202  00340C  B4D8               	btfsc	status,2,c
  7203  00340E  EF0B  F01A         	goto	u1851
  7204  003412  EF0D  F01A         	goto	u1850
  7205  003416                     u1851:
  7206  003416  EF0F  F01A         	goto	l2106
  7207  00341A                     u1850:
  7208  00341A                     
  7209                           ;main.c: 968:         SST26VF064B_GlobalBlockUnlock();
  7210  00341A  EC04  F01D         	call	_SST26VF064B_GlobalBlockUnlock	;wreg free
  7211  00341E                     l2106:
  7212                           
  7213                           ;main.c: 973:     AUDIO_ReadMetaData();
  7214  00341E  ECED  F013         	call	_AUDIO_ReadMetaData	;wreg free
  7215  003422                     
  7216                           ;main.c: 979:     mode = Idle;
  7217  003422  0E00               	movlw	0
  7218  003424  6E3F               	movwf	_mode^(0+1280),c
  7219  003426  0012               	return		;funcret
  7220  003428                     __end_of_APP_Initialize:
  7221                           	callstack 0
  7222                           
  7223 ;; *************** function _TMR6_SetInterruptHandler *****************
  7224 ;; Defined at:
  7225 ;;		line 187 in file "mcc_generated_files/tmr6.c"
  7226 ;; Parameters:    Size  Location     Type
  7227 ;;  InterruptHan    3    1[COMRAM] PTR FTN()void 
  7228 ;;		 -> BlinkTimer_ISR(1), TMR6_DefaultInterruptHandler(1), 
  7229 ;; Auto vars:     Size  Location     Type
  7230 ;;		None
  7231 ;; Return value:  Size  Location     Type
  7232 ;;                  1    wreg      void 
  7233 ;; Registers used:
  7234 ;;		wreg, status,2, status,0
  7235 ;; Tracked objects:
  7236 ;;		On entry : 0/0
  7237 ;;		On exit  : 0/0
  7238 ;;		Unchanged: 0/0
  7239 ;; Data sizes:     COMRAM   BANK5   BANK6   BANK7   BANK8   BANK9  BANK10  BANK11  BANK12  BANK13  BANK14  BANK15  BANK1
      +6  BANK17  BANK18  BANK19  BANK20  BANK21  BANK22  BANK23  BANK24  BANK25  BANK26  BANK27  BANK28  BANK29  BANK30  BANK3
      +1  BANK32  BANK33  BANK34  BANK35  BANK36
  7240 ;;      Params:         3       0       0       0       0       0       0       0       0       0       0       0       
      +0       0       0       0       0       0       0       0       0       0       0       0       0       0       0       
      +0       0       0       0       0       0
  7241 ;;      Locals:         0       0       0       0       0       0       0       0       0       0       0       0       
      +0       0       0       0       0       0       0       0       0       0       0       0       0       0       0       
      +0       0       0       0       0       0
  7242 ;;      Temps:          0       0       0       0       0       0       0       0       0       0       0       0       
      +0       0       0       0       0       0       0       0       0       0       0       0       0       0       0       
      +0       0       0       0       0       0
  7243 ;;      Totals:         3       0       0       0       0       0       0       0       0       0       0       0       
      +0       0       0       0       0       0       0       0       0       0       0       0       0       0       0       
      +0       0       0       0       0       0
  7244 ;;Total ram usage:        3 bytes
  7245 ;; Hardware stack levels used:    1
  7246 ;; Hardware stack levels required when called:    3
  7247 ;; This function calls:
  7248 ;;		Nothing
  7249 ;; This function is called by:
  7250 ;;		_TMR6_Initialize
  7251 ;;		_APP_Initialize
  7252 ;; This function uses a non-reentrant model
  7253 ;;
  7254                           
  7255                           	psect	text67
  7256  003D96                     __ptext67:
  7257                           	callstack 0
  7258  003D96                     _TMR6_SetInterruptHandler:
  7259                           	callstack 122
  7260  003D96                     
  7261                           ;mcc_generated_files/tmr6.c: 188:     TMR6_InterruptHandler = InterruptHandler;
  7262  003D96  C502  F551         	movff	TMR6_SetInterruptHandler@InterruptHandler,_TMR6_InterruptHandler
  7263  003D9A  C503  F552         	movff	TMR6_SetInterruptHandler@InterruptHandler+1,_TMR6_InterruptHandler+1
  7264  003D9E  C504  F553         	movff	TMR6_SetInterruptHandler@InterruptHandler+2,_TMR6_InterruptHandler+2
  7265  003DA2  0012               	return		;funcret
  7266  003DA4                     __end_of_TMR6_SetInterruptHandler:
  7267                           	callstack 0
  7268                           
  7269 ;; *************** function _TMR1_StopTimer *****************
  7270 ;; Defined at:
  7271 ;;		line 98 in file "mcc_generated_files/tmr1.c"
  7272 ;; Parameters:    Size  Location     Type
  7273 ;;		None
  7274 ;; Auto vars:     Size  Location     Type
  7275 ;;		None
  7276 ;; Return value:  Size  Location     Type
  7277 ;;                  1    wreg      void 
  7278 ;; Registers used:
  7279 ;;		None
  7280 ;; Tracked objects:
  7281 ;;		On entry : 0/0
  7282 ;;		On exit  : 0/0
  7283 ;;		Unchanged: 0/0
  7284 ;; Data sizes:     COMRAM   BANK5   BANK6   BANK7   BANK8   BANK9  BANK10  BANK11  BANK12  BANK13  BANK14  BANK15  BANK1
      +6  BANK17  BANK18  BANK19  BANK20  BANK21  BANK22  BANK23  BANK24  BANK25  BANK26  BANK27  BANK28  BANK29  BANK30  BANK3
      +1  BANK32  BANK33  BANK34  BANK35  BANK36
  7285 ;;      Params:         0       0       0       0       0       0       0       0       0       0       0       0       
      +0       0       0       0       0       0       0       0       0       0       0       0       0       0       0       
      +0       0       0       0       0       0
  7286 ;;      Locals:         0       0       0       0       0       0       0       0       0       0       0       0       
      +0       0       0       0       0       0       0       0       0       0       0       0       0       0       0       
      +0       0       0       0       0       0
  7287 ;;      Temps:          0       0       0       0       0       0       0       0       0       0       0       0       
      +0       0       0       0       0       0       0       0       0       0       0       0       0       0       0       
      +0       0       0       0       0       0
  7288 ;;      Totals:         0       0       0       0       0       0       0       0       0       0       0       0       
      +0       0       0       0       0       0       0       0       0       0       0       0       0       0       0       
      +0       0       0       0       0       0
  7289 ;;Total ram usage:        0 bytes
  7290 ;; Hardware stack levels used:    1
  7291 ;; Hardware stack levels required when called:    3
  7292 ;; This function calls:
  7293 ;;		Nothing
  7294 ;; This function is called by:
  7295 ;;		_TMR1_StopAndStartTimer
  7296 ;;		_AUDIO_Idle
  7297 ;;		_APP_Initialize
  7298 ;; This function uses a non-reentrant model
  7299 ;;
  7300                           
  7301                           	psect	text68
  7302  003E6A                     __ptext68:
  7303                           	callstack 0
  7304  003E6A                     _TMR1_StopTimer:
  7305                           	callstack 123
  7306  003E6A                     
  7307                           ;mcc_generated_files/tmr1.c: 101:     T1CONbits.TMR1ON = 0;
  7308  003E6A  0103               	movlb	3	; () banked
  7309  003E6C  911E               	bcf	30,0,b	;volatile
  7310  003E6E                     
  7311                           ; BSR set to: 3
  7312  003E6E  0012               	return		;funcret
  7313  003E70                     __end_of_TMR1_StopTimer:
  7314                           	callstack 0
  7315                           
  7316 ;; *************** function _TMR0_StopTimer *****************
  7317 ;; Defined at:
  7318 ;;		line 102 in file "mcc_generated_files/tmr0.c"
  7319 ;; Parameters:    Size  Location     Type
  7320 ;;		None
  7321 ;; Auto vars:     Size  Location     Type
  7322 ;;		None
  7323 ;; Return value:  Size  Location     Type
  7324 ;;                  1    wreg      void 
  7325 ;; Registers used:
  7326 ;;		None
  7327 ;; Tracked objects:
  7328 ;;		On entry : 0/0
  7329 ;;		On exit  : 0/0
  7330 ;;		Unchanged: 0/0
  7331 ;; Data sizes:     COMRAM   BANK5   BANK6   BANK7   BANK8   BANK9  BANK10  BANK11  BANK12  BANK13  BANK14  BANK15  BANK1
      +6  BANK17  BANK18  BANK19  BANK20  BANK21  BANK22  BANK23  BANK24  BANK25  BANK26  BANK27  BANK28  BANK29  BANK30  BANK3
      +1  BANK32  BANK33  BANK34  BANK35  BANK36
  7332 ;;      Params:         0       0       0       0       0       0       0       0       0       0       0       0       
      +0       0       0       0       0       0       0       0       0       0       0       0       0       0       0       
      +0       0       0       0       0       0
  7333 ;;      Locals:         0       0       0       0       0       0       0       0       0       0       0       0       
      +0       0       0       0       0       0       0       0       0       0       0       0       0       0       0       
      +0       0       0       0       0       0
  7334 ;;      Temps:          0       0       0       0       0       0       0       0       0       0       0       0       
      +0       0       0       0       0       0       0       0       0       0       0       0       0       0       0       
      +0       0       0       0       0       0
  7335 ;;      Totals:         0       0       0       0       0       0       0       0       0       0       0       0       
      +0       0       0       0       0       0       0       0       0       0       0       0       0       0       0       
      +0       0       0       0       0       0
  7336 ;;Total ram usage:        0 bytes
  7337 ;; Hardware stack levels used:    1
  7338 ;; Hardware stack levels required when called:    3
  7339 ;; This function calls:
  7340 ;;		Nothing
  7341 ;; This function is called by:
  7342 ;;		_AUDIO_Record
  7343 ;;		_AUDIO_Playback
  7344 ;;		_AUDIO_Passthrough
  7345 ;;		_APP_Initialize
  7346 ;; This function uses a non-reentrant model
  7347 ;;
  7348                           
  7349                           	psect	text69
  7350  003E70                     __ptext69:
  7351                           	callstack 0
  7352  003E70                     _TMR0_StopTimer:
  7353                           	callstack 123
  7354  003E70                     
  7355                           ;mcc_generated_files/tmr0.c: 105:     T0CON0bits.T0EN = 0;
  7356  003E70  0103               	movlb	3	; () banked
  7357  003E72  9F1A               	bcf	26,7,b	;volatile
  7358  003E74                     
  7359                           ; BSR set to: 3
  7360  003E74  0012               	return		;funcret
  7361  003E76                     __end_of_TMR0_StopTimer:
  7362                           	callstack 0
  7363                           
  7364 ;; *************** function _TMR0_SetInterruptHandler *****************
  7365 ;; Defined at:
  7366 ;;		line 160 in file "mcc_generated_files/tmr0.c"
  7367 ;; Parameters:    Size  Location     Type
  7368 ;;  InterruptHan    3    1[COMRAM] PTR FTN()void 
  7369 ;;		 -> TimerTick_ISR(1), TMR0_DefaultInterruptHandler(1), 
  7370 ;; Auto vars:     Size  Location     Type
  7371 ;;		None
  7372 ;; Return value:  Size  Location     Type
  7373 ;;                  1    wreg      void 
  7374 ;; Registers used:
  7375 ;;		wreg, status,2, status,0
  7376 ;; Tracked objects:
  7377 ;;		On entry : 0/0
  7378 ;;		On exit  : 0/0
  7379 ;;		Unchanged: 0/0
  7380 ;; Data sizes:     COMRAM   BANK5   BANK6   BANK7   BANK8   BANK9  BANK10  BANK11  BANK12  BANK13  BANK14  BANK15  BANK1
      +6  BANK17  BANK18  BANK19  BANK20  BANK21  BANK22  BANK23  BANK24  BANK25  BANK26  BANK27  BANK28  BANK29  BANK30  BANK3
      +1  BANK32  BANK33  BANK34  BANK35  BANK36
  7381 ;;      Params:         3       0       0       0       0       0       0       0       0       0       0       0       
      +0       0       0       0       0       0       0       0       0       0       0       0       0       0       0       
      +0       0       0       0       0       0
  7382 ;;      Locals:         0       0       0       0       0       0       0       0       0       0       0       0       
      +0       0       0       0       0       0       0       0       0       0       0       0       0       0       0       
      +0       0       0       0       0       0
  7383 ;;      Temps:          0       0       0       0       0       0       0       0       0       0       0       0       
      +0       0       0       0       0       0       0       0       0       0       0       0       0       0       0       
      +0       0       0       0       0       0
  7384 ;;      Totals:         3       0       0       0       0       0       0       0       0       0       0       0       
      +0       0       0       0       0       0       0       0       0       0       0       0       0       0       0       
      +0       0       0       0       0       0
  7385 ;;Total ram usage:        3 bytes
  7386 ;; Hardware stack levels used:    1
  7387 ;; Hardware stack levels required when called:    3
  7388 ;; This function calls:
  7389 ;;		Nothing
  7390 ;; This function is called by:
  7391 ;;		_TMR0_Initialize
  7392 ;;		_APP_Initialize
  7393 ;; This function uses a non-reentrant model
  7394 ;;
  7395                           
  7396                           	psect	text70
  7397  003DA4                     __ptext70:
  7398                           	callstack 0
  7399  003DA4                     _TMR0_SetInterruptHandler:
  7400                           	callstack 122
  7401  003DA4                     
  7402                           ;mcc_generated_files/tmr0.c: 161:     TMR0_InterruptHandler = InterruptHandler;
  7403  003DA4  C502  F554         	movff	TMR0_SetInterruptHandler@InterruptHandler,_TMR0_InterruptHandler
  7404  003DA8  C503  F555         	movff	TMR0_SetInterruptHandler@InterruptHandler+1,_TMR0_InterruptHandler+1
  7405  003DAC  C504  F556         	movff	TMR0_SetInterruptHandler@InterruptHandler+2,_TMR0_InterruptHandler+2
  7406  003DB0  0012               	return		;funcret
  7407  003DB2                     __end_of_TMR0_SetInterruptHandler:
  7408                           	callstack 0
  7409                           
  7410 ;; *************** function _TMR0_Reload *****************
  7411 ;; Defined at:
  7412 ;;		line 128 in file "mcc_generated_files/tmr0.c"
  7413 ;; Parameters:    Size  Location     Type
  7414 ;;		None
  7415 ;; Auto vars:     Size  Location     Type
  7416 ;;		None
  7417 ;; Return value:  Size  Location     Type
  7418 ;;                  1    wreg      void 
  7419 ;; Registers used:
  7420 ;;		wreg, status,2
  7421 ;; Tracked objects:
  7422 ;;		On entry : 0/0
  7423 ;;		On exit  : 0/0
  7424 ;;		Unchanged: 0/0
  7425 ;; Data sizes:     COMRAM   BANK5   BANK6   BANK7   BANK8   BANK9  BANK10  BANK11  BANK12  BANK13  BANK14  BANK15  BANK1
      +6  BANK17  BANK18  BANK19  BANK20  BANK21  BANK22  BANK23  BANK24  BANK25  BANK26  BANK27  BANK28  BANK29  BANK30  BANK3
      +1  BANK32  BANK33  BANK34  BANK35  BANK36
  7426 ;;      Params:         0       0       0       0       0       0       0       0       0       0       0       0       
      +0       0       0       0       0       0       0       0       0       0       0       0       0       0       0       
      +0       0       0       0       0       0
  7427 ;;      Locals:         0       0       0       0       0       0       0       0       0       0       0       0       
      +0       0       0       0       0       0       0       0       0       0       0       0       0       0       0       
      +0       0       0       0       0       0
  7428 ;;      Temps:          0       0       0       0       0       0       0       0       0       0       0       0       
      +0       0       0       0       0       0       0       0       0       0       0       0       0       0       0       
      +0       0       0       0       0       0
  7429 ;;      Totals:         0       0       0       0       0       0       0       0       0       0       0       0       
      +0       0       0       0       0       0       0       0       0       0       0       0       0       0       0       
      +0       0       0       0       0       0
  7430 ;;Total ram usage:        0 bytes
  7431 ;; Hardware stack levels used:    1
  7432 ;; Hardware stack levels required when called:    3
  7433 ;; This function calls:
  7434 ;;		Nothing
  7435 ;; This function is called by:
  7436 ;;		_AUDIO_Record
  7437 ;;		_AUDIO_Playback
  7438 ;;		_AUDIO_Passthrough
  7439 ;;		_APP_Initialize
  7440 ;; This function uses a non-reentrant model
  7441 ;;
  7442                           
  7443                           	psect	text71
  7444  003DB2                     __ptext71:
  7445                           	callstack 0
  7446  003DB2                     _TMR0_Reload:
  7447                           	callstack 123
  7448  003DB2                     
  7449                           ;mcc_generated_files/tmr0.c: 131:     TMR0H = timer0ReloadVal16bit >> 8;
  7450  003DB2  505D               	movf	(_timer0ReloadVal16bit+1)^(0+1280),w,c	;volatile
  7451  003DB4  0103               	movlb	3	; () banked
  7452  003DB6  6F19               	movwf	25,b	;volatile
  7453  003DB8                     
  7454                           ; BSR set to: 3
  7455                           ;mcc_generated_files/tmr0.c: 132:     TMR0L = (uint8_t) timer0ReloadVal16bit;
  7456  003DB8  0061  F570  F318   	movff	_timer0ReloadVal16bit,792	;volatile
  7457  003DBE                     
  7458                           ; BSR set to: 3
  7459  003DBE  0012               	return		;funcret
  7460  003DC0                     __end_of_TMR0_Reload:
  7461                           	callstack 0
  7462                           
  7463 ;; *************** function _SST26VF064B_Initialize *****************
  7464 ;; Defined at:
  7465 ;;		line 249 in file "SST26VF064B.c"
  7466 ;; Parameters:    Size  Location     Type
  7467 ;;		None
  7468 ;; Auto vars:     Size  Location     Type
  7469 ;;  deviceInfo      3    8[COMRAM] struct SST26VF064B_info_
  7470 ;; Return value:  Size  Location     Type
  7471 ;;                  1    wreg      _Bool 
  7472 ;; Registers used:
  7473 ;;		wreg, fsr2l, fsr2h, status,2, status,0, cstack
  7474 ;; Tracked objects:
  7475 ;;		On entry : 0/0
  7476 ;;		On exit  : 0/0
  7477 ;;		Unchanged: 0/0
  7478 ;; Data sizes:     COMRAM   BANK5   BANK6   BANK7   BANK8   BANK9  BANK10  BANK11  BANK12  BANK13  BANK14  BANK15  BANK1
      +6  BANK17  BANK18  BANK19  BANK20  BANK21  BANK22  BANK23  BANK24  BANK25  BANK26  BANK27  BANK28  BANK29  BANK30  BANK3
      +1  BANK32  BANK33  BANK34  BANK35  BANK36
  7479 ;;      Params:         0       0       0       0       0       0       0       0       0       0       0       0       
      +0       0       0       0       0       0       0       0       0       0       0       0       0       0       0       
      +0       0       0       0       0       0
  7480 ;;      Locals:         3       0       0       0       0       0       0       0       0       0       0       0       
      +0       0       0       0       0       0       0       0       0       0       0       0       0       0       0       
      +0       0       0       0       0       0
  7481 ;;      Temps:          0       0       0       0       0       0       0       0       0       0       0       0       
      +0       0       0       0       0       0       0       0       0       0       0       0       0       0       0       
      +0       0       0       0       0       0
  7482 ;;      Totals:         3       0       0       0       0       0       0       0       0       0       0       0       
      +0       0       0       0       0       0       0       0       0       0       0       0       0       0       0       
      +0       0       0       0       0       0
  7483 ;;Total ram usage:        3 bytes
  7484 ;; Hardware stack levels used:    1
  7485 ;; Hardware stack levels required when called:    7
  7486 ;; This function calls:
  7487 ;;		_SST26VF064B_CS_High
  7488 ;;		_SST26VF064B_GetDeviceInfo
  7489 ;;		_SST26VF064B_Hold
  7490 ;;		_SST26VF064B_WP_High
  7491 ;; This function is called by:
  7492 ;;		_APP_Initialize
  7493 ;; This function uses a non-reentrant model
  7494 ;;
  7495                           
  7496                           	psect	text72
  7497  003484                     __ptext72:
  7498                           	callstack 0
  7499  003484                     _SST26VF064B_Initialize:
  7500                           	callstack 119
  7501  003484                     
  7502                           ;SST26VF064B.c: 251:     SST26VF064B_CS_High();
  7503  003484  EC3F  F01F         	call	_SST26VF064B_CS_High	;wreg free
  7504                           
  7505                           ;SST26VF064B.c: 252:     SST26VF064B_WP_High();
  7506  003488  EC3B  F01F         	call	_SST26VF064B_WP_High	;wreg free
  7507  00348C                     
  7508                           ;SST26VF064B.c: 253:     SST26VF064B_Hold(1);
  7509  00348C  0E01               	movlw	1
  7510  00348E  EC13  F01E         	call	_SST26VF064B_Hold
  7511  003492                     
  7512                           ;SST26VF064B.c: 256:     SST26VF064B_info_t deviceInfo;;SST26VF064B.c: 257:     SST26VF0
      +                          64B_GetDeviceInfo( &deviceInfo );
  7513  003492  0E09               	movlw	low SST26VF064B_Initialize@deviceInfo
  7514  003494  6E07               	movwf	SST26VF064B_GetDeviceInfo@info^(0+1280),c
  7515  003496  0E05               	movlw	high SST26VF064B_Initialize@deviceInfo
  7516  003498  6E08               	movwf	(SST26VF064B_GetDeviceInfo@info+1)^(0+1280),c
  7517  00349A  EC88  F01D         	call	_SST26VF064B_GetDeviceInfo	;wreg free
  7518  00349E                     
  7519                           ;SST26VF064B.c: 260:     if(deviceInfo.manu_id == 0xBF && deviceInfo.device_type == 0x26
      +                           && deviceInfo.device_id == 0x43)
  7520  00349E  0EBF               	movlw	191
  7521  0034A0  1809               	xorwf	SST26VF064B_Initialize@deviceInfo^(0+1280),w,c
  7522  0034A2  A4D8               	btfss	status,2,c
  7523  0034A4  EF56  F01A         	goto	u1501
  7524  0034A8  EF58  F01A         	goto	u1500
  7525  0034AC                     u1501:
  7526  0034AC  EF6D  F01A         	goto	l5215
  7527  0034B0                     u1500:
  7528  0034B0  0E26               	movlw	38
  7529  0034B2  180A               	xorwf	(SST26VF064B_Initialize@deviceInfo+1)^(0+1280),w,c
  7530  0034B4  A4D8               	btfss	status,2,c
  7531  0034B6  EF5F  F01A         	goto	u1511
  7532  0034BA  EF61  F01A         	goto	u1510
  7533  0034BE                     u1511:
  7534  0034BE  EF6D  F01A         	goto	l5215
  7535  0034C2                     u1510:
  7536  0034C2  0E43               	movlw	67
  7537  0034C4  180B               	xorwf	(SST26VF064B_Initialize@deviceInfo+2)^(0+1280),w,c
  7538  0034C6  A4D8               	btfss	status,2,c
  7539  0034C8  EF68  F01A         	goto	u1521
  7540  0034CC  EF6A  F01A         	goto	u1520
  7541  0034D0                     u1521:
  7542  0034D0  EF6D  F01A         	goto	l5215
  7543  0034D4                     u1520:
  7544  0034D4                     
  7545                           ;SST26VF064B.c: 261:         return 1;
  7546  0034D4  0E01               	movlw	1
  7547  0034D6  EF6E  F01A         	goto	l2265
  7548  0034DA                     l5215:
  7549                           
  7550                           ;SST26VF064B.c: 263:     return 0;
  7551  0034DA  0E00               	movlw	0
  7552  0034DC                     l2265:
  7553  0034DC  0012               	return		;funcret
  7554  0034DE                     __end_of_SST26VF064B_Initialize:
  7555                           	callstack 0
  7556                           
  7557 ;; *************** function _SST26VF064B_WP_High *****************
  7558 ;; Defined at:
  7559 ;;		line 41 in file "SST26VF064B.c"
  7560 ;; Parameters:    Size  Location     Type
  7561 ;;		None
  7562 ;; Auto vars:     Size  Location     Type
  7563 ;;		None
  7564 ;; Return value:  Size  Location     Type
  7565 ;;                  1    wreg      void 
  7566 ;; Registers used:
  7567 ;;		None
  7568 ;; Tracked objects:
  7569 ;;		On entry : 0/0
  7570 ;;		On exit  : 0/0
  7571 ;;		Unchanged: 0/0
  7572 ;; Data sizes:     COMRAM   BANK5   BANK6   BANK7   BANK8   BANK9  BANK10  BANK11  BANK12  BANK13  BANK14  BANK15  BANK1
      +6  BANK17  BANK18  BANK19  BANK20  BANK21  BANK22  BANK23  BANK24  BANK25  BANK26  BANK27  BANK28  BANK29  BANK30  BANK3
      +1  BANK32  BANK33  BANK34  BANK35  BANK36
  7573 ;;      Params:         0       0       0       0       0       0       0       0       0       0       0       0       
      +0       0       0       0       0       0       0       0       0       0       0       0       0       0       0       
      +0       0       0       0       0       0
  7574 ;;      Locals:         0       0       0       0       0       0       0       0       0       0       0       0       
      +0       0       0       0       0       0       0       0       0       0       0       0       0       0       0       
      +0       0       0       0       0       0
  7575 ;;      Temps:          0       0       0       0       0       0       0       0       0       0       0       0       
      +0       0       0       0       0       0       0       0       0       0       0       0       0       0       0       
      +0       0       0       0       0       0
  7576 ;;      Totals:         0       0       0       0       0       0       0       0       0       0       0       0       
      +0       0       0       0       0       0       0       0       0       0       0       0       0       0       0       
      +0       0       0       0       0       0
  7577 ;;Total ram usage:        0 bytes
  7578 ;; Hardware stack levels used:    1
  7579 ;; Hardware stack levels required when called:    3
  7580 ;; This function calls:
  7581 ;;		Nothing
  7582 ;; This function is called by:
  7583 ;;		_SST26VF064B_Initialize
  7584 ;; This function uses a non-reentrant model
  7585 ;;
  7586                           
  7587                           	psect	text73
  7588  003E76                     __ptext73:
  7589                           	callstack 0
  7590  003E76                     _SST26VF064B_WP_High:
  7591                           	callstack 122
  7592  003E76  86BF               	bsf	191,3,c	;volatile
  7593  003E78  0012               	return		;funcret
  7594  003E7A                     __end_of_SST26VF064B_WP_High:
  7595                           	callstack 0
  7596                           
  7597 ;; *************** function _SST26VF064B_Hold *****************
  7598 ;; Defined at:
  7599 ;;		line 45 in file "SST26VF064B.c"
  7600 ;; Parameters:    Size  Location     Type
  7601 ;;  state           1    wreg     _Bool 
  7602 ;; Auto vars:     Size  Location     Type
  7603 ;;  state           1    1[COMRAM] _Bool 
  7604 ;; Return value:  Size  Location     Type
  7605 ;;                  1    wreg      void 
  7606 ;; Registers used:
  7607 ;;		wreg, status,2
  7608 ;; Tracked objects:
  7609 ;;		On entry : 0/0
  7610 ;;		On exit  : 0/0
  7611 ;;		Unchanged: 0/0
  7612 ;; Data sizes:     COMRAM   BANK5   BANK6   BANK7   BANK8   BANK9  BANK10  BANK11  BANK12  BANK13  BANK14  BANK15  BANK1
      +6  BANK17  BANK18  BANK19  BANK20  BANK21  BANK22  BANK23  BANK24  BANK25  BANK26  BANK27  BANK28  BANK29  BANK30  BANK3
      +1  BANK32  BANK33  BANK34  BANK35  BANK36
  7613 ;;      Params:         0       0       0       0       0       0       0       0       0       0       0       0       
      +0       0       0       0       0       0       0       0       0       0       0       0       0       0       0       
      +0       0       0       0       0       0
  7614 ;;      Locals:         1       0       0       0       0       0       0       0       0       0       0       0       
      +0       0       0       0       0       0       0       0       0       0       0       0       0       0       0       
      +0       0       0       0       0       0
  7615 ;;      Temps:          0       0       0       0       0       0       0       0       0       0       0       0       
      +0       0       0       0       0       0       0       0       0       0       0       0       0       0       0       
      +0       0       0       0       0       0
  7616 ;;      Totals:         1       0       0       0       0       0       0       0       0       0       0       0       
      +0       0       0       0       0       0       0       0       0       0       0       0       0       0       0       
      +0       0       0       0       0       0
  7617 ;;Total ram usage:        1 bytes
  7618 ;; Hardware stack levels used:    1
  7619 ;; Hardware stack levels required when called:    3
  7620 ;; This function calls:
  7621 ;;		Nothing
  7622 ;; This function is called by:
  7623 ;;		_SST26VF064B_Initialize
  7624 ;; This function uses a non-reentrant model
  7625 ;;
  7626                           
  7627                           	psect	text74
  7628  003C26                     __ptext74:
  7629                           	callstack 0
  7630  003C26                     _SST26VF064B_Hold:
  7631                           	callstack 122
  7632                           
  7633                           ;incstack = 0
  7634                           ;SST26VF064B_Hold@state stored from wreg
  7635  003C26  6E02               	movwf	SST26VF064B_Hold@state^(0+1280),c
  7636  003C28                     
  7637                           ;SST26VF064B.c: 45: void SST26VF064B_Hold( _Bool state );SST26VF064B.c: 46: {;SST26VF064
      +                          B.c: 47:     if( state )
  7638  003C28  5002               	movf	SST26VF064B_Hold@state^(0+1280),w,c
  7639  003C2A  B4D8               	btfsc	status,2,c
  7640  003C2C  EF1A  F01E         	goto	u131
  7641  003C30  EF1C  F01E         	goto	u130
  7642  003C34                     u131:
  7643  003C34  EF1F  F01E         	goto	l2172
  7644  003C38                     u130:
  7645  003C38  8EC0               	bsf	192,7,c	;volatile
  7646  003C3A  EF20  F01E         	goto	l2174
  7647  003C3E                     l2172:
  7648  003C3E  9EC0               	bcf	192,7,c	;volatile
  7649  003C40                     l2174:
  7650  003C40  0012               	return		;funcret
  7651  003C42                     __end_of_SST26VF064B_Hold:
  7652                           	callstack 0
  7653                           
  7654 ;; *************** function _SST26VF064B_GetDeviceInfo *****************
  7655 ;; Defined at:
  7656 ;;		line 239 in file "SST26VF064B.c"
  7657 ;; Parameters:    Size  Location     Type
  7658 ;;  info            2    6[COMRAM] PTR struct SST26VF064B_i
  7659 ;;		 -> SST26VF064B_Initialize@deviceInfo(3), 
  7660 ;; Auto vars:     Size  Location     Type
  7661 ;;		None
  7662 ;; Return value:  Size  Location     Type
  7663 ;;                  1    wreg      void 
  7664 ;; Registers used:
  7665 ;;		wreg, fsr2l, fsr2h, status,2, status,0, cstack
  7666 ;; Tracked objects:
  7667 ;;		On entry : 0/0
  7668 ;;		On exit  : 0/0
  7669 ;;		Unchanged: 0/0
  7670 ;; Data sizes:     COMRAM   BANK5   BANK6   BANK7   BANK8   BANK9  BANK10  BANK11  BANK12  BANK13  BANK14  BANK15  BANK1
      +6  BANK17  BANK18  BANK19  BANK20  BANK21  BANK22  BANK23  BANK24  BANK25  BANK26  BANK27  BANK28  BANK29  BANK30  BANK3
      +1  BANK32  BANK33  BANK34  BANK35  BANK36
  7671 ;;      Params:         2       0       0       0       0       0       0       0       0       0       0       0       
      +0       0       0       0       0       0       0       0       0       0       0       0       0       0       0       
      +0       0       0       0       0       0
  7672 ;;      Locals:         0       0       0       0       0       0       0       0       0       0       0       0       
      +0       0       0       0       0       0       0       0       0       0       0       0       0       0       0       
      +0       0       0       0       0       0
  7673 ;;      Temps:          0       0       0       0       0       0       0       0       0       0       0       0       
      +0       0       0       0       0       0       0       0       0       0       0       0       0       0       0       
      +0       0       0       0       0       0
  7674 ;;      Totals:         2       0       0       0       0       0       0       0       0       0       0       0       
      +0       0       0       0       0       0       0       0       0       0       0       0       0       0       0       
      +0       0       0       0       0       0
  7675 ;;Total ram usage:        2 bytes
  7676 ;; Hardware stack levels used:    1
  7677 ;; Hardware stack levels required when called:    6
  7678 ;; This function calls:
  7679 ;;		_SST26VF064B_CS_High
  7680 ;;		_SST26VF064B_CS_Low
  7681 ;;		_SST26VF064B_JEDECID_Cmd
  7682 ;;		_SST26VF064B_SPI_ReadBuffer
  7683 ;; This function is called by:
  7684 ;;		_SST26VF064B_Initialize
  7685 ;; This function uses a non-reentrant model
  7686 ;;
  7687                           
  7688                           	psect	text75
  7689  003B10                     __ptext75:
  7690                           	callstack 0
  7691  003B10                     _SST26VF064B_GetDeviceInfo:
  7692                           	callstack 119
  7693  003B10                     
  7694                           ;SST26VF064B.c: 239: void SST26VF064B_GetDeviceInfo( SST26VF064B_info_t* info );SST26VF0
      +                          64B.c: 240: {;SST26VF064B.c: 243:     SST26VF064B_CS_Low();
  7695  003B10  EC3D  F01F         	call	_SST26VF064B_CS_Low	;wreg free
  7696  003B14                     
  7697                           ;SST26VF064B.c: 244:     SST26VF064B_JEDECID_Cmd();
  7698  003B14  EC18  F01F         	call	_SST26VF064B_JEDECID_Cmd	;wreg free
  7699  003B18                     
  7700                           ;SST26VF064B.c: 245:     SST26VF064B_SPI_ReadBuffer( (uint8_t*)info, 3 );
  7701  003B18  C507  F503         	movff	SST26VF064B_GetDeviceInfo@info,SST26VF064B_SPI_ReadBuffer@buffer
  7702  003B1C  C508  F504         	movff	SST26VF064B_GetDeviceInfo@info+1,SST26VF064B_SPI_ReadBuffer@buffer+1
  7703  003B20  0E00               	movlw	0
  7704  003B22  6E06               	movwf	(SST26VF064B_SPI_ReadBuffer@count+1)^(0+1280),c
  7705  003B24  0E03               	movlw	3
  7706  003B26  6E05               	movwf	SST26VF064B_SPI_ReadBuffer@count^(0+1280),c
  7707  003B28  EC3F  F01C         	call	_SST26VF064B_SPI_ReadBuffer	;wreg free
  7708  003B2C                     
  7709                           ;SST26VF064B.c: 246:     SST26VF064B_CS_High();
  7710  003B2C  EC3F  F01F         	call	_SST26VF064B_CS_High	;wreg free
  7711  003B30  0012               	return		;funcret
  7712  003B32                     __end_of_SST26VF064B_GetDeviceInfo:
  7713                           	callstack 0
  7714                           
  7715 ;; *************** function _SST26VF064B_SPI_ReadBuffer *****************
  7716 ;; Defined at:
  7717 ;;		line 86 in file "SST26VF064B.c"
  7718 ;; Parameters:    Size  Location     Type
  7719 ;;  buffer          2    2[COMRAM] PTR unsigned char 
  7720 ;;		 -> SST26VF064B_Initialize@deviceInfo(3), 
  7721 ;;  count           2    4[COMRAM] unsigned short 
  7722 ;; Auto vars:     Size  Location     Type
  7723 ;;		None
  7724 ;; Return value:  Size  Location     Type
  7725 ;;                  1    wreg      void 
  7726 ;; Registers used:
  7727 ;;		wreg, fsr2l, fsr2h, status,2, status,0, cstack
  7728 ;; Tracked objects:
  7729 ;;		On entry : 0/0
  7730 ;;		On exit  : 0/0
  7731 ;;		Unchanged: 0/0
  7732 ;; Data sizes:     COMRAM   BANK5   BANK6   BANK7   BANK8   BANK9  BANK10  BANK11  BANK12  BANK13  BANK14  BANK15  BANK1
      +6  BANK17  BANK18  BANK19  BANK20  BANK21  BANK22  BANK23  BANK24  BANK25  BANK26  BANK27  BANK28  BANK29  BANK30  BANK3
      +1  BANK32  BANK33  BANK34  BANK35  BANK36
  7733 ;;      Params:         4       0       0       0       0       0       0       0       0       0       0       0       
      +0       0       0       0       0       0       0       0       0       0       0       0       0       0       0       
      +0       0       0       0       0       0
  7734 ;;      Locals:         0       0       0       0       0       0       0       0       0       0       0       0       
      +0       0       0       0       0       0       0       0       0       0       0       0       0       0       0       
      +0       0       0       0       0       0
  7735 ;;      Temps:          0       0       0       0       0       0       0       0       0       0       0       0       
      +0       0       0       0       0       0       0       0       0       0       0       0       0       0       0       
      +0       0       0       0       0       0
  7736 ;;      Totals:         4       0       0       0       0       0       0       0       0       0       0       0       
      +0       0       0       0       0       0       0       0       0       0       0       0       0       0       0       
      +0       0       0       0       0       0
  7737 ;;Total ram usage:        4 bytes
  7738 ;; Hardware stack levels used:    1
  7739 ;; Hardware stack levels required when called:    4
  7740 ;; This function calls:
  7741 ;;		_SPI1_ExchangeByte
  7742 ;; This function is called by:
  7743 ;;		_SST26VF064B_GetDeviceInfo
  7744 ;; This function uses a non-reentrant model
  7745 ;;
  7746                           
  7747                           	psect	text76
  7748  00387E                     __ptext76:
  7749                           	callstack 0
  7750  00387E                     _SST26VF064B_SPI_ReadBuffer:
  7751                           	callstack 120
  7752  00387E                     
  7753                           ;SST26VF064B.c: 86: void SST26VF064B_SPI_ReadBuffer( uint8_t *buffer, uint16_t count );S
      +                          ST26VF064B.c: 87: {;SST26VF064B.c: 88:     while( count-- )
  7754  00387E  EF4D  F01C         	goto	l4989
  7755  003882                     l4985:
  7756                           
  7757                           ;SST26VF064B.c: 89:     {;SST26VF064B.c: 90:         *( buffer++ ) = SPI1_ExchangeByte( 
      +                          0x00 );
  7758  003882  0E00               	movlw	0
  7759  003884  EC99  F01D         	call	_SPI1_ExchangeByte
  7760  003888  0061  F40C  F4D9   	movff	SST26VF064B_SPI_ReadBuffer@buffer,fsr2l
  7761  00388E  0061  F410  F4DA   	movff	SST26VF064B_SPI_ReadBuffer@buffer+1,fsr2h
  7762  003894  6EDF               	movwf	indf2,c
  7763  003896  4A03               	infsnz	SST26VF064B_SPI_ReadBuffer@buffer^(0+1280),f,c
  7764  003898  2A04               	incf	(SST26VF064B_SPI_ReadBuffer@buffer+1)^(0+1280),f,c
  7765  00389A                     l4989:
  7766                           
  7767                           ;SST26VF064B.c: 88:     while( count-- )
  7768  00389A  0605               	decf	SST26VF064B_SPI_ReadBuffer@count^(0+1280),f,c
  7769  00389C  A0D8               	btfss	status,0,c
  7770  00389E  0606               	decf	(SST26VF064B_SPI_ReadBuffer@count+1)^(0+1280),f,c
  7771  0038A0  2805               	incf	SST26VF064B_SPI_ReadBuffer@count^(0+1280),w,c
  7772  0038A2  E106               	bnz	u1351
  7773  0038A4  2806               	incf	(SST26VF064B_SPI_ReadBuffer@count+1)^(0+1280),w,c
  7774  0038A6  A4D8               	btfss	status,2,c
  7775  0038A8  EF58  F01C         	goto	u1351
  7776  0038AC  EF5A  F01C         	goto	u1350
  7777  0038B0                     u1351:
  7778  0038B0  EF41  F01C         	goto	l4985
  7779  0038B4                     u1350:
  7780  0038B4  0012               	return		;funcret
  7781  0038B6                     __end_of_SST26VF064B_SPI_ReadBuffer:
  7782                           	callstack 0
  7783                           
  7784 ;; *************** function _SST26VF064B_JEDECID_Cmd *****************
  7785 ;; Defined at:
  7786 ;;		line 232 in file "SST26VF064B.c"
  7787 ;; Parameters:    Size  Location     Type
  7788 ;;		None
  7789 ;; Auto vars:     Size  Location     Type
  7790 ;;		None
  7791 ;; Return value:  Size  Location     Type
  7792 ;;                  1    wreg      void 
  7793 ;; Registers used:
  7794 ;;		wreg, status,2, cstack
  7795 ;; Tracked objects:
  7796 ;;		On entry : 0/0
  7797 ;;		On exit  : 0/0
  7798 ;;		Unchanged: 0/0
  7799 ;; Data sizes:     COMRAM   BANK5   BANK6   BANK7   BANK8   BANK9  BANK10  BANK11  BANK12  BANK13  BANK14  BANK15  BANK1
      +6  BANK17  BANK18  BANK19  BANK20  BANK21  BANK22  BANK23  BANK24  BANK25  BANK26  BANK27  BANK28  BANK29  BANK30  BANK3
      +1  BANK32  BANK33  BANK34  BANK35  BANK36
  7800 ;;      Params:         0       0       0       0       0       0       0       0       0       0       0       0       
      +0       0       0       0       0       0       0       0       0       0       0       0       0       0       0       
      +0       0       0       0       0       0
  7801 ;;      Locals:         0       0       0       0       0       0       0       0       0       0       0       0       
      +0       0       0       0       0       0       0       0       0       0       0       0       0       0       0       
      +0       0       0       0       0       0
  7802 ;;      Temps:          0       0       0       0       0       0       0       0       0       0       0       0       
      +0       0       0       0       0       0       0       0       0       0       0       0       0       0       0       
      +0       0       0       0       0       0
  7803 ;;      Totals:         0       0       0       0       0       0       0       0       0       0       0       0       
      +0       0       0       0       0       0       0       0       0       0       0       0       0       0       0       
      +0       0       0       0       0       0
  7804 ;;Total ram usage:        0 bytes
  7805 ;; Hardware stack levels used:    1
  7806 ;; Hardware stack levels required when called:    5
  7807 ;; This function calls:
  7808 ;;		_SST26VF064B_Command
  7809 ;; This function is called by:
  7810 ;;		_SST26VF064B_GetDeviceInfo
  7811 ;; This function uses a non-reentrant model
  7812 ;;
  7813                           
  7814                           	psect	text77
  7815  003E30                     __ptext77:
  7816                           	callstack 0
  7817  003E30                     _SST26VF064B_JEDECID_Cmd:
  7818                           	callstack 119
  7819  003E30                     
  7820                           ;SST26VF064B.c: 234:     SST26VF064B_Command( CMD_JEDECID );
  7821  003E30  0E9F               	movlw	159
  7822  003E32  EC02  F01F         	call	_SST26VF064B_Command
  7823  003E36  0012               	return		;funcret
  7824  003E38                     __end_of_SST26VF064B_JEDECID_Cmd:
  7825                           	callstack 0
  7826                           
  7827 ;; *************** function _SST26VF064B_GlobalBlockUnlock *****************
  7828 ;; Defined at:
  7829 ;;		line 180 in file "SST26VF064B.c"
  7830 ;; Parameters:    Size  Location     Type
  7831 ;;		None
  7832 ;; Auto vars:     Size  Location     Type
  7833 ;;		None
  7834 ;; Return value:  Size  Location     Type
  7835 ;;                  1    wreg      void 
  7836 ;; Registers used:
  7837 ;;		wreg, status,2, status,0, cstack
  7838 ;; Tracked objects:
  7839 ;;		On entry : 0/0
  7840 ;;		On exit  : 0/0
  7841 ;;		Unchanged: 0/0
  7842 ;; Data sizes:     COMRAM   BANK5   BANK6   BANK7   BANK8   BANK9  BANK10  BANK11  BANK12  BANK13  BANK14  BANK15  BANK1
      +6  BANK17  BANK18  BANK19  BANK20  BANK21  BANK22  BANK23  BANK24  BANK25  BANK26  BANK27  BANK28  BANK29  BANK30  BANK3
      +1  BANK32  BANK33  BANK34  BANK35  BANK36
  7843 ;;      Params:         0       0       0       0       0       0       0       0       0       0       0       0       
      +0       0       0       0       0       0       0       0       0       0       0       0       0       0       0       
      +0       0       0       0       0       0
  7844 ;;      Locals:         0       0       0       0       0       0       0       0       0       0       0       0       
      +0       0       0       0       0       0       0       0       0       0       0       0       0       0       0       
      +0       0       0       0       0       0
  7845 ;;      Temps:          0       0       0       0       0       0       0       0       0       0       0       0       
      +0       0       0       0       0       0       0       0       0       0       0       0       0       0       0       
      +0       0       0       0       0       0
  7846 ;;      Totals:         0       0       0       0       0       0       0       0       0       0       0       0       
      +0       0       0       0       0       0       0       0       0       0       0       0       0       0       0       
      +0       0       0       0       0       0
  7847 ;;Total ram usage:        0 bytes
  7848 ;; Hardware stack levels used:    1
  7849 ;; Hardware stack levels required when called:    6
  7850 ;; This function calls:
  7851 ;;		_SST26VF064B_Busy
  7852 ;;		_SST26VF064B_CS_High
  7853 ;;		_SST26VF064B_CS_Low
  7854 ;;		_SST26VF064B_Command
  7855 ;;		_SST26VF064B_WriteEnable
  7856 ;; This function is called by:
  7857 ;;		_APP_Initialize
  7858 ;; This function uses a non-reentrant model
  7859 ;;
  7860                           
  7861                           	psect	text78
  7862  003A08                     __ptext78:
  7863                           	callstack 0
  7864  003A08                     _SST26VF064B_GlobalBlockUnlock:
  7865                           	callstack 120
  7866  003A08                     l3585:
  7867  003A08  ECE8  F01D         	call	_SST26VF064B_Busy	;wreg free
  7868  003A0C  0900               	iorlw	0
  7869  003A0E  A4D8               	btfss	status,2,c
  7870  003A10  EF0C  F01D         	goto	u411
  7871  003A14  EF0E  F01D         	goto	u410
  7872  003A18                     u411:
  7873  003A18  EF04  F01D         	goto	l3585
  7874  003A1C                     u410:
  7875  003A1C                     
  7876                           ;SST26VF064B.c: 184:     SST26VF064B_WriteEnable();
  7877  003A1C  EC92  F01E         	call	_SST26VF064B_WriteEnable	;wreg free
  7878  003A20                     
  7879                           ;SST26VF064B.c: 185:     SST26VF064B_CS_Low();
  7880  003A20  EC3D  F01F         	call	_SST26VF064B_CS_Low	;wreg free
  7881  003A24                     
  7882                           ;SST26VF064B.c: 186:     SST26VF064B_Command( CMD_ULBPR );
  7883  003A24  0E98               	movlw	152
  7884  003A26  EC02  F01F         	call	_SST26VF064B_Command
  7885                           
  7886                           ;SST26VF064B.c: 187:     SST26VF064B_CS_High();
  7887  003A2A  EC3F  F01F         	call	_SST26VF064B_CS_High	;wreg free
  7888  003A2E  0012               	return		;funcret
  7889  003A30                     __end_of_SST26VF064B_GlobalBlockUnlock:
  7890                           	callstack 0
  7891                           
  7892 ;; *************** function _SST26VF064B_WriteEnable *****************
  7893 ;; Defined at:
  7894 ;;		line 192 in file "SST26VF064B.c"
  7895 ;; Parameters:    Size  Location     Type
  7896 ;;		None
  7897 ;; Auto vars:     Size  Location     Type
  7898 ;;		None
  7899 ;; Return value:  Size  Location     Type
  7900 ;;                  1    wreg      void 
  7901 ;; Registers used:
  7902 ;;		wreg, status,2, cstack
  7903 ;; Tracked objects:
  7904 ;;		On entry : 0/0
  7905 ;;		On exit  : 0/0
  7906 ;;		Unchanged: 0/0
  7907 ;; Data sizes:     COMRAM   BANK5   BANK6   BANK7   BANK8   BANK9  BANK10  BANK11  BANK12  BANK13  BANK14  BANK15  BANK1
      +6  BANK17  BANK18  BANK19  BANK20  BANK21  BANK22  BANK23  BANK24  BANK25  BANK26  BANK27  BANK28  BANK29  BANK30  BANK3
      +1  BANK32  BANK33  BANK34  BANK35  BANK36
  7908 ;;      Params:         0       0       0       0       0       0       0       0       0       0       0       0       
      +0       0       0       0       0       0       0       0       0       0       0       0       0       0       0       
      +0       0       0       0       0       0
  7909 ;;      Locals:         0       0       0       0       0       0       0       0       0       0       0       0       
      +0       0       0       0       0       0       0       0       0       0       0       0       0       0       0       
      +0       0       0       0       0       0
  7910 ;;      Temps:          0       0       0       0       0       0       0       0       0       0       0       0       
      +0       0       0       0       0       0       0       0       0       0       0       0       0       0       0       
      +0       0       0       0       0       0
  7911 ;;      Totals:         0       0       0       0       0       0       0       0       0       0       0       0       
      +0       0       0       0       0       0       0       0       0       0       0       0       0       0       0       
      +0       0       0       0       0       0
  7912 ;;Total ram usage:        0 bytes
  7913 ;; Hardware stack levels used:    1
  7914 ;; Hardware stack levels required when called:    5
  7915 ;; This function calls:
  7916 ;;		_SST26VF064B_CS_High
  7917 ;;		_SST26VF064B_CS_Low
  7918 ;;		_SST26VF064B_Command
  7919 ;; This function is called by:
  7920 ;;		_AUDIO_Record
  7921 ;;		_SST26VF064B_ChipErase
  7922 ;;		_SST26VF064B_GlobalBlockUnlock
  7923 ;;		_SST26VF064B_SectorErase
  7924 ;;		_SST26VF064B_BlockErase
  7925 ;;		_SST26VF064B_Lock_BPR
  7926 ;; This function uses a non-reentrant model
  7927 ;;
  7928                           
  7929                           	psect	text79
  7930  003D24                     __ptext79:
  7931                           	callstack 0
  7932  003D24                     _SST26VF064B_WriteEnable:
  7933                           	callstack 121
  7934  003D24                     
  7935                           ;SST26VF064B.c: 194:     SST26VF064B_CS_Low();
  7936  003D24  EC3D  F01F         	call	_SST26VF064B_CS_Low	;wreg free
  7937  003D28                     
  7938                           ;SST26VF064B.c: 195:     SST26VF064B_Command( CMD_WREN );
  7939  003D28  0E06               	movlw	6
  7940  003D2A  EC02  F01F         	call	_SST26VF064B_Command
  7941  003D2E                     
  7942                           ;SST26VF064B.c: 196:     SST26VF064B_CS_High();
  7943  003D2E  EC3F  F01F         	call	_SST26VF064B_CS_High	;wreg free
  7944  003D32  0012               	return		;funcret
  7945  003D34                     __end_of_SST26VF064B_WriteEnable:
  7946                           	callstack 0
  7947                           
  7948 ;; *************** function _SST26VF064B_Busy *****************
  7949 ;; Defined at:
  7950 ;;		line 60 in file "SST26VF064B.c"
  7951 ;; Parameters:    Size  Location     Type
  7952 ;;		None
  7953 ;; Auto vars:     Size  Location     Type
  7954 ;;  temp            1    3[COMRAM] unsigned char 
  7955 ;; Return value:  Size  Location     Type
  7956 ;;                  1    wreg      unsigned char 
  7957 ;; Registers used:
  7958 ;;		wreg, status,2, status,0, cstack
  7959 ;; Tracked objects:
  7960 ;;		On entry : 0/0
  7961 ;;		On exit  : 0/0
  7962 ;;		Unchanged: 0/0
  7963 ;; Data sizes:     COMRAM   BANK5   BANK6   BANK7   BANK8   BANK9  BANK10  BANK11  BANK12  BANK13  BANK14  BANK15  BANK1
      +6  BANK17  BANK18  BANK19  BANK20  BANK21  BANK22  BANK23  BANK24  BANK25  BANK26  BANK27  BANK28  BANK29  BANK30  BANK3
      +1  BANK32  BANK33  BANK34  BANK35  BANK36
  7964 ;;      Params:         0       0       0       0       0       0       0       0       0       0       0       0       
      +0       0       0       0       0       0       0       0       0       0       0       0       0       0       0       
      +0       0       0       0       0       0
  7965 ;;      Locals:         1       0       0       0       0       0       0       0       0       0       0       0       
      +0       0       0       0       0       0       0       0       0       0       0       0       0       0       0       
      +0       0       0       0       0       0
  7966 ;;      Temps:          0       0       0       0       0       0       0       0       0       0       0       0       
      +0       0       0       0       0       0       0       0       0       0       0       0       0       0       0       
      +0       0       0       0       0       0
  7967 ;;      Totals:         1       0       0       0       0       0       0       0       0       0       0       0       
      +0       0       0       0       0       0       0       0       0       0       0       0       0       0       0       
      +0       0       0       0       0       0
  7968 ;;Total ram usage:        1 bytes
  7969 ;; Hardware stack levels used:    1
  7970 ;; Hardware stack levels required when called:    5
  7971 ;; This function calls:
  7972 ;;		_SST26VF064B_CS_High
  7973 ;;		_SST26VF064B_CS_Low
  7974 ;;		_SST26VF064B_Command
  7975 ;;		_SST26VF064B_SPI_ReadByte
  7976 ;; This function is called by:
  7977 ;;		_AUDIO_Erase
  7978 ;;		_AUDIO_Record
  7979 ;;		_AUDIO_Playback
  7980 ;;		_SST26VF064B_ChipErase
  7981 ;;		_SST26VF064B_GlobalBlockUnlock
  7982 ;;		_SST26VF064B_Reset
  7983 ;;		_SST26VF064B_SectorErase
  7984 ;;		_SST26VF064B_BlockErase
  7985 ;;		_SST26VF064B_Lock_BPR
  7986 ;; This function uses a non-reentrant model
  7987 ;;
  7988                           
  7989                           	psect	text80
  7990  003BD0                     __ptext80:
  7991                           	callstack 0
  7992  003BD0                     _SST26VF064B_Busy:
  7993                           	callstack 121
  7994  003BD0                     
  7995                           ;SST26VF064B.c: 62:     uint8_t temp;;SST26VF064B.c: 64:     SST26VF064B_CS_Low();
  7996  003BD0  EC3D  F01F         	call	_SST26VF064B_CS_Low	;wreg free
  7997  003BD4                     
  7998                           ;SST26VF064B.c: 65:     SST26VF064B_Command( CMD_RDSR );
  7999  003BD4  0E05               	movlw	5
  8000  003BD6  EC02  F01F         	call	_SST26VF064B_Command
  8001  003BDA                     
  8002                           ;SST26VF064B.c: 66:     temp = SST26VF064B_SPI_ReadByte( 0 );
  8003  003BDA  0E00               	movlw	0
  8004  003BDC  ECF2  F01E         	call	_SST26VF064B_SPI_ReadByte
  8005  003BE0  6E04               	movwf	SST26VF064B_Busy@temp^(0+1280),c
  8006                           
  8007                           ;SST26VF064B.c: 67:     SST26VF064B_CS_High();
  8008  003BE2  EC3F  F01F         	call	_SST26VF064B_CS_High	;wreg free
  8009  003BE6                     
  8010                           ;SST26VF064B.c: 68:     temp &= STATUS_BUSY;
  8011  003BE6  0E80               	movlw	128
  8012  003BE8  1604               	andwf	SST26VF064B_Busy@temp^(0+1280),f,c
  8013  003BEA                     
  8014                           ;SST26VF064B.c: 69:     return temp;
  8015  003BEA  5004               	movf	SST26VF064B_Busy@temp^(0+1280),w,c
  8016  003BEC  0012               	return		;funcret
  8017  003BEE                     __end_of_SST26VF064B_Busy:
  8018                           	callstack 0
  8019                           
  8020 ;; *************** function _SST26VF064B_SPI_ReadByte *****************
  8021 ;; Defined at:
  8022 ;;		line 72 in file "SST26VF064B.c"
  8023 ;; Parameters:    Size  Location     Type
  8024 ;;  value           1    wreg     unsigned char 
  8025 ;; Auto vars:     Size  Location     Type
  8026 ;;  value           1    2[COMRAM] unsigned char 
  8027 ;; Return value:  Size  Location     Type
  8028 ;;                  1    wreg      unsigned char 
  8029 ;; Registers used:
  8030 ;;		wreg, status,2, cstack
  8031 ;; Tracked objects:
  8032 ;;		On entry : 0/0
  8033 ;;		On exit  : 0/0
  8034 ;;		Unchanged: 0/0
  8035 ;; Data sizes:     COMRAM   BANK5   BANK6   BANK7   BANK8   BANK9  BANK10  BANK11  BANK12  BANK13  BANK14  BANK15  BANK1
      +6  BANK17  BANK18  BANK19  BANK20  BANK21  BANK22  BANK23  BANK24  BANK25  BANK26  BANK27  BANK28  BANK29  BANK30  BANK3
      +1  BANK32  BANK33  BANK34  BANK35  BANK36
  8036 ;;      Params:         0       0       0       0       0       0       0       0       0       0       0       0       
      +0       0       0       0       0       0       0       0       0       0       0       0       0       0       0       
      +0       0       0       0       0       0
  8037 ;;      Locals:         1       0       0       0       0       0       0       0       0       0       0       0       
      +0       0       0       0       0       0       0       0       0       0       0       0       0       0       0       
      +0       0       0       0       0       0
  8038 ;;      Temps:          0       0       0       0       0       0       0       0       0       0       0       0       
      +0       0       0       0       0       0       0       0       0       0       0       0       0       0       0       
      +0       0       0       0       0       0
  8039 ;;      Totals:         1       0       0       0       0       0       0       0       0       0       0       0       
      +0       0       0       0       0       0       0       0       0       0       0       0       0       0       0       
      +0       0       0       0       0       0
  8040 ;;Total ram usage:        1 bytes
  8041 ;; Hardware stack levels used:    1
  8042 ;; Hardware stack levels required when called:    4
  8043 ;; This function calls:
  8044 ;;		_SPI1_ExchangeByte
  8045 ;; This function is called by:
  8046 ;;		_SST26VF064B_Busy
  8047 ;; This function uses a non-reentrant model
  8048 ;;
  8049                           
  8050                           	psect	text81
  8051  003DE4                     __ptext81:
  8052                           	callstack 0
  8053  003DE4                     _SST26VF064B_SPI_ReadByte:
  8054                           	callstack 121
  8055  003DE4                     
  8056                           ;SST26VF064B.c: 72: uint8_t SST26VF064B_SPI_ReadByte( uint8_t value );SST26VF064B.c: 73:
      +                           {;SST26VF064B.c: 74:     value = SPI1_ExchangeByte( 0 );
  8057  003DE4  0E00               	movlw	0
  8058  003DE6  EC99  F01D         	call	_SPI1_ExchangeByte
  8059  003DEA  6E03               	movwf	SST26VF064B_SPI_ReadByte@value^(0+1280),c
  8060  003DEC                     
  8061                           ;SST26VF064B.c: 76:     return value;
  8062  003DEC  5003               	movf	SST26VF064B_SPI_ReadByte@value^(0+1280),w,c
  8063  003DEE  0012               	return		;funcret
  8064  003DF0                     __end_of_SST26VF064B_SPI_ReadByte:
  8065                           	callstack 0
  8066                           
  8067 ;; *************** function _SST26VF064B_Command *****************
  8068 ;; Defined at:
  8069 ;;		line 53 in file "SST26VF064B.c"
  8070 ;; Parameters:    Size  Location     Type
  8071 ;;  command         1    wreg     enum E16614
  8072 ;; Auto vars:     Size  Location     Type
  8073 ;;  command         1    2[COMRAM] enum E16614
  8074 ;; Return value:  Size  Location     Type
  8075 ;;                  1    wreg      void 
  8076 ;; Registers used:
  8077 ;;		wreg, status,2, cstack
  8078 ;; Tracked objects:
  8079 ;;		On entry : 0/0
  8080 ;;		On exit  : 0/0
  8081 ;;		Unchanged: 0/0
  8082 ;; Data sizes:     COMRAM   BANK5   BANK6   BANK7   BANK8   BANK9  BANK10  BANK11  BANK12  BANK13  BANK14  BANK15  BANK1
      +6  BANK17  BANK18  BANK19  BANK20  BANK21  BANK22  BANK23  BANK24  BANK25  BANK26  BANK27  BANK28  BANK29  BANK30  BANK3
      +1  BANK32  BANK33  BANK34  BANK35  BANK36
  8083 ;;      Params:         0       0       0       0       0       0       0       0       0       0       0       0       
      +0       0       0       0       0       0       0       0       0       0       0       0       0       0       0       
      +0       0       0       0       0       0
  8084 ;;      Locals:         1       0       0       0       0       0       0       0       0       0       0       0       
      +0       0       0       0       0       0       0       0       0       0       0       0       0       0       0       
      +0       0       0       0       0       0
  8085 ;;      Temps:          0       0       0       0       0       0       0       0       0       0       0       0       
      +0       0       0       0       0       0       0       0       0       0       0       0       0       0       0       
      +0       0       0       0       0       0
  8086 ;;      Totals:         1       0       0       0       0       0       0       0       0       0       0       0       
      +0       0       0       0       0       0       0       0       0       0       0       0       0       0       0       
      +0       0       0       0       0       0
  8087 ;;Total ram usage:        1 bytes
  8088 ;; Hardware stack levels used:    1
  8089 ;; Hardware stack levels required when called:    4
  8090 ;; This function calls:
  8091 ;;		_SPI1_ExchangeByte
  8092 ;; This function is called by:
  8093 ;;		_SST26VF064B_Busy
  8094 ;;		_SST26VF064B_ChipErase
  8095 ;;		_SST26VF064B_GlobalBlockUnlock
  8096 ;;		_SST26VF064B_WriteEnable
  8097 ;;		_SST26VF064B_PageProgram_Cmd
  8098 ;;		_SST26VF064B_Read_Cmd
  8099 ;;		_SST26VF064B_JEDECID_Cmd
  8100 ;;		_SST26VF064B_Reset
  8101 ;;		_SST26VF064B_SectorErase
  8102 ;;		_SST26VF064B_BlockErase
  8103 ;;		_SST26VF064B_Lock_BPR
  8104 ;;		_SST26VF064B_WriteDisable
  8105 ;;		_SST26VF064B_WriteSuspend
  8106 ;;		_SST26VF064B_WriteResume
  8107 ;; This function uses a non-reentrant model
  8108 ;;
  8109                           
  8110                           	psect	text82
  8111  003E04                     __ptext82:
  8112                           	callstack 0
  8113  003E04                     _SST26VF064B_Command:
  8114                           	callstack 121
  8115                           
  8116                           ;incstack = 0
  8117                           ;SST26VF064B_Command@command stored from wreg
  8118  003E04  6E03               	movwf	SST26VF064B_Command@command^(0+1280),c
  8119  003E06                     
  8120                           ;SST26VF064B.c: 53: void SST26VF064B_Command( SST26VF064B_cmd_t command );SST26VF064B.c:
      +                           54: {;SST26VF064B.c: 55:     SPI1_ExchangeByte(command);
  8121  003E06  5003               	movf	SST26VF064B_Command@command^(0+1280),w,c
  8122  003E08  EC99  F01D         	call	_SPI1_ExchangeByte
  8123  003E0C  0012               	return		;funcret
  8124  003E0E                     __end_of_SST26VF064B_Command:
  8125                           	callstack 0
  8126                           
  8127 ;; *************** function _SPI1_ExchangeByte *****************
  8128 ;; Defined at:
  8129 ;;		line 113 in file "mcc_generated_files/spi1.c"
  8130 ;; Parameters:    Size  Location     Type
  8131 ;;  data            1    wreg     unsigned char 
  8132 ;; Auto vars:     Size  Location     Type
  8133 ;;  data            1    1[COMRAM] unsigned char 
  8134 ;; Return value:  Size  Location     Type
  8135 ;;                  1    wreg      unsigned char 
  8136 ;; Registers used:
  8137 ;;		wreg, status,2
  8138 ;; Tracked objects:
  8139 ;;		On entry : 0/0
  8140 ;;		On exit  : 0/0
  8141 ;;		Unchanged: 0/0
  8142 ;; Data sizes:     COMRAM   BANK5   BANK6   BANK7   BANK8   BANK9  BANK10  BANK11  BANK12  BANK13  BANK14  BANK15  BANK1
      +6  BANK17  BANK18  BANK19  BANK20  BANK21  BANK22  BANK23  BANK24  BANK25  BANK26  BANK27  BANK28  BANK29  BANK30  BANK3
      +1  BANK32  BANK33  BANK34  BANK35  BANK36
  8143 ;;      Params:         0       0       0       0       0       0       0       0       0       0       0       0       
      +0       0       0       0       0       0       0       0       0       0       0       0       0       0       0       
      +0       0       0       0       0       0
  8144 ;;      Locals:         1       0       0       0       0       0       0       0       0       0       0       0       
      +0       0       0       0       0       0       0       0       0       0       0       0       0       0       0       
      +0       0       0       0       0       0
  8145 ;;      Temps:          0       0       0       0       0       0       0       0       0       0       0       0       
      +0       0       0       0       0       0       0       0       0       0       0       0       0       0       0       
      +0       0       0       0       0       0
  8146 ;;      Totals:         1       0       0       0       0       0       0       0       0       0       0       0       
      +0       0       0       0       0       0       0       0       0       0       0       0       0       0       0       
      +0       0       0       0       0       0
  8147 ;;Total ram usage:        1 bytes
  8148 ;; Hardware stack levels used:    1
  8149 ;; Hardware stack levels required when called:    3
  8150 ;; This function calls:
  8151 ;;		Nothing
  8152 ;; This function is called by:
  8153 ;;		_SST26VF064B_Command
  8154 ;;		_SST26VF064B_SPI_ReadByte
  8155 ;;		_SST26VF064B_SPI_ReadBuffer
  8156 ;;		_SST26VF064B_WriteAddress
  8157 ;;		_SPI1_WriteBlock
  8158 ;;		_SPI1_ReadBlock
  8159 ;;		_SST26VF064B_SPI_WriteByte
  8160 ;;		_SST26VF064B_SPI_WriteBuffer
  8161 ;; This function uses a non-reentrant model
  8162 ;;
  8163                           
  8164                           	psect	text83
  8165  003B32                     __ptext83:
  8166                           	callstack 0
  8167  003B32                     _SPI1_ExchangeByte:
  8168                           	callstack 121
  8169                           
  8170                           ;incstack = 0
  8171                           ;SPI1_ExchangeByte@data stored from wreg
  8172  003B32  6E02               	movwf	SPI1_ExchangeByte@data^(0+1280),c
  8173  003B34                     
  8174                           ;mcc_generated_files/spi1.c: 113: uint8_t SPI1_ExchangeByte(uint8_t data);mcc_generated_
      +                          files/spi1.c: 114: {;mcc_generated_files/spi1.c: 115:     SPI1TCNTL = 1;
  8175  003B34  0E01               	movlw	1
  8176  003B36  0100               	movlb	0	; () banked
  8177  003B38  6F82               	movwf	130,b	;volatile
  8178  003B3A                     
  8179                           ; BSR set to: 0
  8180                           ;mcc_generated_files/spi1.c: 116:     SPI1TXB = data;
  8181  003B3A  0061  F408  F081   	movff	SPI1_ExchangeByte@data,129	;volatile
  8182  003B40                     l971:
  8183  003B40  A0B1               	btfss	177,0,c	;volatile
  8184  003B42  EFA5  F01D         	goto	u11
  8185  003B46  EFA7  F01D         	goto	u10
  8186  003B4A                     u11:
  8187  003B4A  EFA0  F01D         	goto	l971
  8188  003B4E                     u10:
  8189  003B4E                     
  8190                           ;mcc_generated_files/spi1.c: 118:     return SPI1RXB;
  8191  003B4E  0100               	movlb	0	; () banked
  8192  003B50  5180               	movf	128,w,b	;volatile
  8193  003B52                     
  8194                           ; BSR set to: 0
  8195  003B52  0012               	return		;funcret
  8196  003B54                     __end_of_SPI1_ExchangeByte:
  8197                           	callstack 0
  8198                           
  8199 ;; *************** function _SST26VF064B_CS_Low *****************
  8200 ;; Defined at:
  8201 ;;		line 29 in file "SST26VF064B.c"
  8202 ;; Parameters:    Size  Location     Type
  8203 ;;		None
  8204 ;; Auto vars:     Size  Location     Type
  8205 ;;		None
  8206 ;; Return value:  Size  Location     Type
  8207 ;;                  1    wreg      void 
  8208 ;; Registers used:
  8209 ;;		None
  8210 ;; Tracked objects:
  8211 ;;		On entry : 0/0
  8212 ;;		On exit  : 0/0
  8213 ;;		Unchanged: 0/0
  8214 ;; Data sizes:     COMRAM   BANK5   BANK6   BANK7   BANK8   BANK9  BANK10  BANK11  BANK12  BANK13  BANK14  BANK15  BANK1
      +6  BANK17  BANK18  BANK19  BANK20  BANK21  BANK22  BANK23  BANK24  BANK25  BANK26  BANK27  BANK28  BANK29  BANK30  BANK3
      +1  BANK32  BANK33  BANK34  BANK35  BANK36
  8215 ;;      Params:         0       0       0       0       0       0       0       0       0       0       0       0       
      +0       0       0       0       0       0       0       0       0       0       0       0       0       0       0       
      +0       0       0       0       0       0
  8216 ;;      Locals:         0       0       0       0       0       0       0       0       0       0       0       0       
      +0       0       0       0       0       0       0       0       0       0       0       0       0       0       0       
      +0       0       0       0       0       0
  8217 ;;      Temps:          0       0       0       0       0       0       0       0       0       0       0       0       
      +0       0       0       0       0       0       0       0       0       0       0       0       0       0       0       
      +0       0       0       0       0       0
  8218 ;;      Totals:         0       0       0       0       0       0       0       0       0       0       0       0       
      +0       0       0       0       0       0       0       0       0       0       0       0       0       0       0       
      +0       0       0       0       0       0
  8219 ;;Total ram usage:        0 bytes
  8220 ;; Hardware stack levels used:    1
  8221 ;; Hardware stack levels required when called:    3
  8222 ;; This function calls:
  8223 ;;		Nothing
  8224 ;; This function is called by:
  8225 ;;		_AUDIO_Record
  8226 ;;		_AUDIO_Playback
  8227 ;;		_SST26VF064B_Busy
  8228 ;;		_SST26VF064B_ChipErase
  8229 ;;		_SST26VF064B_GlobalBlockUnlock
  8230 ;;		_SST26VF064B_WriteEnable
  8231 ;;		_SST26VF064B_GetDeviceInfo
  8232 ;;		_SST26VF064B_Reset
  8233 ;;		_SST26VF064B_SectorErase
  8234 ;;		_SST26VF064B_BlockErase
  8235 ;;		_SST26VF064B_Lock_BPR
  8236 ;;		_SST26VF064B_WriteDisable
  8237 ;;		_SST26VF064B_WriteSuspend
  8238 ;;		_SST26VF064B_WriteResume
  8239 ;; This function uses a non-reentrant model
  8240 ;;
  8241                           
  8242                           	psect	text84
  8243  003E7A                     __ptext84:
  8244                           	callstack 0
  8245  003E7A                     _SST26VF064B_CS_Low:
  8246                           	callstack 122
  8247  003E7A  9CC1               	bcf	193,6,c	;volatile
  8248  003E7C  0012               	return		;funcret
  8249  003E7E                     __end_of_SST26VF064B_CS_Low:
  8250                           	callstack 0
  8251                           
  8252 ;; *************** function _SST26VF064B_CS_High *****************
  8253 ;; Defined at:
  8254 ;;		line 33 in file "SST26VF064B.c"
  8255 ;; Parameters:    Size  Location     Type
  8256 ;;		None
  8257 ;; Auto vars:     Size  Location     Type
  8258 ;;		None
  8259 ;; Return value:  Size  Location     Type
  8260 ;;                  1    wreg      void 
  8261 ;; Registers used:
  8262 ;;		None
  8263 ;; Tracked objects:
  8264 ;;		On entry : 0/0
  8265 ;;		On exit  : 0/0
  8266 ;;		Unchanged: 0/0
  8267 ;; Data sizes:     COMRAM   BANK5   BANK6   BANK7   BANK8   BANK9  BANK10  BANK11  BANK12  BANK13  BANK14  BANK15  BANK1
      +6  BANK17  BANK18  BANK19  BANK20  BANK21  BANK22  BANK23  BANK24  BANK25  BANK26  BANK27  BANK28  BANK29  BANK30  BANK3
      +1  BANK32  BANK33  BANK34  BANK35  BANK36
  8268 ;;      Params:         0       0       0       0       0       0       0       0       0       0       0       0       
      +0       0       0       0       0       0       0       0       0       0       0       0       0       0       0       
      +0       0       0       0       0       0
  8269 ;;      Locals:         0       0       0       0       0       0       0       0       0       0       0       0       
      +0       0       0       0       0       0       0       0       0       0       0       0       0       0       0       
      +0       0       0       0       0       0
  8270 ;;      Temps:          0       0       0       0       0       0       0       0       0       0       0       0       
      +0       0       0       0       0       0       0       0       0       0       0       0       0       0       0       
      +0       0       0       0       0       0
  8271 ;;      Totals:         0       0       0       0       0       0       0       0       0       0       0       0       
      +0       0       0       0       0       0       0       0       0       0       0       0       0       0       0       
      +0       0       0       0       0       0
  8272 ;;Total ram usage:        0 bytes
  8273 ;; Hardware stack levels used:    1
  8274 ;; Hardware stack levels required when called:    3
  8275 ;; This function calls:
  8276 ;;		Nothing
  8277 ;; This function is called by:
  8278 ;;		_AUDIO_Record
  8279 ;;		_AUDIO_Playback
  8280 ;;		_SST26VF064B_Busy
  8281 ;;		_SST26VF064B_ChipErase
  8282 ;;		_SST26VF064B_GlobalBlockUnlock
  8283 ;;		_SST26VF064B_WriteEnable
  8284 ;;		_SST26VF064B_GetDeviceInfo
  8285 ;;		_SST26VF064B_Initialize
  8286 ;;		_SST26VF064B_Reset
  8287 ;;		_SST26VF064B_SectorErase
  8288 ;;		_SST26VF064B_BlockErase
  8289 ;;		_SST26VF064B_Lock_BPR
  8290 ;;		_SST26VF064B_WriteDisable
  8291 ;;		_SST26VF064B_WriteSuspend
  8292 ;;		_SST26VF064B_WriteResume
  8293 ;; This function uses a non-reentrant model
  8294 ;;
  8295                           
  8296                           	psect	text85
  8297  003E7E                     __ptext85:
  8298                           	callstack 0
  8299  003E7E                     _SST26VF064B_CS_High:
  8300                           	callstack 122
  8301  003E7E  8CC1               	bsf	193,6,c	;volatile
  8302  003E80  0012               	return		;funcret
  8303  003E82                     __end_of_SST26VF064B_CS_High:
  8304                           	callstack 0
  8305                           
  8306 ;; *************** function _ResetSwitches *****************
  8307 ;; Defined at:
  8308 ;;		line 218 in file "main.c"
  8309 ;; Parameters:    Size  Location     Type
  8310 ;;		None
  8311 ;; Auto vars:     Size  Location     Type
  8312 ;;		None
  8313 ;; Return value:  Size  Location     Type
  8314 ;;                  1    wreg      void 
  8315 ;; Registers used:
  8316 ;;		wreg, status,2
  8317 ;; Tracked objects:
  8318 ;;		On entry : 0/0
  8319 ;;		On exit  : 0/0
  8320 ;;		Unchanged: 0/0
  8321 ;; Data sizes:     COMRAM   BANK5   BANK6   BANK7   BANK8   BANK9  BANK10  BANK11  BANK12  BANK13  BANK14  BANK15  BANK1
      +6  BANK17  BANK18  BANK19  BANK20  BANK21  BANK22  BANK23  BANK24  BANK25  BANK26  BANK27  BANK28  BANK29  BANK30  BANK3
      +1  BANK32  BANK33  BANK34  BANK35  BANK36
  8322 ;;      Params:         0       0       0       0       0       0       0       0       0       0       0       0       
      +0       0       0       0       0       0       0       0       0       0       0       0       0       0       0       
      +0       0       0       0       0       0
  8323 ;;      Locals:         0       0       0       0       0       0       0       0       0       0       0       0       
      +0       0       0       0       0       0       0       0       0       0       0       0       0       0       0       
      +0       0       0       0       0       0
  8324 ;;      Temps:          0       0       0       0       0       0       0       0       0       0       0       0       
      +0       0       0       0       0       0       0       0       0       0       0       0       0       0       0       
      +0       0       0       0       0       0
  8325 ;;      Totals:         0       0       0       0       0       0       0       0       0       0       0       0       
      +0       0       0       0       0       0       0       0       0       0       0       0       0       0       0       
      +0       0       0       0       0       0
  8326 ;;Total ram usage:        0 bytes
  8327 ;; Hardware stack levels used:    1
  8328 ;; Hardware stack levels required when called:    3
  8329 ;; This function calls:
  8330 ;;		Nothing
  8331 ;; This function is called by:
  8332 ;;		_AUDIO_Erase
  8333 ;;		_AUDIO_Record
  8334 ;;		_AUDIO_Playback
  8335 ;;		_AUDIO_Passthrough
  8336 ;;		_APP_Initialize
  8337 ;; This function uses a non-reentrant model
  8338 ;;
  8339                           
  8340                           	psect	text86
  8341  003E0E                     __ptext86:
  8342                           	callstack 0
  8343  003E0E                     _ResetSwitches:
  8344                           	callstack 123
  8345  003E0E                     
  8346                           ;main.c: 220:     sw0_pressed = 0;
  8347  003E0E  0E00               	movlw	0
  8348  003E10  6E46               	movwf	_sw0_pressed^(0+1280),c
  8349                           
  8350                           ;main.c: 221:     sw0_released = 0;
  8351  003E12  0E00               	movlw	0
  8352  003E14  6E45               	movwf	_sw0_released^(0+1280),c
  8353  003E16  0012               	return		;funcret
  8354  003E18                     __end_of_ResetSwitches:
  8355                           	callstack 0
  8356                           
  8357 ;; *************** function _ResetAllDMA *****************
  8358 ;; Defined at:
  8359 ;;		line 247 in file "main.c"
  8360 ;; Parameters:    Size  Location     Type
  8361 ;;		None
  8362 ;; Auto vars:     Size  Location     Type
  8363 ;;  dma             1    1[COMRAM] char 
  8364 ;; Return value:  Size  Location     Type
  8365 ;;                  1    wreg      void 
  8366 ;; Registers used:
  8367 ;;		wreg, status,2, status,0
  8368 ;; Tracked objects:
  8369 ;;		On entry : 0/0
  8370 ;;		On exit  : 0/0
  8371 ;;		Unchanged: 0/0
  8372 ;; Data sizes:     COMRAM   BANK5   BANK6   BANK7   BANK8   BANK9  BANK10  BANK11  BANK12  BANK13  BANK14  BANK15  BANK1
      +6  BANK17  BANK18  BANK19  BANK20  BANK21  BANK22  BANK23  BANK24  BANK25  BANK26  BANK27  BANK28  BANK29  BANK30  BANK3
      +1  BANK32  BANK33  BANK34  BANK35  BANK36
  8373 ;;      Params:         0       0       0       0       0       0       0       0       0       0       0       0       
      +0       0       0       0       0       0       0       0       0       0       0       0       0       0       0       
      +0       0       0       0       0       0
  8374 ;;      Locals:         1       0       0       0       0       0       0       0       0       0       0       0       
      +0       0       0       0       0       0       0       0       0       0       0       0       0       0       0       
      +0       0       0       0       0       0
  8375 ;;      Temps:          0       0       0       0       0       0       0       0       0       0       0       0       
      +0       0       0       0       0       0       0       0       0       0       0       0       0       0       0       
      +0       0       0       0       0       0
  8376 ;;      Totals:         1       0       0       0       0       0       0       0       0       0       0       0       
      +0       0       0       0       0       0       0       0       0       0       0       0       0       0       0       
      +0       0       0       0       0       0
  8377 ;;Total ram usage:        1 bytes
  8378 ;; Hardware stack levels used:    1
  8379 ;; Hardware stack levels required when called:    3
  8380 ;; This function calls:
  8381 ;;		Nothing
  8382 ;; This function is called by:
  8383 ;;		_APP_Initialize
  8384 ;; This function uses a non-reentrant model
  8385 ;;
  8386                           
  8387                           	psect	text87
  8388  003A58                     __ptext87:
  8389                           	callstack 0
  8390  003A58                     _ResetAllDMA:
  8391                           	callstack 123
  8392  003A58                     
  8393                           ;main.c: 249:     for(int8_t dma = 6 -1; dma >= 0; dma--) {
  8394  003A58  0E05               	movlw	5
  8395  003A5A  6E02               	movwf	ResetAllDMA@dma^(0+1280),c
  8396  003A5C                     l1917:
  8397                           
  8398                           ;main.c: 250:         DMASELECT = dma;
  8399  003A5C  0061  F408  F0E8   	movff	ResetAllDMA@dma,232	;volatile
  8400                           
  8401                           ;main.c: 251:         DMAnCON0bits.EN = 0;
  8402  003A62  0100               	movlb	0	; () banked
  8403  003A64  9FFC               	bcf	252,7,b	;volatile
  8404                           
  8405                           ;main.c: 252:         DMAnCON0bits.SIRQEN = 0;
  8406  003A66  9DFC               	bcf	252,6,b	;volatile
  8407                           
  8408                           ;main.c: 253:         DMAnCON0bits.DGO = 0;
  8409  003A68  9BFC               	bcf	252,5,b	;volatile
  8410                           
  8411                           ;main.c: 254:         DMAnCON0bits.EN = 1;
  8412  003A6A  8FFC               	bsf	252,7,b	;volatile
  8413  003A6C                     
  8414                           ; BSR set to: 0
  8415                           ;main.c: 255:     }
  8416  003A6C  0602               	decf	ResetAllDMA@dma^(0+1280),f,c
  8417  003A6E                     
  8418                           ; BSR set to: 0
  8419  003A6E  BE02               	btfsc	ResetAllDMA@dma^(0+1280),7,c
  8420  003A70  EF3E  F01D         	goto	u210
  8421  003A74  EF3C  F01D         	goto	u211
  8422  003A78                     u211:
  8423  003A78  EF2E  F01D         	goto	l1917
  8424  003A7C                     u210:
  8425  003A7C                     
  8426                           ; BSR set to: 0
  8427  003A7C  0012               	return		;funcret
  8428  003A7E                     __end_of_ResetAllDMA:
  8429                           	callstack 0
  8430                           
  8431 ;; *************** function _AUDIO_ReadMetaData *****************
  8432 ;; Defined at:
  8433 ;;		line 414 in file "main.c"
  8434 ;; Parameters:    Size  Location     Type
  8435 ;;		None
  8436 ;; Auto vars:     Size  Location     Type
  8437 ;;		None
  8438 ;; Return value:  Size  Location     Type
  8439 ;;                  1    wreg      void 
  8440 ;; Registers used:
  8441 ;;		wreg, status,2, status,0, cstack
  8442 ;; Tracked objects:
  8443 ;;		On entry : 0/0
  8444 ;;		On exit  : 0/0
  8445 ;;		Unchanged: 0/0
  8446 ;; Data sizes:     COMRAM   BANK5   BANK6   BANK7   BANK8   BANK9  BANK10  BANK11  BANK12  BANK13  BANK14  BANK15  BANK1
      +6  BANK17  BANK18  BANK19  BANK20  BANK21  BANK22  BANK23  BANK24  BANK25  BANK26  BANK27  BANK28  BANK29  BANK30  BANK3
      +1  BANK32  BANK33  BANK34  BANK35  BANK36
  8447 ;;      Params:         0       0       0       0       0       0       0       0       0       0       0       0       
      +0       0       0       0       0       0       0       0       0       0       0       0       0       0       0       
      +0       0       0       0       0       0
  8448 ;;      Locals:         0       0       0       0       0       0       0       0       0       0       0       0       
      +0       0       0       0       0       0       0       0       0       0       0       0       0       0       0       
      +0       0       0       0       0       0
  8449 ;;      Temps:          5       0       0       0       0       0       0       0       0       0       0       0       
      +0       0       0       0       0       0       0       0       0       0       0       0       0       0       0       
      +0       0       0       0       0       0
  8450 ;;      Totals:         5       0       0       0       0       0       0       0       0       0       0       0       
      +0       0       0       0       0       0       0       0       0       0       0       0       0       0       0       
      +0       0       0       0       0       0
  8451 ;;Total ram usage:        5 bytes
  8452 ;; Hardware stack levels used:    1
  8453 ;; Hardware stack levels required when called:    4
  8454 ;; This function calls:
  8455 ;;		_DATAEE_ReadByte
  8456 ;; This function is called by:
  8457 ;;		_APP_Initialize
  8458 ;; This function uses a non-reentrant model
  8459 ;;
  8460                           
  8461                           	psect	text88
  8462  0027DA                     __ptext88:
  8463                           	callstack 0
  8464  0027DA                     _AUDIO_ReadMetaData:
  8465                           	callstack 122
  8466  0027DA                     
  8467                           ;main.c: 416:     if(extMem)
  8468  0027DA  5042               	movf	_extMem^(0+1280),w,c
  8469  0027DC  B4D8               	btfsc	status,2,c
  8470  0027DE  EFF3  F013         	goto	u1421
  8471  0027E2  EFF5  F013         	goto	u1420
  8472  0027E6                     u1421:
  8473  0027E6  EF89  F014         	goto	l5151
  8474  0027EA                     u1420:
  8475  0027EA                     
  8476                           ;main.c: 417:     {;main.c: 418:         extMemAudio.audioStartAddr = ((uint32_t)DATAEE_
      +                          ReadByte(0x0010)) << 24;
  8477  0027EA  0E00               	movlw	0
  8478  0027EC  6E03               	movwf	(DATAEE_ReadByte@bAdd+1)^(0+1280),c
  8479  0027EE  0E10               	movlw	16
  8480  0027F0  6E02               	movwf	DATAEE_ReadByte@bAdd^(0+1280),c
  8481  0027F2  EC21  F01E         	call	_DATAEE_ReadByte	;wreg free
  8482  0027F6  6E04               	movwf	??_AUDIO_ReadMetaData^(0+1280),c
  8483  0027F8  C504  F505         	movff	??_AUDIO_ReadMetaData,??_AUDIO_ReadMetaData+1
  8484  0027FC  6A06               	clrf	(??_AUDIO_ReadMetaData+2)^(0+1280),c
  8485  0027FE  6A07               	clrf	(??_AUDIO_ReadMetaData+3)^(0+1280),c
  8486  002800  6A08               	clrf	(??_AUDIO_ReadMetaData+4)^(0+1280),c
  8487  002802  C505  F508         	movff	??_AUDIO_ReadMetaData+1,??_AUDIO_ReadMetaData+4
  8488  002806  6A07               	clrf	(??_AUDIO_ReadMetaData+3)^(0+1280),c
  8489  002808  6A06               	clrf	(??_AUDIO_ReadMetaData+2)^(0+1280),c
  8490  00280A  6A05               	clrf	(??_AUDIO_ReadMetaData+1)^(0+1280),c
  8491  00280C  C505  F528         	movff	??_AUDIO_ReadMetaData+1,_extMemAudio
  8492  002810  C506  F529         	movff	??_AUDIO_ReadMetaData+2,_extMemAudio+1
  8493  002814  C507  F52A         	movff	??_AUDIO_ReadMetaData+3,_extMemAudio+2
  8494  002818  C508  F52B         	movff	??_AUDIO_ReadMetaData+4,_extMemAudio+3
  8495                           
  8496                           ;main.c: 419:         extMemAudio.audioStartAddr += ((uint32_t)DATAEE_ReadByte(0x0010 +1
      +                          )) << 16;
  8497  00281C  0E00               	movlw	0
  8498  00281E  6E03               	movwf	(DATAEE_ReadByte@bAdd+1)^(0+1280),c
  8499  002820  0E11               	movlw	17
  8500  002822  6E02               	movwf	DATAEE_ReadByte@bAdd^(0+1280),c
  8501  002824  EC21  F01E         	call	_DATAEE_ReadByte	;wreg free
  8502  002828  6E04               	movwf	??_AUDIO_ReadMetaData^(0+1280),c
  8503  00282A  C504  F505         	movff	??_AUDIO_ReadMetaData,??_AUDIO_ReadMetaData+1
  8504  00282E  6A06               	clrf	(??_AUDIO_ReadMetaData+2)^(0+1280),c
  8505  002830  6A07               	clrf	(??_AUDIO_ReadMetaData+3)^(0+1280),c
  8506  002832  6A08               	clrf	(??_AUDIO_ReadMetaData+4)^(0+1280),c
  8507  002834  C506  F508         	movff	??_AUDIO_ReadMetaData+2,??_AUDIO_ReadMetaData+4
  8508  002838  C505  F507         	movff	??_AUDIO_ReadMetaData+1,??_AUDIO_ReadMetaData+3
  8509  00283C  6A06               	clrf	(??_AUDIO_ReadMetaData+2)^(0+1280),c
  8510  00283E  6A05               	clrf	(??_AUDIO_ReadMetaData+1)^(0+1280),c
  8511  002840  5005               	movf	(??_AUDIO_ReadMetaData+1)^(0+1280),w,c
  8512  002842  2628               	addwf	_extMemAudio^(0+1280),f,c
  8513  002844  5006               	movf	(??_AUDIO_ReadMetaData+2)^(0+1280),w,c
  8514  002846  2229               	addwfc	(_extMemAudio+1)^(0+1280),f,c
  8515  002848  5007               	movf	(??_AUDIO_ReadMetaData+3)^(0+1280),w,c
  8516  00284A  222A               	addwfc	(_extMemAudio+2)^(0+1280),f,c
  8517  00284C  5008               	movf	(??_AUDIO_ReadMetaData+4)^(0+1280),w,c
  8518  00284E  222B               	addwfc	(_extMemAudio+3)^(0+1280),f,c
  8519                           
  8520                           ;main.c: 420:         extMemAudio.audioStartAddr += ((uint32_t)DATAEE_ReadByte(0x0010 +2
      +                          )) << 8;
  8521  002850  0E00               	movlw	0
  8522  002852  6E03               	movwf	(DATAEE_ReadByte@bAdd+1)^(0+1280),c
  8523  002854  0E12               	movlw	18
  8524  002856  6E02               	movwf	DATAEE_ReadByte@bAdd^(0+1280),c
  8525  002858  EC21  F01E         	call	_DATAEE_ReadByte	;wreg free
  8526  00285C  6E04               	movwf	??_AUDIO_ReadMetaData^(0+1280),c
  8527  00285E  C504  F505         	movff	??_AUDIO_ReadMetaData,??_AUDIO_ReadMetaData+1
  8528  002862  6A06               	clrf	(??_AUDIO_ReadMetaData+2)^(0+1280),c
  8529  002864  6A07               	clrf	(??_AUDIO_ReadMetaData+3)^(0+1280),c
  8530  002866  6A08               	clrf	(??_AUDIO_ReadMetaData+4)^(0+1280),c
  8531  002868  C507  F508         	movff	??_AUDIO_ReadMetaData+3,??_AUDIO_ReadMetaData+4
  8532  00286C  C506  F507         	movff	??_AUDIO_ReadMetaData+2,??_AUDIO_ReadMetaData+3
  8533  002870  C505  F506         	movff	??_AUDIO_ReadMetaData+1,??_AUDIO_ReadMetaData+2
  8534  002874  6A05               	clrf	(??_AUDIO_ReadMetaData+1)^(0+1280),c
  8535  002876  5005               	movf	(??_AUDIO_ReadMetaData+1)^(0+1280),w,c
  8536  002878  2628               	addwf	_extMemAudio^(0+1280),f,c
  8537  00287A  5006               	movf	(??_AUDIO_ReadMetaData+2)^(0+1280),w,c
  8538  00287C  2229               	addwfc	(_extMemAudio+1)^(0+1280),f,c
  8539  00287E  5007               	movf	(??_AUDIO_ReadMetaData+3)^(0+1280),w,c
  8540  002880  222A               	addwfc	(_extMemAudio+2)^(0+1280),f,c
  8541  002882  5008               	movf	(??_AUDIO_ReadMetaData+4)^(0+1280),w,c
  8542  002884  222B               	addwfc	(_extMemAudio+3)^(0+1280),f,c
  8543                           
  8544                           ;main.c: 421:         extMemAudio.audioStartAddr += ((uint32_t)DATAEE_ReadByte(0x0010 +3
      +                          ));
  8545  002886  0E00               	movlw	0
  8546  002888  6E03               	movwf	(DATAEE_ReadByte@bAdd+1)^(0+1280),c
  8547  00288A  0E13               	movlw	19
  8548  00288C  6E02               	movwf	DATAEE_ReadByte@bAdd^(0+1280),c
  8549  00288E  EC21  F01E         	call	_DATAEE_ReadByte	;wreg free
  8550  002892  6E04               	movwf	??_AUDIO_ReadMetaData^(0+1280),c
  8551  002894  5004               	movf	??_AUDIO_ReadMetaData^(0+1280),w,c
  8552  002896  2628               	addwf	_extMemAudio^(0+1280),f,c
  8553  002898  0E00               	movlw	0
  8554  00289A  2229               	addwfc	(_extMemAudio+1)^(0+1280),f,c
  8555  00289C  222A               	addwfc	(_extMemAudio+2)^(0+1280),f,c
  8556  00289E  222B               	addwfc	(_extMemAudio+3)^(0+1280),f,c
  8557  0028A0                     
  8558                           ;main.c: 423:         extMemAudio.audioSize_pages = ((uint32_t)DATAEE_ReadByte(0x0010 +4
      +                          )) << 8;
  8559  0028A0  0E00               	movlw	0
  8560  0028A2  6E03               	movwf	(DATAEE_ReadByte@bAdd+1)^(0+1280),c
  8561  0028A4  0E14               	movlw	20
  8562  0028A6  6E02               	movwf	DATAEE_ReadByte@bAdd^(0+1280),c
  8563  0028A8  EC21  F01E         	call	_DATAEE_ReadByte	;wreg free
  8564  0028AC  6E2D               	movwf	(_extMemAudio+5)^(0+1280),c
  8565  0028AE  6A2C               	clrf	(_extMemAudio+4)^(0+1280),c
  8566  0028B0                     
  8567                           ;main.c: 424:         extMemAudio.audioSize_pages+= ((uint32_t)DATAEE_ReadByte(0x0010 +5
      +                          ));
  8568  0028B0  0E00               	movlw	0
  8569  0028B2  6E03               	movwf	(DATAEE_ReadByte@bAdd+1)^(0+1280),c
  8570  0028B4  0E15               	movlw	21
  8571  0028B6  6E02               	movwf	DATAEE_ReadByte@bAdd^(0+1280),c
  8572  0028B8  EC21  F01E         	call	_DATAEE_ReadByte	;wreg free
  8573  0028BC  6E04               	movwf	??_AUDIO_ReadMetaData^(0+1280),c
  8574  0028BE  5004               	movf	??_AUDIO_ReadMetaData^(0+1280),w,c
  8575  0028C0  262C               	addwf	(_extMemAudio+4)^(0+1280),f,c
  8576  0028C2  0E00               	movlw	0
  8577  0028C4  222D               	addwfc	(_extMemAudio+5)^(0+1280),f,c
  8578  0028C6                     
  8579                           ;main.c: 428:         if(extMemAudio.audioStartAddr == 0xFFFFFFFF && extMemAudio.audioSi
      +                          ze_pages == 0xFFFF) {
  8580  0028C6  2828               	incf	_extMemAudio^(0+1280),w,c
  8581  0028C8  E10A               	bnz	u1431
  8582  0028CA  2829               	incf	(_extMemAudio+1)^(0+1280),w,c
  8583  0028CC  E108               	bnz	u1431
  8584  0028CE  282A               	incf	(_extMemAudio+2)^(0+1280),w,c
  8585  0028D0  E106               	bnz	u1431
  8586  0028D2  282B               	incf	(_extMemAudio+3)^(0+1280),w,c
  8587  0028D4  A4D8               	btfss	status,2,c
  8588  0028D6  EF6F  F014         	goto	u1431
  8589  0028DA  EF71  F014         	goto	u1430
  8590  0028DE                     u1431:
  8591  0028DE  EF1B  F015         	goto	l1981
  8592  0028E2                     u1430:
  8593  0028E2  282C               	incf	(_extMemAudio+4)^(0+1280),w,c
  8594  0028E4  E106               	bnz	u1441
  8595  0028E6  282D               	incf	(_extMemAudio+5)^(0+1280),w,c
  8596  0028E8  A4D8               	btfss	status,2,c
  8597  0028EA  EF79  F014         	goto	u1441
  8598  0028EE  EF7B  F014         	goto	u1440
  8599  0028F2                     u1441:
  8600  0028F2  EF1B  F015         	goto	l1981
  8601  0028F6                     u1440:
  8602  0028F6                     
  8603                           ;main.c: 429:             extMemAudio.audioStartAddr = 0x0;
  8604  0028F6  0E00               	movlw	0
  8605  0028F8  6E28               	movwf	_extMemAudio^(0+1280),c
  8606  0028FA  0E00               	movlw	0
  8607  0028FC  6E29               	movwf	(_extMemAudio+1)^(0+1280),c
  8608  0028FE  0E00               	movlw	0
  8609  002900  6E2A               	movwf	(_extMemAudio+2)^(0+1280),c
  8610  002902  0E00               	movlw	0
  8611  002904  6E2B               	movwf	(_extMemAudio+3)^(0+1280),c
  8612                           
  8613                           ;main.c: 430:             extMemAudio.audioSize_pages = 0;
  8614  002906  0E00               	movlw	0
  8615  002908  6E2D               	movwf	(_extMemAudio+5)^(0+1280),c
  8616  00290A  0E00               	movlw	0
  8617  00290C  6E2C               	movwf	(_extMemAudio+4)^(0+1280),c
  8618  00290E  EF1B  F015         	goto	l1981
  8619  002912                     l5151:
  8620                           
  8621                           ;main.c: 434:     {;main.c: 435:         pfmAudio.audioStartAddr = ((uint32_t)DATAEE_Rea
      +                          dByte(0x0000)) << 24;
  8622  002912  0E00               	movlw	0
  8623  002914  6E03               	movwf	(DATAEE_ReadByte@bAdd+1)^(0+1280),c
  8624  002916  0E00               	movlw	0
  8625  002918  6E02               	movwf	DATAEE_ReadByte@bAdd^(0+1280),c
  8626  00291A  EC21  F01E         	call	_DATAEE_ReadByte	;wreg free
  8627  00291E  6E04               	movwf	??_AUDIO_ReadMetaData^(0+1280),c
  8628  002920  C504  F505         	movff	??_AUDIO_ReadMetaData,??_AUDIO_ReadMetaData+1
  8629  002924  6A06               	clrf	(??_AUDIO_ReadMetaData+2)^(0+1280),c
  8630  002926  6A07               	clrf	(??_AUDIO_ReadMetaData+3)^(0+1280),c
  8631  002928  6A08               	clrf	(??_AUDIO_ReadMetaData+4)^(0+1280),c
  8632  00292A  C505  F508         	movff	??_AUDIO_ReadMetaData+1,??_AUDIO_ReadMetaData+4
  8633  00292E  6A07               	clrf	(??_AUDIO_ReadMetaData+3)^(0+1280),c
  8634  002930  6A06               	clrf	(??_AUDIO_ReadMetaData+2)^(0+1280),c
  8635  002932  6A05               	clrf	(??_AUDIO_ReadMetaData+1)^(0+1280),c
  8636  002934  C505  F52E         	movff	??_AUDIO_ReadMetaData+1,_pfmAudio
  8637  002938  C506  F52F         	movff	??_AUDIO_ReadMetaData+2,_pfmAudio+1
  8638  00293C  C507  F530         	movff	??_AUDIO_ReadMetaData+3,_pfmAudio+2
  8639  002940  C508  F531         	movff	??_AUDIO_ReadMetaData+4,_pfmAudio+3
  8640                           
  8641                           ;main.c: 436:         pfmAudio.audioStartAddr += ((uint32_t)DATAEE_ReadByte(0x0000 +1)) 
      +                          << 16;
  8642  002944  0E00               	movlw	0
  8643  002946  6E03               	movwf	(DATAEE_ReadByte@bAdd+1)^(0+1280),c
  8644  002948  0E01               	movlw	1
  8645  00294A  6E02               	movwf	DATAEE_ReadByte@bAdd^(0+1280),c
  8646  00294C  EC21  F01E         	call	_DATAEE_ReadByte	;wreg free
  8647  002950  6E04               	movwf	??_AUDIO_ReadMetaData^(0+1280),c
  8648  002952  C504  F505         	movff	??_AUDIO_ReadMetaData,??_AUDIO_ReadMetaData+1
  8649  002956  6A06               	clrf	(??_AUDIO_ReadMetaData+2)^(0+1280),c
  8650  002958  6A07               	clrf	(??_AUDIO_ReadMetaData+3)^(0+1280),c
  8651  00295A  6A08               	clrf	(??_AUDIO_ReadMetaData+4)^(0+1280),c
  8652  00295C  C506  F508         	movff	??_AUDIO_ReadMetaData+2,??_AUDIO_ReadMetaData+4
  8653  002960  C505  F507         	movff	??_AUDIO_ReadMetaData+1,??_AUDIO_ReadMetaData+3
  8654  002964  6A06               	clrf	(??_AUDIO_ReadMetaData+2)^(0+1280),c
  8655  002966  6A05               	clrf	(??_AUDIO_ReadMetaData+1)^(0+1280),c
  8656  002968  5005               	movf	(??_AUDIO_ReadMetaData+1)^(0+1280),w,c
  8657  00296A  262E               	addwf	_pfmAudio^(0+1280),f,c
  8658  00296C  5006               	movf	(??_AUDIO_ReadMetaData+2)^(0+1280),w,c
  8659  00296E  222F               	addwfc	(_pfmAudio+1)^(0+1280),f,c
  8660  002970  5007               	movf	(??_AUDIO_ReadMetaData+3)^(0+1280),w,c
  8661  002972  2230               	addwfc	(_pfmAudio+2)^(0+1280),f,c
  8662  002974  5008               	movf	(??_AUDIO_ReadMetaData+4)^(0+1280),w,c
  8663  002976  2231               	addwfc	(_pfmAudio+3)^(0+1280),f,c
  8664                           
  8665                           ;main.c: 437:         pfmAudio.audioStartAddr += ((uint32_t)DATAEE_ReadByte(0x0000 +2)) 
      +                          << 8;
  8666  002978  0E00               	movlw	0
  8667  00297A  6E03               	movwf	(DATAEE_ReadByte@bAdd+1)^(0+1280),c
  8668  00297C  0E02               	movlw	2
  8669  00297E  6E02               	movwf	DATAEE_ReadByte@bAdd^(0+1280),c
  8670  002980  EC21  F01E         	call	_DATAEE_ReadByte	;wreg free
  8671  002984  6E04               	movwf	??_AUDIO_ReadMetaData^(0+1280),c
  8672  002986  C504  F505         	movff	??_AUDIO_ReadMetaData,??_AUDIO_ReadMetaData+1
  8673  00298A  6A06               	clrf	(??_AUDIO_ReadMetaData+2)^(0+1280),c
  8674  00298C  6A07               	clrf	(??_AUDIO_ReadMetaData+3)^(0+1280),c
  8675  00298E  6A08               	clrf	(??_AUDIO_ReadMetaData+4)^(0+1280),c
  8676  002990  C507  F508         	movff	??_AUDIO_ReadMetaData+3,??_AUDIO_ReadMetaData+4
  8677  002994  C506  F507         	movff	??_AUDIO_ReadMetaData+2,??_AUDIO_ReadMetaData+3
  8678  002998  C505  F506         	movff	??_AUDIO_ReadMetaData+1,??_AUDIO_ReadMetaData+2
  8679  00299C  6A05               	clrf	(??_AUDIO_ReadMetaData+1)^(0+1280),c
  8680  00299E  5005               	movf	(??_AUDIO_ReadMetaData+1)^(0+1280),w,c
  8681  0029A0  262E               	addwf	_pfmAudio^(0+1280),f,c
  8682  0029A2  5006               	movf	(??_AUDIO_ReadMetaData+2)^(0+1280),w,c
  8683  0029A4  222F               	addwfc	(_pfmAudio+1)^(0+1280),f,c
  8684  0029A6  5007               	movf	(??_AUDIO_ReadMetaData+3)^(0+1280),w,c
  8685  0029A8  2230               	addwfc	(_pfmAudio+2)^(0+1280),f,c
  8686  0029AA  5008               	movf	(??_AUDIO_ReadMetaData+4)^(0+1280),w,c
  8687  0029AC  2231               	addwfc	(_pfmAudio+3)^(0+1280),f,c
  8688                           
  8689                           ;main.c: 438:         pfmAudio.audioStartAddr += ((uint32_t)DATAEE_ReadByte(0x0000 +3));
  8690  0029AE  0E00               	movlw	0
  8691  0029B0  6E03               	movwf	(DATAEE_ReadByte@bAdd+1)^(0+1280),c
  8692  0029B2  0E03               	movlw	3
  8693  0029B4  6E02               	movwf	DATAEE_ReadByte@bAdd^(0+1280),c
  8694  0029B6  EC21  F01E         	call	_DATAEE_ReadByte	;wreg free
  8695  0029BA  6E04               	movwf	??_AUDIO_ReadMetaData^(0+1280),c
  8696  0029BC  5004               	movf	??_AUDIO_ReadMetaData^(0+1280),w,c
  8697  0029BE  262E               	addwf	_pfmAudio^(0+1280),f,c
  8698  0029C0  0E00               	movlw	0
  8699  0029C2  222F               	addwfc	(_pfmAudio+1)^(0+1280),f,c
  8700  0029C4  2230               	addwfc	(_pfmAudio+2)^(0+1280),f,c
  8701  0029C6  2231               	addwfc	(_pfmAudio+3)^(0+1280),f,c
  8702  0029C8                     
  8703                           ;main.c: 440:         pfmAudio.audioSize_pages = ((uint32_t)DATAEE_ReadByte(0x0000 +4)) 
      +                          << 8;
  8704  0029C8  0E00               	movlw	0
  8705  0029CA  6E03               	movwf	(DATAEE_ReadByte@bAdd+1)^(0+1280),c
  8706  0029CC  0E04               	movlw	4
  8707  0029CE  6E02               	movwf	DATAEE_ReadByte@bAdd^(0+1280),c
  8708  0029D0  EC21  F01E         	call	_DATAEE_ReadByte	;wreg free
  8709  0029D4  6E33               	movwf	(_pfmAudio+5)^(0+1280),c
  8710  0029D6  6A32               	clrf	(_pfmAudio+4)^(0+1280),c
  8711  0029D8                     
  8712                           ;main.c: 441:         pfmAudio.audioSize_pages+= ((uint32_t)DATAEE_ReadByte(0x0000 +5));
  8713  0029D8  0E00               	movlw	0
  8714  0029DA  6E03               	movwf	(DATAEE_ReadByte@bAdd+1)^(0+1280),c
  8715  0029DC  0E05               	movlw	5
  8716  0029DE  6E02               	movwf	DATAEE_ReadByte@bAdd^(0+1280),c
  8717  0029E0  EC21  F01E         	call	_DATAEE_ReadByte	;wreg free
  8718  0029E4  6E04               	movwf	??_AUDIO_ReadMetaData^(0+1280),c
  8719  0029E6  5004               	movf	??_AUDIO_ReadMetaData^(0+1280),w,c
  8720  0029E8  2632               	addwf	(_pfmAudio+4)^(0+1280),f,c
  8721  0029EA  0E00               	movlw	0
  8722  0029EC  2233               	addwfc	(_pfmAudio+5)^(0+1280),f,c
  8723  0029EE                     
  8724                           ;main.c: 445:         if(pfmAudio.audioStartAddr == 0xFFFFFFFF && pfmAudio.audioSize_pag
      +                          es == 0xFFFF) {
  8725  0029EE  282E               	incf	_pfmAudio^(0+1280),w,c
  8726  0029F0  E10A               	bnz	u1451
  8727  0029F2  282F               	incf	(_pfmAudio+1)^(0+1280),w,c
  8728  0029F4  E108               	bnz	u1451
  8729  0029F6  2830               	incf	(_pfmAudio+2)^(0+1280),w,c
  8730  0029F8  E106               	bnz	u1451
  8731  0029FA  2831               	incf	(_pfmAudio+3)^(0+1280),w,c
  8732  0029FC  A4D8               	btfss	status,2,c
  8733  0029FE  EF03  F015         	goto	u1451
  8734  002A02  EF05  F015         	goto	u1450
  8735  002A06                     u1451:
  8736  002A06  EF1B  F015         	goto	l1981
  8737  002A0A                     u1450:
  8738  002A0A  2832               	incf	(_pfmAudio+4)^(0+1280),w,c
  8739  002A0C  E106               	bnz	u1461
  8740  002A0E  2833               	incf	(_pfmAudio+5)^(0+1280),w,c
  8741  002A10  A4D8               	btfss	status,2,c
  8742  002A12  EF0D  F015         	goto	u1461
  8743  002A16  EF0F  F015         	goto	u1460
  8744  002A1A                     u1461:
  8745  002A1A  EF1B  F015         	goto	l1981
  8746  002A1E                     u1460:
  8747  002A1E                     
  8748                           ;main.c: 446:             pfmAudio.audioStartAddr = 0x4000;
  8749  002A1E  0E00               	movlw	0
  8750  002A20  6E2E               	movwf	_pfmAudio^(0+1280),c
  8751  002A22  0E40               	movlw	64
  8752  002A24  6E2F               	movwf	(_pfmAudio+1)^(0+1280),c
  8753  002A26  0E00               	movlw	0
  8754  002A28  6E30               	movwf	(_pfmAudio+2)^(0+1280),c
  8755  002A2A  0E00               	movlw	0
  8756  002A2C  6E31               	movwf	(_pfmAudio+3)^(0+1280),c
  8757                           
  8758                           ;main.c: 447:             pfmAudio.audioSize_pages = 0;
  8759  002A2E  0E00               	movlw	0
  8760  002A30  6E33               	movwf	(_pfmAudio+5)^(0+1280),c
  8761  002A32  0E00               	movlw	0
  8762  002A34  6E32               	movwf	(_pfmAudio+4)^(0+1280),c
  8763  002A36                     l1981:
  8764  002A36  0012               	return		;funcret
  8765  002A38                     __end_of_AUDIO_ReadMetaData:
  8766                           	callstack 0
  8767                           
  8768 ;; *************** function _DATAEE_ReadByte *****************
  8769 ;; Defined at:
  8770 ;;		line 264 in file "mcc_generated_files/memory.c"
  8771 ;; Parameters:    Size  Location     Type
  8772 ;;  bAdd            2    1[COMRAM] unsigned short 
  8773 ;; Auto vars:     Size  Location     Type
  8774 ;;		None
  8775 ;; Return value:  Size  Location     Type
  8776 ;;                  1    wreg      unsigned char 
  8777 ;; Registers used:
  8778 ;;		wreg, status,2
  8779 ;; Tracked objects:
  8780 ;;		On entry : 0/0
  8781 ;;		On exit  : 0/0
  8782 ;;		Unchanged: 0/0
  8783 ;; Data sizes:     COMRAM   BANK5   BANK6   BANK7   BANK8   BANK9  BANK10  BANK11  BANK12  BANK13  BANK14  BANK15  BANK1
      +6  BANK17  BANK18  BANK19  BANK20  BANK21  BANK22  BANK23  BANK24  BANK25  BANK26  BANK27  BANK28  BANK29  BANK30  BANK3
      +1  BANK32  BANK33  BANK34  BANK35  BANK36
  8784 ;;      Params:         2       0       0       0       0       0       0       0       0       0       0       0       
      +0       0       0       0       0       0       0       0       0       0       0       0       0       0       0       
      +0       0       0       0       0       0
  8785 ;;      Locals:         0       0       0       0       0       0       0       0       0       0       0       0       
      +0       0       0       0       0       0       0       0       0       0       0       0       0       0       0       
      +0       0       0       0       0       0
  8786 ;;      Temps:          0       0       0       0       0       0       0       0       0       0       0       0       
      +0       0       0       0       0       0       0       0       0       0       0       0       0       0       0       
      +0       0       0       0       0       0
  8787 ;;      Totals:         2       0       0       0       0       0       0       0       0       0       0       0       
      +0       0       0       0       0       0       0       0       0       0       0       0       0       0       0       
      +0       0       0       0       0       0
  8788 ;;Total ram usage:        2 bytes
  8789 ;; Hardware stack levels used:    1
  8790 ;; Hardware stack levels required when called:    3
  8791 ;; This function calls:
  8792 ;;		Nothing
  8793 ;; This function is called by:
  8794 ;;		_AUDIO_ReadMetaData
  8795 ;; This function uses a non-reentrant model
  8796 ;;
  8797                           
  8798                           	psect	text89
  8799  003C42                     __ptext89:
  8800                           	callstack 0
  8801  003C42                     _DATAEE_ReadByte:
  8802                           	callstack 122
  8803  003C42                     
  8804                           ;mcc_generated_files/memory.c: 264: uint8_t DATAEE_ReadByte(uint16_t bAdd);mcc_generated
      +                          _files/memory.c: 265: {;mcc_generated_files/memory.c: 267:     NVMADRU = 0x38;
  8805  003C42  0E38               	movlw	56
  8806  003C44  0100               	movlb	0	; () banked
  8807  003C46  6F45               	movwf	69,b	;volatile
  8808                           
  8809                           ;mcc_generated_files/memory.c: 268:     NVMADRH = (uint8_t) ((bAdd & 0xFF00) >> 8);
  8810  003C48  5003               	movf	(DATAEE_ReadByte@bAdd+1)^(0+1280),w,c
  8811  003C4A  6F44               	movwf	68,b	;volatile
  8812  003C4C                     
  8813                           ; BSR set to: 0
  8814                           ;mcc_generated_files/memory.c: 269:     NVMADRL = (uint8_t) (bAdd & 0x00FF);
  8815  003C4C  0061  F408  F043   	movff	DATAEE_ReadByte@bAdd,67	;volatile
  8816                           
  8817                           ;mcc_generated_files/memory.c: 272:     NVMCON1bits.NVMCMD = 0b000;
  8818  003C52  0EF8               	movlw	-8
  8819  003C54  1741               	andwf	65,f,b	;volsfr
  8820  003C56                     
  8821                           ; BSR set to: 0
  8822                           ;mcc_generated_files/memory.c: 273:     NVMCON0bits.GO = 1;
  8823  003C56  8140               	bsf	64,0,b	;volatile
  8824                           
  8825                           ;mcc_generated_files/memory.c: 275:     return NVMDATL;
  8826  003C58  5146               	movf	70,w,b	;volatile
  8827  003C5A                     
  8828                           ; BSR set to: 0
  8829  003C5A  0012               	return		;funcret
  8830  003C5C                     __end_of_DATAEE_ReadByte:
  8831                           	callstack 0
  8832                           
  8833 ;; *************** function _TMR0_ISR *****************
  8834 ;; Defined at:
  8835 ;;		line 135 in file "mcc_generated_files/tmr0.c"
  8836 ;; Parameters:    Size  Location     Type
  8837 ;;		None
  8838 ;; Auto vars:     Size  Location     Type
  8839 ;;		None
  8840 ;; Return value:  Size  Location     Type
  8841 ;;                  1    wreg      void 
  8842 ;; Registers used:
  8843 ;;		wreg, status,2, status,0, pclath, tosl, cstack
  8844 ;; Tracked objects:
  8845 ;;		On entry : 0/0
  8846 ;;		On exit  : 0/0
  8847 ;;		Unchanged: 0/0
  8848 ;; Data sizes:     COMRAM   BANK5   BANK6   BANK7   BANK8   BANK9  BANK10  BANK11  BANK12  BANK13  BANK14  BANK15  BANK1
      +6  BANK17  BANK18  BANK19  BANK20  BANK21  BANK22  BANK23  BANK24  BANK25  BANK26  BANK27  BANK28  BANK29  BANK30  BANK3
      +1  BANK32  BANK33  BANK34  BANK35  BANK36
  8849 ;;      Params:         0       0       0       0       0       0       0       0       0       0       0       0       
      +0       0       0       0       0       0       0       0       0       0       0       0       0       0       0       
      +0       0       0       0       0       0
  8850 ;;      Locals:         0       0       0       0       0       0       0       0       0       0       0       0       
      +0       0       0       0       0       0       0       0       0       0       0       0       0       0       0       
      +0       0       0       0       0       0
  8851 ;;      Temps:          0       0       0       0       0       0       0       0       0       0       0       0       
      +0       0       0       0       0       0       0       0       0       0       0       0       0       0       0       
      +0       0       0       0       0       0
  8852 ;;      Totals:         0       0       0       0       0       0       0       0       0       0       0       0       
      +0       0       0       0       0       0       0       0       0       0       0       0       0       0       0       
      +0       0       0       0       0       0
  8853 ;;Total ram usage:        0 bytes
  8854 ;; Hardware stack levels used:    1
  8855 ;; Hardware stack levels required when called:    2
  8856 ;; This function calls:
  8857 ;;		_TMR0_CallBack
  8858 ;; This function is called by:
  8859 ;;		Interrupt level 2
  8860 ;; This function uses a non-reentrant model
  8861 ;;
  8862                           
  8863                           	psect	text90
  8864  003D10                     __ptext90:
  8865                           	callstack 0
  8866  003D10                     _TMR0_ISR:
  8867                           	callstack 119
  8868  003D10                     
  8869                           ;mcc_generated_files/tmr0.c: 138:     PIR3bits.TMR0IF = 0;
  8870  003D10  9EB1               	bcf	177,7,c	;volatile
  8871  003D12                     
  8872                           ;mcc_generated_files/tmr0.c: 140:     TMR0H = timer0ReloadVal16bit >> 8;
  8873  003D12  505D               	movf	(_timer0ReloadVal16bit+1)^(0+1280),w,c	;volatile
  8874  003D14  0103               	movlb	3	; () banked
  8875  003D16  6F19               	movwf	25,b	;volatile
  8876  003D18                     
  8877                           ; BSR set to: 3
  8878                           ;mcc_generated_files/tmr0.c: 141:     TMR0L = (uint8_t) timer0ReloadVal16bit;
  8879  003D18  0061  F570  F318   	movff	_timer0ReloadVal16bit,792	;volatile
  8880  003D1E                     
  8881                           ; BSR set to: 3
  8882                           ;mcc_generated_files/tmr0.c: 145:     TMR0_CallBack();
  8883  003D1E  ECA9  F01C         	call	_TMR0_CallBack	;wreg free
  8884  003D22  0011               	retfie		f
  8885  003D24                     __end_of_TMR0_ISR:
  8886                           	callstack 0
  8887                           
  8888 ;; *************** function _TMR0_CallBack *****************
  8889 ;; Defined at:
  8890 ;;		line 150 in file "mcc_generated_files/tmr0.c"
  8891 ;; Parameters:    Size  Location     Type
  8892 ;;		None
  8893 ;; Auto vars:     Size  Location     Type
  8894 ;;		None
  8895 ;; Return value:  Size  Location     Type
  8896 ;;                  1    wreg      void 
  8897 ;; Registers used:
  8898 ;;		wreg, status,2, status,0, pclath, tosl, cstack
  8899 ;; Tracked objects:
  8900 ;;		On entry : 0/0
  8901 ;;		On exit  : 0/0
  8902 ;;		Unchanged: 0/0
  8903 ;; Data sizes:     COMRAM   BANK5   BANK6   BANK7   BANK8   BANK9  BANK10  BANK11  BANK12  BANK13  BANK14  BANK15  BANK1
      +6  BANK17  BANK18  BANK19  BANK20  BANK21  BANK22  BANK23  BANK24  BANK25  BANK26  BANK27  BANK28  BANK29  BANK30  BANK3
      +1  BANK32  BANK33  BANK34  BANK35  BANK36
  8904 ;;      Params:         0       0       0       0       0       0       0       0       0       0       0       0       
      +0       0       0       0       0       0       0       0       0       0       0       0       0       0       0       
      +0       0       0       0       0       0
  8905 ;;      Locals:         0       0       0       0       0       0       0       0       0       0       0       0       
      +0       0       0       0       0       0       0       0       0       0       0       0       0       0       0       
      +0       0       0       0       0       0
  8906 ;;      Temps:          0       0       0       0       0       0       0       0       0       0       0       0       
      +0       0       0       0       0       0       0       0       0       0       0       0       0       0       0       
      +0       0       0       0       0       0
  8907 ;;      Totals:         0       0       0       0       0       0       0       0       0       0       0       0       
      +0       0       0       0       0       0       0       0       0       0       0       0       0       0       0       
      +0       0       0       0       0       0
  8908 ;;Total ram usage:        0 bytes
  8909 ;; Hardware stack levels used:    1
  8910 ;; Hardware stack levels required when called:    1
  8911 ;; This function calls:
  8912 ;;		Absolute function
  8913 ;;		_TMR0_DefaultInterruptHandler
  8914 ;;		_TimerTick_ISR
  8915 ;; This function is called by:
  8916 ;;		_TMR0_ISR
  8917 ;; This function uses a non-reentrant model
  8918 ;;
  8919                           
  8920                           	psect	text91
  8921  003952                     __ptext91:
  8922                           	callstack 0
  8923  003952                     _TMR0_CallBack:
  8924                           	callstack 119
  8925  003952                     
  8926                           ;mcc_generated_files/tmr0.c: 154:     if(TMR0_InterruptHandler)
  8927  003952  5054               	movf	_TMR0_InterruptHandler^(0+1280),w,c
  8928  003954  1055               	iorwf	(_TMR0_InterruptHandler+1)^(0+1280),w,c
  8929  003956  1056               	iorwf	(_TMR0_InterruptHandler+2)^(0+1280),w,c
  8930  003958  B4D8               	btfsc	status,2,c
  8931  00395A  EFB1  F01C         	goto	i2u42_41
  8932  00395E  EFB3  F01C         	goto	i2u42_40
  8933  003962                     i2u42_41:
  8934  003962  EFC0  F01C         	goto	i2l387
  8935  003966                     i2u42_40:
  8936  003966                     
  8937                           ;mcc_generated_files/tmr0.c: 155:     {;mcc_generated_files/tmr0.c: 156:         TMR0_In
      +                          terruptHandler();
  8938  003966  D802               	call	i2u43_48
  8939  003968  EFC0  F01C         	goto	i2u43_49
  8940  00396C                     i2u43_48:
  8941  00396C  0005               	push	
  8942  00396E  6EFA               	movwf	pclath,c
  8943  003970  5054               	movf	_TMR0_InterruptHandler^(0+1280),w,c
  8944  003972  6EFD               	movwf	tosl,c
  8945  003974  5055               	movf	(_TMR0_InterruptHandler+1)^(0+1280),w,c
  8946  003976  6EFE               	movwf	tosh,c
  8947  003978  5056               	movf	(_TMR0_InterruptHandler+2)^(0+1280),w,c
  8948  00397A  6EFF               	movwf	tosu,c
  8949  00397C  50FA               	movf	pclath,w,c
  8950  00397E  0012               	return		;indir
  8951  003980                     i2u43_49:
  8952  003980                     i2l387:
  8953  003980  0012               	return		;funcret
  8954  003982                     __end_of_TMR0_CallBack:
  8955                           	callstack 0
  8956                           
  8957 ;; *************** function _TMR0_DefaultInterruptHandler *****************
  8958 ;; Defined at:
  8959 ;;		line 164 in file "mcc_generated_files/tmr0.c"
  8960 ;; Parameters:    Size  Location     Type
  8961 ;;		None
  8962 ;; Auto vars:     Size  Location     Type
  8963 ;;		None
  8964 ;; Return value:  Size  Location     Type
  8965 ;;                  1    wreg      void 
  8966 ;; Registers used:
  8967 ;;		None
  8968 ;; Tracked objects:
  8969 ;;		On entry : 0/0
  8970 ;;		On exit  : 0/0
  8971 ;;		Unchanged: 0/0
  8972 ;; Data sizes:     COMRAM   BANK5   BANK6   BANK7   BANK8   BANK9  BANK10  BANK11  BANK12  BANK13  BANK14  BANK15  BANK1
      +6  BANK17  BANK18  BANK19  BANK20  BANK21  BANK22  BANK23  BANK24  BANK25  BANK26  BANK27  BANK28  BANK29  BANK30  BANK3
      +1  BANK32  BANK33  BANK34  BANK35  BANK36
  8973 ;;      Params:         0       0       0       0       0       0       0       0       0       0       0       0       
      +0       0       0       0       0       0       0       0       0       0       0       0       0       0       0       
      +0       0       0       0       0       0
  8974 ;;      Locals:         0       0       0       0       0       0       0       0       0       0       0       0       
      +0       0       0       0       0       0       0       0       0       0       0       0       0       0       0       
      +0       0       0       0       0       0
  8975 ;;      Temps:          0       0       0       0       0       0       0       0       0       0       0       0       
      +0       0       0       0       0       0       0       0       0       0       0       0       0       0       0       
      +0       0       0       0       0       0
  8976 ;;      Totals:         0       0       0       0       0       0       0       0       0       0       0       0       
      +0       0       0       0       0       0       0       0       0       0       0       0       0       0       0       
      +0       0       0       0       0       0
  8977 ;;Total ram usage:        0 bytes
  8978 ;; Hardware stack levels used:    1
  8979 ;; This function calls:
  8980 ;;		Nothing
  8981 ;; This function is called by:
  8982 ;;		_TMR0_Initialize
  8983 ;;		_TMR0_CallBack
  8984 ;; This function uses a non-reentrant model
  8985 ;;
  8986                           
  8987                           	psect	text92
  8988  003E88                     __ptext92:
  8989                           	callstack 0
  8990  003E88                     _TMR0_DefaultInterruptHandler:
  8991                           	callstack 119
  8992  003E88  0012               	return		;funcret
  8993  003E8A                     __end_of_TMR0_DefaultInterruptHandler:
  8994                           	callstack 0
  8995                           
  8996 ;; *************** function _TimerTick_ISR *****************
  8997 ;; Defined at:
  8998 ;;		line 128 in file "main.c"
  8999 ;; Parameters:    Size  Location     Type
  9000 ;;		None
  9001 ;; Auto vars:     Size  Location     Type
  9002 ;;		None
  9003 ;; Return value:  Size  Location     Type
  9004 ;;                  1    wreg      void 
  9005 ;; Registers used:
  9006 ;;		wreg, status,2, status,0
  9007 ;; Tracked objects:
  9008 ;;		On entry : 0/0
  9009 ;;		On exit  : 0/0
  9010 ;;		Unchanged: 0/0
  9011 ;; Data sizes:     COMRAM   BANK5   BANK6   BANK7   BANK8   BANK9  BANK10  BANK11  BANK12  BANK13  BANK14  BANK15  BANK1
      +6  BANK17  BANK18  BANK19  BANK20  BANK21  BANK22  BANK23  BANK24  BANK25  BANK26  BANK27  BANK28  BANK29  BANK30  BANK3
      +1  BANK32  BANK33  BANK34  BANK35  BANK36
  9012 ;;      Params:         0       0       0       0       0       0       0       0       0       0       0       0       
      +0       0       0       0       0       0       0       0       0       0       0       0       0       0       0       
      +0       0       0       0       0       0
  9013 ;;      Locals:         0       0       0       0       0       0       0       0       0       0       0       0       
      +0       0       0       0       0       0       0       0       0       0       0       0       0       0       0       
      +0       0       0       0       0       0
  9014 ;;      Temps:          0       0       0       0       0       0       0       0       0       0       0       0       
      +0       0       0       0       0       0       0       0       0       0       0       0       0       0       0       
      +0       0       0       0       0       0
  9015 ;;      Totals:         0       0       0       0       0       0       0       0       0       0       0       0       
      +0       0       0       0       0       0       0       0       0       0       0       0       0       0       0       
      +0       0       0       0       0       0
  9016 ;;Total ram usage:        0 bytes
  9017 ;; Hardware stack levels used:    1
  9018 ;; This function calls:
  9019 ;;		Nothing
  9020 ;; This function is called by:
  9021 ;;		_APP_Initialize
  9022 ;;		_TMR0_CallBack
  9023 ;; This function uses a non-reentrant model
  9024 ;;
  9025                           
  9026                           	psect	text93
  9027  0037CE                     __ptext93:
  9028                           	callstack 0
  9029  0037CE                     _TimerTick_ISR:
  9030                           	callstack 119
  9031  0037CE  80C1               	bsf	193,0,c	;volatile
  9032  0037D0                     
  9033                           ;main.c: 132:     tickOccured = 1;
  9034  0037D0  0E01               	movlw	1
  9035  0037D2  6E40               	movwf	_tickOccured^(0+1280),c	;volatile
  9036  0037D4                     
  9037                           ;main.c: 134:     static volatile uint16_t count = 0;;main.c: 136:     if (++count >= 25
      +                          6)
  9038  0037D4  4A34               	infsnz	TimerTick_ISR@count^(0+1280),f,c	;volatile
  9039  0037D6  2A35               	incf	(TimerTick_ISR@count+1)^(0+1280),f,c	;volatile
  9040  0037D8  0E00               	movlw	0
  9041  0037DA  5C34               	subwf	TimerTick_ISR@count^(0+1280),w,c	;volatile
  9042  0037DC  0E01               	movlw	1
  9043  0037DE  5835               	subwfb	(TimerTick_ISR@count+1)^(0+1280),w,c	;volatile
  9044  0037E0  A0D8               	btfss	status,0,c
  9045  0037E2  EFF5  F01B         	goto	i2u16_41
  9046  0037E6  EFF7  F01B         	goto	i2u16_40
  9047  0037EA                     i2u16_41:
  9048  0037EA  EF05  F01C         	goto	i2l3417
  9049  0037EE                     i2u16_40:
  9050  0037EE                     
  9051                           ;main.c: 137:     {;main.c: 138:         count = 0;
  9052  0037EE  0E00               	movlw	0
  9053  0037F0  6E35               	movwf	(TimerTick_ISR@count+1)^(0+1280),c	;volatile
  9054  0037F2  0E00               	movlw	0
  9055  0037F4  6E34               	movwf	TimerTick_ISR@count^(0+1280),c	;volatile
  9056                           
  9057                           ;main.c: 139:         if(!transferToStorage) {
  9058  0037F6  5041               	movf	_transferToStorage^(0+1280),w,c	;volatile
  9059  0037F8  A4D8               	btfss	status,2,c
  9060  0037FA  EF01  F01C         	goto	i2u17_41
  9061  0037FE  EF03  F01C         	goto	i2u17_40
  9062  003802                     i2u17_41:
  9063  003802  EF05  F01C         	goto	i2l3417
  9064  003806                     i2u17_40:
  9065  003806                     
  9066                           ;main.c: 140:             transferToStorage = 1;
  9067  003806  0E01               	movlw	1
  9068  003808  6E41               	movwf	_transferToStorage^(0+1280),c	;volatile
  9069  00380A                     i2l3417:
  9070  00380A  90C1               	bcf	193,0,c	;volatile
  9071  00380C  0012               	return		;funcret
  9072  00380E                     __end_of_TimerTick_ISR:
  9073                           	callstack 0
  9074                           
  9075 ;; *************** function _TMR6_ISR *****************
  9076 ;; Defined at:
  9077 ;;		line 166 in file "mcc_generated_files/tmr6.c"
  9078 ;; Parameters:    Size  Location     Type
  9079 ;;		None
  9080 ;; Auto vars:     Size  Location     Type
  9081 ;;		None
  9082 ;; Return value:  Size  Location     Type
  9083 ;;                  1    wreg      void 
  9084 ;; Registers used:
  9085 ;;		wreg, status,2, status,0, pclath, tosl, cstack
  9086 ;; Tracked objects:
  9087 ;;		On entry : 0/0
  9088 ;;		On exit  : 0/0
  9089 ;;		Unchanged: 0/0
  9090 ;; Data sizes:     COMRAM   BANK5   BANK6   BANK7   BANK8   BANK9  BANK10  BANK11  BANK12  BANK13  BANK14  BANK15  BANK1
      +6  BANK17  BANK18  BANK19  BANK20  BANK21  BANK22  BANK23  BANK24  BANK25  BANK26  BANK27  BANK28  BANK29  BANK30  BANK3
      +1  BANK32  BANK33  BANK34  BANK35  BANK36
  9091 ;;      Params:         0       0       0       0       0       0       0       0       0       0       0       0       
      +0       0       0       0       0       0       0       0       0       0       0       0       0       0       0       
      +0       0       0       0       0       0
  9092 ;;      Locals:         0       0       0       0       0       0       0       0       0       0       0       0       
      +0       0       0       0       0       0       0       0       0       0       0       0       0       0       0       
      +0       0       0       0       0       0
  9093 ;;      Temps:          0       0       0       0       0       0       0       0       0       0       0       0       
      +0       0       0       0       0       0       0       0       0       0       0       0       0       0       0       
      +0       0       0       0       0       0
  9094 ;;      Totals:         0       0       0       0       0       0       0       0       0       0       0       0       
      +0       0       0       0       0       0       0       0       0       0       0       0       0       0       0       
      +0       0       0       0       0       0
  9095 ;;Total ram usage:        0 bytes
  9096 ;; Hardware stack levels used:    1
  9097 ;; Hardware stack levels required when called:    2
  9098 ;; This function calls:
  9099 ;;		_TMR6_CallBack
  9100 ;; This function is called by:
  9101 ;;		Interrupt level 2
  9102 ;; This function uses a non-reentrant model
  9103 ;;
  9104                           
  9105                           	psect	text94
  9106  003E38                     __ptext94:
  9107                           	callstack 0
  9108  003E38                     _TMR6_ISR:
  9109                           	callstack 119
  9110  003E38                     
  9111                           ;mcc_generated_files/tmr6.c: 170:     PIR15bits.TMR6IF = 0;
  9112  003E38  96BD               	bcf	189,3,c	;volatile
  9113  003E3A                     
  9114                           ;mcc_generated_files/tmr6.c: 174:     TMR6_CallBack();
  9115  003E3A  ECC1  F01C         	call	_TMR6_CallBack	;wreg free
  9116  003E3E  0011               	retfie		f
  9117  003E40                     __end_of_TMR6_ISR:
  9118                           	callstack 0
  9119                           
  9120 ;; *************** function _TMR6_CallBack *****************
  9121 ;; Defined at:
  9122 ;;		line 177 in file "mcc_generated_files/tmr6.c"
  9123 ;; Parameters:    Size  Location     Type
  9124 ;;		None
  9125 ;; Auto vars:     Size  Location     Type
  9126 ;;		None
  9127 ;; Return value:  Size  Location     Type
  9128 ;;                  1    wreg      void 
  9129 ;; Registers used:
  9130 ;;		wreg, status,2, status,0, pclath, tosl, cstack
  9131 ;; Tracked objects:
  9132 ;;		On entry : 0/0
  9133 ;;		On exit  : 0/0
  9134 ;;		Unchanged: 0/0
  9135 ;; Data sizes:     COMRAM   BANK5   BANK6   BANK7   BANK8   BANK9  BANK10  BANK11  BANK12  BANK13  BANK14  BANK15  BANK1
      +6  BANK17  BANK18  BANK19  BANK20  BANK21  BANK22  BANK23  BANK24  BANK25  BANK26  BANK27  BANK28  BANK29  BANK30  BANK3
      +1  BANK32  BANK33  BANK34  BANK35  BANK36
  9136 ;;      Params:         0       0       0       0       0       0       0       0       0       0       0       0       
      +0       0       0       0       0       0       0       0       0       0       0       0       0       0       0       
      +0       0       0       0       0       0
  9137 ;;      Locals:         0       0       0       0       0       0       0       0       0       0       0       0       
      +0       0       0       0       0       0       0       0       0       0       0       0       0       0       0       
      +0       0       0       0       0       0
  9138 ;;      Temps:          0       0       0       0       0       0       0       0       0       0       0       0       
      +0       0       0       0       0       0       0       0       0       0       0       0       0       0       0       
      +0       0       0       0       0       0
  9139 ;;      Totals:         0       0       0       0       0       0       0       0       0       0       0       0       
      +0       0       0       0       0       0       0       0       0       0       0       0       0       0       0       
      +0       0       0       0       0       0
  9140 ;;Total ram usage:        0 bytes
  9141 ;; Hardware stack levels used:    1
  9142 ;; Hardware stack levels required when called:    1
  9143 ;; This function calls:
  9144 ;;		Absolute function
  9145 ;;		_BlinkTimer_ISR
  9146 ;;		_TMR6_DefaultInterruptHandler
  9147 ;; This function is called by:
  9148 ;;		_TMR6_ISR
  9149 ;; This function uses a non-reentrant model
  9150 ;;
  9151                           
  9152                           	psect	text95
  9153  003982                     __ptext95:
  9154                           	callstack 0
  9155  003982                     _TMR6_CallBack:
  9156                           	callstack 119
  9157  003982                     
  9158                           ;mcc_generated_files/tmr6.c: 181:     if(TMR6_InterruptHandler)
  9159  003982  5051               	movf	_TMR6_InterruptHandler^(0+1280),w,c
  9160  003984  1052               	iorwf	(_TMR6_InterruptHandler+1)^(0+1280),w,c
  9161  003986  1053               	iorwf	(_TMR6_InterruptHandler+2)^(0+1280),w,c
  9162  003988  B4D8               	btfsc	status,2,c
  9163  00398A  EFC9  F01C         	goto	i2u44_41
  9164  00398E  EFCB  F01C         	goto	i2u44_40
  9165  003992                     i2u44_41:
  9166  003992  EFD8  F01C         	goto	i2l475
  9167  003996                     i2u44_40:
  9168  003996                     
  9169                           ;mcc_generated_files/tmr6.c: 182:     {;mcc_generated_files/tmr6.c: 183:         TMR6_In
      +                          terruptHandler();
  9170  003996  D802               	call	i2u45_48
  9171  003998  EFD8  F01C         	goto	i2u45_49
  9172  00399C                     i2u45_48:
  9173  00399C  0005               	push	
  9174  00399E  6EFA               	movwf	pclath,c
  9175  0039A0  5051               	movf	_TMR6_InterruptHandler^(0+1280),w,c
  9176  0039A2  6EFD               	movwf	tosl,c
  9177  0039A4  5052               	movf	(_TMR6_InterruptHandler+1)^(0+1280),w,c
  9178  0039A6  6EFE               	movwf	tosh,c
  9179  0039A8  5053               	movf	(_TMR6_InterruptHandler+2)^(0+1280),w,c
  9180  0039AA  6EFF               	movwf	tosu,c
  9181  0039AC  50FA               	movf	pclath,w,c
  9182  0039AE  0012               	return		;indir
  9183  0039B0                     i2u45_49:
  9184  0039B0                     i2l475:
  9185  0039B0  0012               	return		;funcret
  9186  0039B2                     __end_of_TMR6_CallBack:
  9187                           	callstack 0
  9188                           
  9189 ;; *************** function _BlinkTimer_ISR *****************
  9190 ;; Defined at:
  9191 ;;		line 167 in file "main.c"
  9192 ;; Parameters:    Size  Location     Type
  9193 ;;		None
  9194 ;; Auto vars:     Size  Location     Type
  9195 ;;		None
  9196 ;; Return value:  Size  Location     Type
  9197 ;;                  1    wreg      void 
  9198 ;; Registers used:
  9199 ;;		wreg, status,2, status,0
  9200 ;; Tracked objects:
  9201 ;;		On entry : 0/0
  9202 ;;		On exit  : 0/0
  9203 ;;		Unchanged: 0/0
  9204 ;; Data sizes:     COMRAM   BANK5   BANK6   BANK7   BANK8   BANK9  BANK10  BANK11  BANK12  BANK13  BANK14  BANK15  BANK1
      +6  BANK17  BANK18  BANK19  BANK20  BANK21  BANK22  BANK23  BANK24  BANK25  BANK26  BANK27  BANK28  BANK29  BANK30  BANK3
      +1  BANK32  BANK33  BANK34  BANK35  BANK36
  9205 ;;      Params:         0       0       0       0       0       0       0       0       0       0       0       0       
      +0       0       0       0       0       0       0       0       0       0       0       0       0       0       0       
      +0       0       0       0       0       0
  9206 ;;      Locals:         0       0       0       0       0       0       0       0       0       0       0       0       
      +0       0       0       0       0       0       0       0       0       0       0       0       0       0       0       
      +0       0       0       0       0       0
  9207 ;;      Temps:          1       0       0       0       0       0       0       0       0       0       0       0       
      +0       0       0       0       0       0       0       0       0       0       0       0       0       0       0       
      +0       0       0       0       0       0
  9208 ;;      Totals:         1       0       0       0       0       0       0       0       0       0       0       0       
      +0       0       0       0       0       0       0       0       0       0       0       0       0       0       0       
      +0       0       0       0       0       0
  9209 ;;Total ram usage:        1 bytes
  9210 ;; Hardware stack levels used:    1
  9211 ;; This function calls:
  9212 ;;		Nothing
  9213 ;; This function is called by:
  9214 ;;		_APP_Initialize
  9215 ;;		_TMR6_CallBack
  9216 ;; This function uses a non-reentrant model
  9217 ;;
  9218                           
  9219                           	psect	text96
  9220  003A30                     __ptext96:
  9221                           	callstack 0
  9222  003A30                     _BlinkTimer_ISR:
  9223                           	callstack 119
  9224  003A30  B6C3               	btfsc	195,3,c	;volatile
  9225  003A32  EF1D  F01D         	goto	i2u19_41
  9226  003A36  EF20  F01D         	goto	i2u19_40
  9227  003A3A                     i2u19_41:
  9228  003A3A  0E01               	movlw	1
  9229  003A3C  EF21  F01D         	goto	i2u19_46
  9230  003A40                     i2u19_40:
  9231  003A40  0E00               	movlw	0
  9232  003A42                     i2u19_46:
  9233  003A42  0AFF               	xorlw	255
  9234  003A44  6E01               	movwf	??_BlinkTimer_ISR^(0+1280),c
  9235  003A46  4601               	rlncf	??_BlinkTimer_ISR^(0+1280),f,c
  9236  003A48  4601               	rlncf	??_BlinkTimer_ISR^(0+1280),f,c
  9237  003A4A  4601               	rlncf	??_BlinkTimer_ISR^(0+1280),f,c
  9238  003A4C  50C3               	movf	195,w,c	;volatile
  9239  003A4E  1801               	xorwf	??_BlinkTimer_ISR^(0+1280),w,c
  9240  003A50  0BF7               	andlw	-9
  9241  003A52  1801               	xorwf	??_BlinkTimer_ISR^(0+1280),w,c
  9242  003A54  6EC3               	movwf	195,c	;volatile
  9243  003A56  0012               	return		;funcret
  9244  003A58                     __end_of_BlinkTimer_ISR:
  9245                           	callstack 0
  9246                           
  9247 ;; *************** function _TMR6_DefaultInterruptHandler *****************
  9248 ;; Defined at:
  9249 ;;		line 191 in file "mcc_generated_files/tmr6.c"
  9250 ;; Parameters:    Size  Location     Type
  9251 ;;		None
  9252 ;; Auto vars:     Size  Location     Type
  9253 ;;		None
  9254 ;; Return value:  Size  Location     Type
  9255 ;;                  1    wreg      void 
  9256 ;; Registers used:
  9257 ;;		None
  9258 ;; Tracked objects:
  9259 ;;		On entry : 0/0
  9260 ;;		On exit  : 0/0
  9261 ;;		Unchanged: 0/0
  9262 ;; Data sizes:     COMRAM   BANK5   BANK6   BANK7   BANK8   BANK9  BANK10  BANK11  BANK12  BANK13  BANK14  BANK15  BANK1
      +6  BANK17  BANK18  BANK19  BANK20  BANK21  BANK22  BANK23  BANK24  BANK25  BANK26  BANK27  BANK28  BANK29  BANK30  BANK3
      +1  BANK32  BANK33  BANK34  BANK35  BANK36
  9263 ;;      Params:         0       0       0       0       0       0       0       0       0       0       0       0       
      +0       0       0       0       0       0       0       0       0       0       0       0       0       0       0       
      +0       0       0       0       0       0
  9264 ;;      Locals:         0       0       0       0       0       0       0       0       0       0       0       0       
      +0       0       0       0       0       0       0       0       0       0       0       0       0       0       0       
      +0       0       0       0       0       0
  9265 ;;      Temps:          0       0       0       0       0       0       0       0       0       0       0       0       
      +0       0       0       0       0       0       0       0       0       0       0       0       0       0       0       
      +0       0       0       0       0       0
  9266 ;;      Totals:         0       0       0       0       0       0       0       0       0       0       0       0       
      +0       0       0       0       0       0       0       0       0       0       0       0       0       0       0       
      +0       0       0       0       0       0
  9267 ;;Total ram usage:        0 bytes
  9268 ;; Hardware stack levels used:    1
  9269 ;; This function calls:
  9270 ;;		Nothing
  9271 ;; This function is called by:
  9272 ;;		_TMR6_Initialize
  9273 ;;		_TMR6_CallBack
  9274 ;; This function uses a non-reentrant model
  9275 ;;
  9276                           
  9277                           	psect	text97
  9278  003E8A                     __ptext97:
  9279                           	callstack 0
  9280  003E8A                     _TMR6_DefaultInterruptHandler:
  9281                           	callstack 119
  9282  003E8A  0012               	return		;funcret
  9283  003E8C                     __end_of_TMR6_DefaultInterruptHandler:
  9284                           	callstack 0
  9285                           
  9286 ;; *************** function _CLC1_ISR *****************
  9287 ;; Defined at:
  9288 ;;		line 97 in file "mcc_generated_files/clc1.c"
  9289 ;; Parameters:    Size  Location     Type
  9290 ;;		None
  9291 ;; Auto vars:     Size  Location     Type
  9292 ;;		None
  9293 ;; Return value:  Size  Location     Type
  9294 ;;                  1    wreg      void 
  9295 ;; Registers used:
  9296 ;;		wreg, status,2, cstack
  9297 ;; Tracked objects:
  9298 ;;		On entry : 0/0
  9299 ;;		On exit  : 0/0
  9300 ;;		Unchanged: 0/0
  9301 ;; Data sizes:     COMRAM   BANK5   BANK6   BANK7   BANK8   BANK9  BANK10  BANK11  BANK12  BANK13  BANK14  BANK15  BANK1
      +6  BANK17  BANK18  BANK19  BANK20  BANK21  BANK22  BANK23  BANK24  BANK25  BANK26  BANK27  BANK28  BANK29  BANK30  BANK3
      +1  BANK32  BANK33  BANK34  BANK35  BANK36
  9302 ;;      Params:         0       0       0       0       0       0       0       0       0       0       0       0       
      +0       0       0       0       0       0       0       0       0       0       0       0       0       0       0       
      +0       0       0       0       0       0
  9303 ;;      Locals:         0       0       0       0       0       0       0       0       0       0       0       0       
      +0       0       0       0       0       0       0       0       0       0       0       0       0       0       0       
      +0       0       0       0       0       0
  9304 ;;      Temps:          0       0       0       0       0       0       0       0       0       0       0       0       
      +0       0       0       0       0       0       0       0       0       0       0       0       0       0       0       
      +0       0       0       0       0       0
  9305 ;;      Totals:         0       0       0       0       0       0       0       0       0       0       0       0       
      +0       0       0       0       0       0       0       0       0       0       0       0       0       0       0       
      +0       0       0       0       0       0
  9306 ;;Total ram usage:        0 bytes
  9307 ;; Hardware stack levels used:    1
  9308 ;; Hardware stack levels required when called:    1
  9309 ;; This function calls:
  9310 ;;		_CLC1_OutputStatusGet
  9311 ;; This function is called by:
  9312 ;;		Interrupt level 2
  9313 ;; This function uses a non-reentrant model
  9314 ;;
  9315                           
  9316                           	psect	text98
  9317  003AC8                     __ptext98:
  9318                           	callstack 0
  9319  003AC8                     _CLC1_ISR:
  9320                           	callstack 120
  9321  003AC8                     
  9322                           ;mcc_generated_files/clc1.c: 100:     PIR0bits.CLC1IF = 0;
  9323  003AC8  9AAE               	bcf	174,5,c	;volatile
  9324  003ACA                     
  9325                           ;mcc_generated_files/clc1.c: 101:     if(CLC1_OutputStatusGet())
  9326  003ACA  EC5D  F01E         	call	_CLC1_OutputStatusGet	;wreg free
  9327  003ACE  0900               	iorlw	0
  9328  003AD0  B4D8               	btfsc	status,2,c
  9329  003AD2  EF6D  F01D         	goto	i2u95_41
  9330  003AD6  EF6F  F01D         	goto	i2u95_40
  9331  003ADA                     i2u95_41:
  9332  003ADA  EF73  F01D         	goto	i2l4117
  9333  003ADE                     i2u95_40:
  9334  003ADE                     
  9335                           ;mcc_generated_files/clc1.c: 102:         sw0_pressed = 1;
  9336  003ADE  0E01               	movlw	1
  9337  003AE0  6E46               	movwf	_sw0_pressed^(0+1280),c
  9338  003AE2  EF75  F01D         	goto	i2l527
  9339  003AE6                     i2l4117:
  9340  003AE6  0E01               	movlw	1
  9341  003AE8  6E45               	movwf	_sw0_released^(0+1280),c
  9342  003AEA                     i2l527:
  9343  003AEA  0011               	retfie		f
  9344  003AEC                     __end_of_CLC1_ISR:
  9345                           	callstack 0
  9346                           
  9347 ;; *************** function _CLC1_OutputStatusGet *****************
  9348 ;; Defined at:
  9349 ;;		line 106 in file "mcc_generated_files/clc1.c"
  9350 ;; Parameters:    Size  Location     Type
  9351 ;;		None
  9352 ;; Auto vars:     Size  Location     Type
  9353 ;;		None
  9354 ;; Return value:  Size  Location     Type
  9355 ;;                  1    wreg      _Bool 
  9356 ;; Registers used:
  9357 ;;		wreg
  9358 ;; Tracked objects:
  9359 ;;		On entry : 0/0
  9360 ;;		On exit  : 0/0
  9361 ;;		Unchanged: 0/0
  9362 ;; Data sizes:     COMRAM   BANK5   BANK6   BANK7   BANK8   BANK9  BANK10  BANK11  BANK12  BANK13  BANK14  BANK15  BANK1
      +6  BANK17  BANK18  BANK19  BANK20  BANK21  BANK22  BANK23  BANK24  BANK25  BANK26  BANK27  BANK28  BANK29  BANK30  BANK3
      +1  BANK32  BANK33  BANK34  BANK35  BANK36
  9363 ;;      Params:         0       0       0       0       0       0       0       0       0       0       0       0       
      +0       0       0       0       0       0       0       0       0       0       0       0       0       0       0       
      +0       0       0       0       0       0
  9364 ;;      Locals:         0       0       0       0       0       0       0       0       0       0       0       0       
      +0       0       0       0       0       0       0       0       0       0       0       0       0       0       0       
      +0       0       0       0       0       0
  9365 ;;      Temps:          0       0       0       0       0       0       0       0       0       0       0       0       
      +0       0       0       0       0       0       0       0       0       0       0       0       0       0       0       
      +0       0       0       0       0       0
  9366 ;;      Totals:         0       0       0       0       0       0       0       0       0       0       0       0       
      +0       0       0       0       0       0       0       0       0       0       0       0       0       0       0       
      +0       0       0       0       0       0
  9367 ;;Total ram usage:        0 bytes
  9368 ;; Hardware stack levels used:    1
  9369 ;; This function calls:
  9370 ;;		Nothing
  9371 ;; This function is called by:
  9372 ;;		_CLC1_ISR
  9373 ;; This function uses a non-reentrant model
  9374 ;;
  9375                           
  9376                           	psect	text99
  9377  003CBA                     __ptext99:
  9378                           	callstack 0
  9379  003CBA                     _CLC1_OutputStatusGet:
  9380                           	callstack 120
  9381  003CBA                     
  9382                           ;mcc_generated_files/clc1.c: 108:     return(CLCDATAbits.CLC1OUT);
  9383  003CBA  0100               	movlb	0	; () banked
  9384  003CBC  B1D4               	btfsc	212,0,b	;volatile
  9385  003CBE  EF63  F01E         	goto	i2u46_41
  9386  003CC2  EF66  F01E         	goto	i2u46_40
  9387  003CC6                     i2u46_41:
  9388  003CC6  0E01               	movlw	1
  9389  003CC8  EF67  F01E         	goto	i2u46_46
  9390  003CCC                     i2u46_40:
  9391  003CCC  0E00               	movlw	0
  9392  003CCE                     i2u46_46:
  9393  003CCE                     
  9394                           ; BSR set to: 0
  9395  003CCE  0012               	return		;funcret
  9396  003CD0                     __end_of_CLC1_OutputStatusGet:
  9397                           	callstack 0
  9398                           
  9399 ;; *************** function _Default_ISR *****************
  9400 ;; Defined at:
  9401 ;;		line 78 in file "mcc_generated_files/interrupt_manager.c"
  9402 ;; Parameters:    Size  Location     Type
  9403 ;;		None
  9404 ;; Auto vars:     Size  Location     Type
  9405 ;;		None
  9406 ;; Return value:  Size  Location     Type
  9407 ;;                  1    wreg      void 
  9408 ;; Registers used:
  9409 ;;		None
  9410 ;; Tracked objects:
  9411 ;;		On entry : 0/0
  9412 ;;		On exit  : 0/0
  9413 ;;		Unchanged: 0/0
  9414 ;; Data sizes:     COMRAM   BANK5   BANK6   BANK7   BANK8   BANK9  BANK10  BANK11  BANK12  BANK13  BANK14  BANK15  BANK1
      +6  BANK17  BANK18  BANK19  BANK20  BANK21  BANK22  BANK23  BANK24  BANK25  BANK26  BANK27  BANK28  BANK29  BANK30  BANK3
      +1  BANK32  BANK33  BANK34  BANK35  BANK36
  9415 ;;      Params:         0       0       0       0       0       0       0       0       0       0       0       0       
      +0       0       0       0       0       0       0       0       0       0       0       0       0       0       0       
      +0       0       0       0       0       0
  9416 ;;      Locals:         0       0       0       0       0       0       0       0       0       0       0       0       
      +0       0       0       0       0       0       0       0       0       0       0       0       0       0       0       
      +0       0       0       0       0       0
  9417 ;;      Temps:          0       0       0       0       0       0       0       0       0       0       0       0       
      +0       0       0       0       0       0       0       0       0       0       0       0       0       0       0       
      +0       0       0       0       0       0
  9418 ;;      Totals:         0       0       0       0       0       0       0       0       0       0       0       0       
      +0       0       0       0       0       0       0       0       0       0       0       0       0       0       0       
      +0       0       0       0       0       0
  9419 ;;Total ram usage:        0 bytes
  9420 ;; Hardware stack levels used:    1
  9421 ;; This function calls:
  9422 ;;		Nothing
  9423 ;; This function is called by:
  9424 ;;		Interrupt level 2
  9425 ;; This function uses a non-reentrant model
  9426 ;;
  9427                           
  9428                           	psect	text100
  9429  003E8C                     __ptext100:
  9430                           	callstack 0
  9431  003E8C                     _Default_ISR:
  9432                           	callstack 121
  9433  003E8C  0011               	retfie		f
  9434  003E8E                     __end_of_Default_ISR:
  9435                           	callstack 0
  9436                           
  9437 ;; *************** function _MEMORY_ISR *****************
  9438 ;; Defined at:
  9439 ;;		line 278 in file "mcc_generated_files/memory.c"
  9440 ;; Parameters:    Size  Location     Type
  9441 ;;		None
  9442 ;; Auto vars:     Size  Location     Type
  9443 ;;		None
  9444 ;; Return value:  Size  Location     Type
  9445 ;;                  1    wreg      void 
  9446 ;; Registers used:
  9447 ;;		None
  9448 ;; Tracked objects:
  9449 ;;		On entry : 0/0
  9450 ;;		On exit  : 0/0
  9451 ;;		Unchanged: 0/0
  9452 ;; Data sizes:     COMRAM   BANK5   BANK6   BANK7   BANK8   BANK9  BANK10  BANK11  BANK12  BANK13  BANK14  BANK15  BANK1
      +6  BANK17  BANK18  BANK19  BANK20  BANK21  BANK22  BANK23  BANK24  BANK25  BANK26  BANK27  BANK28  BANK29  BANK30  BANK3
      +1  BANK32  BANK33  BANK34  BANK35  BANK36
  9453 ;;      Params:         0       0       0       0       0       0       0       0       0       0       0       0       
      +0       0       0       0       0       0       0       0       0       0       0       0       0       0       0       
      +0       0       0       0       0       0
  9454 ;;      Locals:         0       0       0       0       0       0       0       0       0       0       0       0       
      +0       0       0       0       0       0       0       0       0       0       0       0       0       0       0       
      +0       0       0       0       0       0
  9455 ;;      Temps:          0       0       0       0       0       0       0       0       0       0       0       0       
      +0       0       0       0       0       0       0       0       0       0       0       0       0       0       0       
      +0       0       0       0       0       0
  9456 ;;      Totals:         0       0       0       0       0       0       0       0       0       0       0       0       
      +0       0       0       0       0       0       0       0       0       0       0       0       0       0       0       
      +0       0       0       0       0       0
  9457 ;;Total ram usage:        0 bytes
  9458 ;; Hardware stack levels used:    1
  9459 ;; This function calls:
  9460 ;;		Nothing
  9461 ;; This function is called by:
  9462 ;;		Interrupt level 2
  9463 ;; This function uses a non-reentrant model
  9464 ;;
  9465                           
  9466                           	psect	text101
  9467  003E84                     __ptext101:
  9468                           	callstack 0
  9469  003E84                     _MEMORY_ISR:
  9470                           	callstack 121
  9471  003E84                     
  9472                           ;mcc_generated_files/memory.c: 281:     PIR15bits.NVMIF = 0;
  9473  003E84  90BD               	bcf	189,0,c	;volatile
  9474  003E86  0011               	retfie		f
  9475  003E88                     __end_of_MEMORY_ISR:
  9476                           	callstack 0
  9477                           
  9478 ;; *************** function _PWM2_16BIT_PWMI_ISR *****************
  9479 ;; Defined at:
  9480 ;;		line 168 in file "mcc_generated_files/pwm2_16bit.c"
  9481 ;; Parameters:    Size  Location     Type
  9482 ;;		None
  9483 ;; Auto vars:     Size  Location     Type
  9484 ;;		None
  9485 ;; Return value:  Size  Location     Type
  9486 ;;                  1    wreg      void 
  9487 ;; Registers used:
  9488 ;;		wreg, status,2, status,0, pclath, tosl, cstack
  9489 ;; Tracked objects:
  9490 ;;		On entry : 0/0
  9491 ;;		On exit  : 0/0
  9492 ;;		Unchanged: 0/0
  9493 ;; Data sizes:     COMRAM   BANK5   BANK6   BANK7   BANK8   BANK9  BANK10  BANK11  BANK12  BANK13  BANK14  BANK15  BANK1
      +6  BANK17  BANK18  BANK19  BANK20  BANK21  BANK22  BANK23  BANK24  BANK25  BANK26  BANK27  BANK28  BANK29  BANK30  BANK3
      +1  BANK32  BANK33  BANK34  BANK35  BANK36
  9494 ;;      Params:         0       0       0       0       0       0       0       0       0       0       0       0       
      +0       0       0       0       0       0       0       0       0       0       0       0       0       0       0       
      +0       0       0       0       0       0
  9495 ;;      Locals:         0       0       0       0       0       0       0       0       0       0       0       0       
      +0       0       0       0       0       0       0       0       0       0       0       0       0       0       0       
      +0       0       0       0       0       0
  9496 ;;      Temps:          0       0       0       0       0       0       0       0       0       0       0       0       
      +0       0       0       0       0       0       0       0       0       0       0       0       0       0       0       
      +0       0       0       0       0       0
  9497 ;;      Totals:         0       0       0       0       0       0       0       0       0       0       0       0       
      +0       0       0       0       0       0       0       0       0       0       0       0       0       0       0       
      +0       0       0       0       0       0
  9498 ;;Total ram usage:        0 bytes
  9499 ;; Hardware stack levels used:    1
  9500 ;; Hardware stack levels required when called:    1
  9501 ;; This function calls:
  9502 ;;		Absolute function
  9503 ;;		_PWM2_16BIT_Slice1Output1_DefaultInterruptHandler
  9504 ;;		_PWM2_16BIT_Slice1Output2_DefaultInterruptHandler
  9505 ;; This function is called by:
  9506 ;;		Interrupt level 2
  9507 ;; This function uses a non-reentrant model
  9508 ;;
  9509                           
  9510                           	psect	text102
  9511  002F84                     __ptext102:
  9512                           	callstack 0
  9513  002F84                     _PWM2_16BIT_PWMI_ISR:
  9514                           	callstack 120
  9515  002F84                     
  9516                           ;mcc_generated_files/pwm2_16bit.c: 170:     PIR5bits.PWM2IF = 0;
  9517  002F84  9EB3               	bcf	179,7,c	;volatile
  9518                           
  9519                           ;mcc_generated_files/pwm2_16bit.c: 171:     if((PWM2GIEbits.S1P1IE == 1) && (PWM2GIRbits
      +                          .S1P1IF == 1))
  9520  002F86  A077               	btfss	119,0,c	;volatile
  9521  002F88  EFC8  F017         	goto	i2u108_41
  9522  002F8C  EFCA  F017         	goto	i2u108_40
  9523  002F90                     i2u108_41:
  9524  002F90  EFEB  F017         	goto	i2l1658
  9525  002F94                     i2u108_40:
  9526  002F94  A076               	btfss	118,0,c	;volatile
  9527  002F96  EFCF  F017         	goto	i2u109_41
  9528  002F9A  EFD1  F017         	goto	i2u109_40
  9529  002F9E                     i2u109_41:
  9530  002F9E  EFEB  F017         	goto	i2l1658
  9531  002FA2                     i2u109_40:
  9532  002FA2                     
  9533                           ;mcc_generated_files/pwm2_16bit.c: 172:     {;mcc_generated_files/pwm2_16bit.c: 173:    
      +                               PWM2GIRbits.S1P1IF = 0;
  9534  002FA2  9076               	bcf	118,0,c	;volatile
  9535  002FA4                     
  9536                           ;mcc_generated_files/pwm2_16bit.c: 174:         if(PWM2_16BIT_Slice1Output1_InterruptHan
      +                          dler != ((void*)0))
  9537  002FA4  504E               	movf	_PWM2_16BIT_Slice1Output1_InterruptHandler^(0+1280),w,c
  9538  002FA6  104F               	iorwf	(_PWM2_16BIT_Slice1Output1_InterruptHandler+1)^(0+1280),w,c
  9539  002FA8  1050               	iorwf	(_PWM2_16BIT_Slice1Output1_InterruptHandler+2)^(0+1280),w,c
  9540  002FAA  B4D8               	btfsc	status,2,c
  9541  002FAC  EFDA  F017         	goto	i2u110_41
  9542  002FB0  EFDC  F017         	goto	i2u110_40
  9543  002FB4                     i2u110_41:
  9544  002FB4  EF11  F018         	goto	i2l1663
  9545  002FB8                     i2u110_40:
  9546  002FB8                     
  9547                           ;mcc_generated_files/pwm2_16bit.c: 175:             PWM2_16BIT_Slice1Output1_InterruptHa
      +                          ndler();
  9548  002FB8  D802               	call	i2u111_48
  9549  002FBA  EFE9  F017         	goto	i2u111_49
  9550  002FBE                     i2u111_48:
  9551  002FBE  0005               	push	
  9552  002FC0  6EFA               	movwf	pclath,c
  9553  002FC2  504E               	movf	_PWM2_16BIT_Slice1Output1_InterruptHandler^(0+1280),w,c
  9554  002FC4  6EFD               	movwf	tosl,c
  9555  002FC6  504F               	movf	(_PWM2_16BIT_Slice1Output1_InterruptHandler+1)^(0+1280),w,c
  9556  002FC8  6EFE               	movwf	tosh,c
  9557  002FCA  5050               	movf	(_PWM2_16BIT_Slice1Output1_InterruptHandler+2)^(0+1280),w,c
  9558  002FCC  6EFF               	movwf	tosu,c
  9559  002FCE  50FA               	movf	pclath,w,c
  9560  002FD0  0012               	return		;indir
  9561  002FD2                     i2u111_49:
  9562  002FD2  EF11  F018         	goto	i2l1663
  9563  002FD6                     i2l1658:
  9564  002FD6  A277               	btfss	119,1,c	;volatile
  9565  002FD8  EFF0  F017         	goto	i2u112_41
  9566  002FDC  EFF2  F017         	goto	i2u112_40
  9567  002FE0                     i2u112_41:
  9568  002FE0  EF11  F018         	goto	i2l1663
  9569  002FE4                     i2u112_40:
  9570  002FE4  A276               	btfss	118,1,c	;volatile
  9571  002FE6  EFF7  F017         	goto	i2u113_41
  9572  002FEA  EFF9  F017         	goto	i2u113_40
  9573  002FEE                     i2u113_41:
  9574  002FEE  EF11  F018         	goto	i2l1663
  9575  002FF2                     i2u113_40:
  9576  002FF2                     
  9577                           ;mcc_generated_files/pwm2_16bit.c: 178:     {;mcc_generated_files/pwm2_16bit.c: 179:    
      +                               PWM2GIRbits.S1P2IF = 0;
  9578  002FF2  9276               	bcf	118,1,c	;volatile
  9579  002FF4                     
  9580                           ;mcc_generated_files/pwm2_16bit.c: 180:         if(PWM2_16BIT_Slice1Output2_InterruptHan
      +                          dler != ((void*)0))
  9581  002FF4  504B               	movf	_PWM2_16BIT_Slice1Output2_InterruptHandler^(0+1280),w,c
  9582  002FF6  104C               	iorwf	(_PWM2_16BIT_Slice1Output2_InterruptHandler+1)^(0+1280),w,c
  9583  002FF8  104D               	iorwf	(_PWM2_16BIT_Slice1Output2_InterruptHandler+2)^(0+1280),w,c
  9584  002FFA  B4D8               	btfsc	status,2,c
  9585  002FFC  EF02  F018         	goto	i2u114_41
  9586  003000  EF04  F018         	goto	i2u114_40
  9587  003004                     i2u114_41:
  9588  003004  EF11  F018         	goto	i2l1663
  9589  003008                     i2u114_40:
  9590  003008                     
  9591                           ;mcc_generated_files/pwm2_16bit.c: 181:             PWM2_16BIT_Slice1Output2_InterruptHa
      +                          ndler();
  9592  003008  D802               	call	i2u115_48
  9593  00300A  EF11  F018         	goto	i2u115_49
  9594  00300E                     i2u115_48:
  9595  00300E  0005               	push	
  9596  003010  6EFA               	movwf	pclath,c
  9597  003012  504B               	movf	_PWM2_16BIT_Slice1Output2_InterruptHandler^(0+1280),w,c
  9598  003014  6EFD               	movwf	tosl,c
  9599  003016  504C               	movf	(_PWM2_16BIT_Slice1Output2_InterruptHandler+1)^(0+1280),w,c
  9600  003018  6EFE               	movwf	tosh,c
  9601  00301A  504D               	movf	(_PWM2_16BIT_Slice1Output2_InterruptHandler+2)^(0+1280),w,c
  9602  00301C  6EFF               	movwf	tosu,c
  9603  00301E  50FA               	movf	pclath,w,c
  9604  003020  0012               	return		;indir
  9605  003022                     i2u115_49:
  9606  003022                     i2l1663:
  9607  003022  0011               	retfie		f
  9608  003024                     __end_of_PWM2_16BIT_PWMI_ISR:
  9609                           	callstack 0
  9610                           
  9611 ;; *************** function _PWM2_16BIT_Slice1Output2_DefaultInterruptHandler *****************
  9612 ;; Defined at:
  9613 ;;		line 213 in file "mcc_generated_files/pwm2_16bit.c"
  9614 ;; Parameters:    Size  Location     Type
  9615 ;;		None
  9616 ;; Auto vars:     Size  Location     Type
  9617 ;;		None
  9618 ;; Return value:  Size  Location     Type
  9619 ;;                  1    wreg      void 
  9620 ;; Registers used:
  9621 ;;		None
  9622 ;; Tracked objects:
  9623 ;;		On entry : 0/0
  9624 ;;		On exit  : 0/0
  9625 ;;		Unchanged: 0/0
  9626 ;; Data sizes:     COMRAM   BANK5   BANK6   BANK7   BANK8   BANK9  BANK10  BANK11  BANK12  BANK13  BANK14  BANK15  BANK1
      +6  BANK17  BANK18  BANK19  BANK20  BANK21  BANK22  BANK23  BANK24  BANK25  BANK26  BANK27  BANK28  BANK29  BANK30  BANK3
      +1  BANK32  BANK33  BANK34  BANK35  BANK36
  9627 ;;      Params:         0       0       0       0       0       0       0       0       0       0       0       0       
      +0       0       0       0       0       0       0       0       0       0       0       0       0       0       0       
      +0       0       0       0       0       0
  9628 ;;      Locals:         0       0       0       0       0       0       0       0       0       0       0       0       
      +0       0       0       0       0       0       0       0       0       0       0       0       0       0       0       
      +0       0       0       0       0       0
  9629 ;;      Temps:          0       0       0       0       0       0       0       0       0       0       0       0       
      +0       0       0       0       0       0       0       0       0       0       0       0       0       0       0       
      +0       0       0       0       0       0
  9630 ;;      Totals:         0       0       0       0       0       0       0       0       0       0       0       0       
      +0       0       0       0       0       0       0       0       0       0       0       0       0       0       0       
      +0       0       0       0       0       0
  9631 ;;Total ram usage:        0 bytes
  9632 ;; Hardware stack levels used:    1
  9633 ;; This function calls:
  9634 ;;		Nothing
  9635 ;; This function is called by:
  9636 ;;		_PWM2_16BIT_Initialize
  9637 ;;		_PWM2_16BIT_PWMI_ISR
  9638 ;; This function uses a non-reentrant model
  9639 ;;
  9640                           
  9641                           	psect	text103
  9642  003E8E                     __ptext103:
  9643                           	callstack 0
  9644  003E8E                     _PWM2_16BIT_Slice1Output2_DefaultInterruptHandler:
  9645                           	callstack 120
  9646  003E8E  0012               	return		;funcret
  9647  003E90                     __end_of_PWM2_16BIT_Slice1Output2_DefaultInterruptHandler:
  9648                           	callstack 0
  9649                           
  9650 ;; *************** function _PWM2_16BIT_Slice1Output1_DefaultInterruptHandler *****************
  9651 ;; Defined at:
  9652 ;;		line 207 in file "mcc_generated_files/pwm2_16bit.c"
  9653 ;; Parameters:    Size  Location     Type
  9654 ;;		None
  9655 ;; Auto vars:     Size  Location     Type
  9656 ;;		None
  9657 ;; Return value:  Size  Location     Type
  9658 ;;                  1    wreg      void 
  9659 ;; Registers used:
  9660 ;;		None
  9661 ;; Tracked objects:
  9662 ;;		On entry : 0/0
  9663 ;;		On exit  : 0/0
  9664 ;;		Unchanged: 0/0
  9665 ;; Data sizes:     COMRAM   BANK5   BANK6   BANK7   BANK8   BANK9  BANK10  BANK11  BANK12  BANK13  BANK14  BANK15  BANK1
      +6  BANK17  BANK18  BANK19  BANK20  BANK21  BANK22  BANK23  BANK24  BANK25  BANK26  BANK27  BANK28  BANK29  BANK30  BANK3
      +1  BANK32  BANK33  BANK34  BANK35  BANK36
  9666 ;;      Params:         0       0       0       0       0       0       0       0       0       0       0       0       
      +0       0       0       0       0       0       0       0       0       0       0       0       0       0       0       
      +0       0       0       0       0       0
  9667 ;;      Locals:         0       0       0       0       0       0       0       0       0       0       0       0       
      +0       0       0       0       0       0       0       0       0       0       0       0       0       0       0       
      +0       0       0       0       0       0
  9668 ;;      Temps:          0       0       0       0       0       0       0       0       0       0       0       0       
      +0       0       0       0       0       0       0       0       0       0       0       0       0       0       0       
      +0       0       0       0       0       0
  9669 ;;      Totals:         0       0       0       0       0       0       0       0       0       0       0       0       
      +0       0       0       0       0       0       0       0       0       0       0       0       0       0       0       
      +0       0       0       0       0       0
  9670 ;;Total ram usage:        0 bytes
  9671 ;; Hardware stack levels used:    1
  9672 ;; This function calls:
  9673 ;;		Nothing
  9674 ;; This function is called by:
  9675 ;;		_PWM2_16BIT_Initialize
  9676 ;;		_PWM2_16BIT_PWMI_ISR
  9677 ;; This function uses a non-reentrant model
  9678 ;;
  9679                           
  9680                           	psect	text104
  9681  003E90                     __ptext104:
  9682                           	callstack 0
  9683  003E90                     _PWM2_16BIT_Slice1Output1_DefaultInterruptHandler:
  9684                           	callstack 120
  9685  003E90  0012               	return		;funcret
  9686  003E92                     __end_of_PWM2_16BIT_Slice1Output1_DefaultInterruptHandler:
  9687                           	callstack 0
  9688                           
  9689 ;; *************** function _PWM2_16BIT_PWMPI_ISR *****************
  9690 ;; Defined at:
  9691 ;;		line 185 in file "mcc_generated_files/pwm2_16bit.c"
  9692 ;; Parameters:    Size  Location     Type
  9693 ;;		None
  9694 ;; Auto vars:     Size  Location     Type
  9695 ;;		None
  9696 ;; Return value:  Size  Location     Type
  9697 ;;                  1    wreg      void 
  9698 ;; Registers used:
  9699 ;;		wreg, status,2, status,0, pclath, tosl, cstack
  9700 ;; Tracked objects:
  9701 ;;		On entry : 0/0
  9702 ;;		On exit  : 0/0
  9703 ;;		Unchanged: 0/0
  9704 ;; Data sizes:     COMRAM   BANK5   BANK6   BANK7   BANK8   BANK9  BANK10  BANK11  BANK12  BANK13  BANK14  BANK15  BANK1
      +6  BANK17  BANK18  BANK19  BANK20  BANK21  BANK22  BANK23  BANK24  BANK25  BANK26  BANK27  BANK28  BANK29  BANK30  BANK3
      +1  BANK32  BANK33  BANK34  BANK35  BANK36
  9705 ;;      Params:         0       0       0       0       0       0       0       0       0       0       0       0       
      +0       0       0       0       0       0       0       0       0       0       0       0       0       0       0       
      +0       0       0       0       0       0
  9706 ;;      Locals:         0       0       0       0       0       0       0       0       0       0       0       0       
      +0       0       0       0       0       0       0       0       0       0       0       0       0       0       0       
      +0       0       0       0       0       0
  9707 ;;      Temps:          0       0       0       0       0       0       0       0       0       0       0       0       
      +0       0       0       0       0       0       0       0       0       0       0       0       0       0       0       
      +0       0       0       0       0       0
  9708 ;;      Totals:         0       0       0       0       0       0       0       0       0       0       0       0       
      +0       0       0       0       0       0       0       0       0       0       0       0       0       0       0       
      +0       0       0       0       0       0
  9709 ;;Total ram usage:        0 bytes
  9710 ;; Hardware stack levels used:    1
  9711 ;; Hardware stack levels required when called:    1
  9712 ;; This function calls:
  9713 ;;		Absolute function
  9714 ;;		_PWM2_16BIT_Period_DefaultInterruptHandler
  9715 ;; This function is called by:
  9716 ;;		Interrupt level 2
  9717 ;; This function uses a non-reentrant model
  9718 ;;
  9719                           
  9720                           	psect	text105
  9721  003920                     __ptext105:
  9722                           	callstack 0
  9723  003920                     _PWM2_16BIT_PWMPI_ISR:
  9724                           	callstack 120
  9725  003920                     
  9726                           ;mcc_generated_files/pwm2_16bit.c: 187:     PIR5bits.PWM2PIF = 0;
  9727  003920  9CB3               	bcf	179,6,c	;volatile
  9728  003922                     
  9729                           ;mcc_generated_files/pwm2_16bit.c: 188:     if(PWM2_16BIT_Period_InterruptHandler != ((v
      +                          oid*)0))
  9730  003922  5048               	movf	_PWM2_16BIT_Period_InterruptHandler^(0+1280),w,c
  9731  003924  1049               	iorwf	(_PWM2_16BIT_Period_InterruptHandler+1)^(0+1280),w,c
  9732  003926  104A               	iorwf	(_PWM2_16BIT_Period_InterruptHandler+2)^(0+1280),w,c
  9733  003928  B4D8               	btfsc	status,2,c
  9734  00392A  EF99  F01C         	goto	i2u116_41
  9735  00392E  EF9B  F01C         	goto	i2u116_40
  9736  003932                     i2u116_41:
  9737  003932  EFA8  F01C         	goto	i2l1669
  9738  003936                     i2u116_40:
  9739  003936                     
  9740                           ;mcc_generated_files/pwm2_16bit.c: 189:         PWM2_16BIT_Period_InterruptHandler();
  9741  003936  D802               	call	i2u117_48
  9742  003938  EFA8  F01C         	goto	i2u117_49
  9743  00393C                     i2u117_48:
  9744  00393C  0005               	push	
  9745  00393E  6EFA               	movwf	pclath,c
  9746  003940  5048               	movf	_PWM2_16BIT_Period_InterruptHandler^(0+1280),w,c
  9747  003942  6EFD               	movwf	tosl,c
  9748  003944  5049               	movf	(_PWM2_16BIT_Period_InterruptHandler+1)^(0+1280),w,c
  9749  003946  6EFE               	movwf	tosh,c
  9750  003948  504A               	movf	(_PWM2_16BIT_Period_InterruptHandler+2)^(0+1280),w,c
  9751  00394A  6EFF               	movwf	tosu,c
  9752  00394C  50FA               	movf	pclath,w,c
  9753  00394E  0012               	return		;indir
  9754  003950                     i2u117_49:
  9755  003950                     i2l1669:
  9756  003950  0011               	retfie		f
  9757  003952                     __end_of_PWM2_16BIT_PWMPI_ISR:
  9758                           	callstack 0
  9759                           
  9760 ;; *************** function _PWM2_16BIT_Period_DefaultInterruptHandler *****************
  9761 ;; Defined at:
  9762 ;;		line 219 in file "mcc_generated_files/pwm2_16bit.c"
  9763 ;; Parameters:    Size  Location     Type
  9764 ;;		None
  9765 ;; Auto vars:     Size  Location     Type
  9766 ;;		None
  9767 ;; Return value:  Size  Location     Type
  9768 ;;                  1    wreg      void 
  9769 ;; Registers used:
  9770 ;;		None
  9771 ;; Tracked objects:
  9772 ;;		On entry : 0/0
  9773 ;;		On exit  : 0/0
  9774 ;;		Unchanged: 0/0
  9775 ;; Data sizes:     COMRAM   BANK5   BANK6   BANK7   BANK8   BANK9  BANK10  BANK11  BANK12  BANK13  BANK14  BANK15  BANK1
      +6  BANK17  BANK18  BANK19  BANK20  BANK21  BANK22  BANK23  BANK24  BANK25  BANK26  BANK27  BANK28  BANK29  BANK30  BANK3
      +1  BANK32  BANK33  BANK34  BANK35  BANK36
  9776 ;;      Params:         0       0       0       0       0       0       0       0       0       0       0       0       
      +0       0       0       0       0       0       0       0       0       0       0       0       0       0       0       
      +0       0       0       0       0       0
  9777 ;;      Locals:         0       0       0       0       0       0       0       0       0       0       0       0       
      +0       0       0       0       0       0       0       0       0       0       0       0       0       0       0       
      +0       0       0       0       0       0
  9778 ;;      Temps:          0       0       0       0       0       0       0       0       0       0       0       0       
      +0       0       0       0       0       0       0       0       0       0       0       0       0       0       0       
      +0       0       0       0       0       0
  9779 ;;      Totals:         0       0       0       0       0       0       0       0       0       0       0       0       
      +0       0       0       0       0       0       0       0       0       0       0       0       0       0       0       
      +0       0       0       0       0       0
  9780 ;;Total ram usage:        0 bytes
  9781 ;; Hardware stack levels used:    1
  9782 ;; This function calls:
  9783 ;;		Nothing
  9784 ;; This function is called by:
  9785 ;;		_PWM2_16BIT_Initialize
  9786 ;;		_PWM2_16BIT_PWMPI_ISR
  9787 ;; This function uses a non-reentrant model
  9788 ;;
  9789                           
  9790                           	psect	text106
  9791  003E92                     __ptext106:
  9792                           	callstack 0
  9793  003E92                     _PWM2_16BIT_Period_DefaultInterruptHandler:
  9794                           	callstack 120
  9795  003E92  0012               	return		;funcret
  9796  003E94                     __end_of_PWM2_16BIT_Period_DefaultInterruptHandler:
  9797                           	callstack 0
  9798                           
  9799 ;; *************** function _CLC2_ISR *****************
  9800 ;; Defined at:
  9801 ;;		line 97 in file "mcc_generated_files/clc2.c"
  9802 ;; Parameters:    Size  Location     Type
  9803 ;;		None
  9804 ;; Auto vars:     Size  Location     Type
  9805 ;;		None
  9806 ;; Return value:  Size  Location     Type
  9807 ;;                  1    wreg      void 
  9808 ;; Registers used:
  9809 ;;		wreg, status,2, cstack
  9810 ;; Tracked objects:
  9811 ;;		On entry : 0/0
  9812 ;;		On exit  : 0/0
  9813 ;;		Unchanged: 0/0
  9814 ;; Data sizes:     COMRAM   BANK5   BANK6   BANK7   BANK8   BANK9  BANK10  BANK11  BANK12  BANK13  BANK14  BANK15  BANK1
      +6  BANK17  BANK18  BANK19  BANK20  BANK21  BANK22  BANK23  BANK24  BANK25  BANK26  BANK27  BANK28  BANK29  BANK30  BANK3
      +1  BANK32  BANK33  BANK34  BANK35  BANK36
  9815 ;;      Params:         0       0       0       0       0       0       0       0       0       0       0       0       
      +0       0       0       0       0       0       0       0       0       0       0       0       0       0       0       
      +0       0       0       0       0       0
  9816 ;;      Locals:         0       0       0       0       0       0       0       0       0       0       0       0       
      +0       0       0       0       0       0       0       0       0       0       0       0       0       0       0       
      +0       0       0       0       0       0
  9817 ;;      Temps:          0       0       0       0       0       0       0       0       0       0       0       0       
      +0       0       0       0       0       0       0       0       0       0       0       0       0       0       0       
      +0       0       0       0       0       0
  9818 ;;      Totals:         0       0       0       0       0       0       0       0       0       0       0       0       
      +0       0       0       0       0       0       0       0       0       0       0       0       0       0       0       
      +0       0       0       0       0       0
  9819 ;;Total ram usage:        0 bytes
  9820 ;; Hardware stack levels used:    1
  9821 ;; Hardware stack levels required when called:    1
  9822 ;; This function calls:
  9823 ;;		_CLC2_OutputStatusGet
  9824 ;; This function is called by:
  9825 ;;		Interrupt level 2
  9826 ;; This function uses a non-reentrant model
  9827 ;;
  9828                           
  9829                           	psect	text107
  9830  003AEC                     __ptext107:
  9831                           	callstack 0
  9832  003AEC                     _CLC2_ISR:
  9833                           	callstack 120
  9834  003AEC                     
  9835                           ;mcc_generated_files/clc2.c: 100:     PIR6bits.CLC2IF = 0;
  9836  003AEC  92B4               	bcf	180,1,c	;volatile
  9837  003AEE                     
  9838                           ;mcc_generated_files/clc2.c: 101:     if(CLC2_OutputStatusGet())
  9839  003AEE  EC68  F01E         	call	_CLC2_OutputStatusGet	;wreg free
  9840  003AF2  0900               	iorlw	0
  9841  003AF4  B4D8               	btfsc	status,2,c
  9842  003AF6  EF7F  F01D         	goto	i2u118_41
  9843  003AFA  EF81  F01D         	goto	i2u118_40
  9844  003AFE                     i2u118_41:
  9845  003AFE  EF85  F01D         	goto	i2l4797
  9846  003B02                     i2u118_40:
  9847  003B02                     
  9848                           ;mcc_generated_files/clc2.c: 102:         sw1_pressed = 1;
  9849  003B02  0E01               	movlw	1
  9850  003B04  6E44               	movwf	_sw1_pressed^(0+1280),c
  9851  003B06  EF87  F01D         	goto	i2l1733
  9852  003B0A                     i2l4797:
  9853  003B0A  0E01               	movlw	1
  9854  003B0C  6E43               	movwf	_sw1_released^(0+1280),c
  9855  003B0E                     i2l1733:
  9856  003B0E  0011               	retfie		f
  9857  003B10                     __end_of_CLC2_ISR:
  9858                           	callstack 0
  9859                           
  9860 ;; *************** function _CLC2_OutputStatusGet *****************
  9861 ;; Defined at:
  9862 ;;		line 106 in file "mcc_generated_files/clc2.c"
  9863 ;; Parameters:    Size  Location     Type
  9864 ;;		None
  9865 ;; Auto vars:     Size  Location     Type
  9866 ;;		None
  9867 ;; Return value:  Size  Location     Type
  9868 ;;                  1    wreg      _Bool 
  9869 ;; Registers used:
  9870 ;;		wreg
  9871 ;; Tracked objects:
  9872 ;;		On entry : 0/0
  9873 ;;		On exit  : 0/0
  9874 ;;		Unchanged: 0/0
  9875 ;; Data sizes:     COMRAM   BANK5   BANK6   BANK7   BANK8   BANK9  BANK10  BANK11  BANK12  BANK13  BANK14  BANK15  BANK1
      +6  BANK17  BANK18  BANK19  BANK20  BANK21  BANK22  BANK23  BANK24  BANK25  BANK26  BANK27  BANK28  BANK29  BANK30  BANK3
      +1  BANK32  BANK33  BANK34  BANK35  BANK36
  9876 ;;      Params:         0       0       0       0       0       0       0       0       0       0       0       0       
      +0       0       0       0       0       0       0       0       0       0       0       0       0       0       0       
      +0       0       0       0       0       0
  9877 ;;      Locals:         0       0       0       0       0       0       0       0       0       0       0       0       
      +0       0       0       0       0       0       0       0       0       0       0       0       0       0       0       
      +0       0       0       0       0       0
  9878 ;;      Temps:          0       0       0       0       0       0       0       0       0       0       0       0       
      +0       0       0       0       0       0       0       0       0       0       0       0       0       0       0       
      +0       0       0       0       0       0
  9879 ;;      Totals:         0       0       0       0       0       0       0       0       0       0       0       0       
      +0       0       0       0       0       0       0       0       0       0       0       0       0       0       0       
      +0       0       0       0       0       0
  9880 ;;Total ram usage:        0 bytes
  9881 ;; Hardware stack levels used:    1
  9882 ;; This function calls:
  9883 ;;		Nothing
  9884 ;; This function is called by:
  9885 ;;		_CLC2_ISR
  9886 ;; This function uses a non-reentrant model
  9887 ;;
  9888                           
  9889                           	psect	text108
  9890  003CD0                     __ptext108:
  9891                           	callstack 0
  9892  003CD0                     _CLC2_OutputStatusGet:
  9893                           	callstack 120
  9894  003CD0                     
  9895                           ;mcc_generated_files/clc2.c: 108:     return(CLCDATAbits.CLC2OUT);
  9896  003CD0  0100               	movlb	0	; () banked
  9897  003CD2  B3D4               	btfsc	212,1,b	;volatile
  9898  003CD4  EF6E  F01E         	goto	i2u51_41
  9899  003CD8  EF71  F01E         	goto	i2u51_40
  9900  003CDC                     i2u51_41:
  9901  003CDC  0E01               	movlw	1
  9902  003CDE  EF72  F01E         	goto	i2u51_46
  9903  003CE2                     i2u51_40:
  9904  003CE2  0E00               	movlw	0
  9905  003CE4                     i2u51_46:
  9906  003CE4                     
  9907                           ; BSR set to: 0
  9908  003CE4  0012               	return		;funcret
  9909  003CE6                     __end_of_CLC2_OutputStatusGet:
  9910                           	callstack 0
  9911                           
  9912                           ;
  9913                           ; Interrupt Vector Table @ 0x8
  9914                           ;
  9915                           
  9916                           	psect	ivt0x8
  9917  000008                     __pivt0x8:
  9918                           	callstack 0
  9919  000008                     ivt0x8_base:
  9920                           	callstack 0
  9921                           
  9922                           ; Vector 0 : SWINT
  9923  000008  0FA3               	dw	_Default_ISR shr (0+2)
  9924                           
  9925                           ; Vector 1 : HLVD
  9926  00000A  0FA3               	dw	_Default_ISR shr (0+2)
  9927                           
  9928                           ; Vector 2 : OSF
  9929  00000C  0FA3               	dw	_Default_ISR shr (0+2)
  9930                           
  9931                           ; Vector 3 : CSW
  9932  00000E  0FA3               	dw	_Default_ISR shr (0+2)
  9933                           
  9934                           ; Vector 4 : Undefined
  9935  000010  0040               	dw	ivt0x8_undefint shr (0+2)
  9936                           
  9937                           ; Vector 5 : CLC1
  9938  000012  0EB2               	dw	_CLC1_ISR shr (0+2)
  9939                           
  9940                           ; Vector 6 : Undefined
  9941  000014  0040               	dw	ivt0x8_undefint shr (0+2)
  9942                           
  9943                           ; Vector 7 : IOC
  9944  000016  0FA3               	dw	_Default_ISR shr (0+2)
  9945                           
  9946                           ; Vector 8 : INT0
  9947  000018  0FA3               	dw	_Default_ISR shr (0+2)
  9948                           
  9949                           ; Vector 9 : ZCD
  9950  00001A  0FA3               	dw	_Default_ISR shr (0+2)
  9951                           
  9952                           ; Vector 10 : AD
  9953  00001C  0FA3               	dw	_Default_ISR shr (0+2)
  9954                           
  9955                           ; Vector 11 : ACT
  9956  00001E  0FA3               	dw	_Default_ISR shr (0+2)
  9957                           
  9958                           ; Vector 12 : CMP1
  9959  000020  0FA3               	dw	_Default_ISR shr (0+2)
  9960                           
  9961                           ; Vector 13 : SMT1
  9962  000022  0FA3               	dw	_Default_ISR shr (0+2)
  9963                           
  9964                           ; Vector 14 : SMT1PRA
  9965  000024  0FA3               	dw	_Default_ISR shr (0+2)
  9966                           
  9967                           ; Vector 15 : SMT1PRW
  9968  000026  0FA3               	dw	_Default_ISR shr (0+2)
  9969                           
  9970                           ; Vector 16 : ADT
  9971  000028  0FA3               	dw	_Default_ISR shr (0+2)
  9972                           
  9973                           ; Vector 17 : Undefined
  9974  00002A  0040               	dw	ivt0x8_undefint shr (0+2)
  9975                           
  9976                           ; Vector 18 : Undefined
  9977  00002C  0040               	dw	ivt0x8_undefint shr (0+2)
  9978                           
  9979                           ; Vector 19 : Undefined
  9980  00002E  0040               	dw	ivt0x8_undefint shr (0+2)
  9981                           
  9982                           ; Vector 20 : DMA1SCNT
  9983  000030  0FA3               	dw	_Default_ISR shr (0+2)
  9984                           
  9985                           ; Vector 21 : DMA1DCNT
  9986  000032  0FA3               	dw	_Default_ISR shr (0+2)
  9987                           
  9988                           ; Vector 22 : DMA1OR
  9989  000034  0FA3               	dw	_Default_ISR shr (0+2)
  9990                           
  9991                           ; Vector 23 : DMA1A
  9992  000036  0FA3               	dw	_Default_ISR shr (0+2)
  9993                           
  9994                           ; Vector 24 : SPI1RX
  9995  000038  0FA3               	dw	_Default_ISR shr (0+2)
  9996                           
  9997                           ; Vector 25 : SPI1TX
  9998  00003A  0FA3               	dw	_Default_ISR shr (0+2)
  9999                           
 10000                           ; Vector 26 : SPI1
 10001  00003C  0FA3               	dw	_Default_ISR shr (0+2)
 10002                           
 10003                           ; Vector 27 : TMR2
 10004  00003E  0FA3               	dw	_Default_ISR shr (0+2)
 10005                           
 10006                           ; Vector 28 : TMR1
 10007  000040  0FA3               	dw	_Default_ISR shr (0+2)
 10008                           
 10009                           ; Vector 29 : TMR1G
 10010  000042  0FA3               	dw	_Default_ISR shr (0+2)
 10011                           
 10012                           ; Vector 30 : CCP1
 10013  000044  0FA3               	dw	_Default_ISR shr (0+2)
 10014                           
 10015                           ; Vector 31 : TMR0
 10016  000046  0F44               	dw	_TMR0_ISR shr (0+2)
 10017                           
 10018                           ; Vector 32 : U1RX
 10019  000048  0FA3               	dw	_Default_ISR shr (0+2)
 10020                           
 10021                           ; Vector 33 : U1TX
 10022  00004A  0FA3               	dw	_Default_ISR shr (0+2)
 10023                           
 10024                           ; Vector 34 : U1E
 10025  00004C  0FA3               	dw	_Default_ISR shr (0+2)
 10026                           
 10027                           ; Vector 35 : U1
 10028  00004E  0FA3               	dw	_Default_ISR shr (0+2)
 10029                           
 10030                           ; Vector 36 : Undefined
 10031  000050  0040               	dw	ivt0x8_undefint shr (0+2)
 10032                           
 10033                           ; Vector 37 : Undefined
 10034  000052  0040               	dw	ivt0x8_undefint shr (0+2)
 10035                           
 10036                           ; Vector 38 : PWM1PR
 10037  000054  0FA3               	dw	_Default_ISR shr (0+2)
 10038                           
 10039                           ; Vector 39 : PWM1
 10040  000056  0FA3               	dw	_Default_ISR shr (0+2)
 10041                           
 10042                           ; Vector 40 : SPI2RX
 10043  000058  0FA3               	dw	_Default_ISR shr (0+2)
 10044                           
 10045                           ; Vector 41 : SPI2TX
 10046  00005A  0FA3               	dw	_Default_ISR shr (0+2)
 10047                           
 10048                           ; Vector 42 : SPI2
 10049  00005C  0FA3               	dw	_Default_ISR shr (0+2)
 10050                           
 10051                           ; Vector 43 : Undefined
 10052  00005E  0040               	dw	ivt0x8_undefint shr (0+2)
 10053                           
 10054                           ; Vector 44 : TMR3
 10055  000060  0FA3               	dw	_Default_ISR shr (0+2)
 10056                           
 10057                           ; Vector 45 : TMR3G
 10058  000062  0FA3               	dw	_Default_ISR shr (0+2)
 10059                           
 10060                           ; Vector 46 : PWM2PR
 10061  000064  0E48               	dw	_PWM2_16BIT_PWMPI_ISR shr (0+2)
 10062                           
 10063                           ; Vector 47 : PWM2
 10064  000066  0BE1               	dw	_PWM2_16BIT_PWMI_ISR shr (0+2)
 10065                           
 10066                           ; Vector 48 : INT1
 10067  000068  0FA3               	dw	_Default_ISR shr (0+2)
 10068                           
 10069                           ; Vector 49 : CLC2
 10070  00006A  0EBB               	dw	_CLC2_ISR shr (0+2)
 10071                           
 10072                           ; Vector 50 : CWG1
 10073  00006C  0FA3               	dw	_Default_ISR shr (0+2)
 10074                           
 10075                           ; Vector 51 : NCO1
 10076  00006E  0FA3               	dw	_Default_ISR shr (0+2)
 10077                           
 10078                           ; Vector 52 : DMA2SCNT
 10079  000070  0FA3               	dw	_Default_ISR shr (0+2)
 10080                           
 10081                           ; Vector 53 : DMA2DCNT
 10082  000072  0FA3               	dw	_Default_ISR shr (0+2)
 10083                           
 10084                           ; Vector 54 : DMA2OR
 10085  000074  0FA3               	dw	_Default_ISR shr (0+2)
 10086                           
 10087                           ; Vector 55 : DMA2A
 10088  000076  0FA3               	dw	_Default_ISR shr (0+2)
 10089                           
 10090                           ; Vector 56 : I2C1RX
 10091  000078  0FA3               	dw	_Default_ISR shr (0+2)
 10092                           
 10093                           ; Vector 57 : I2C1TX
 10094  00007A  0FA3               	dw	_Default_ISR shr (0+2)
 10095                           
 10096                           ; Vector 58 : I2C1
 10097  00007C  0FA3               	dw	_Default_ISR shr (0+2)
 10098                           
 10099                           ; Vector 59 : I2C1E
 10100  00007E  0FA3               	dw	_Default_ISR shr (0+2)
 10101                           
 10102                           ; Vector 60 : Undefined
 10103  000080  0040               	dw	ivt0x8_undefint shr (0+2)
 10104                           
 10105                           ; Vector 61 : CLC3
 10106  000082  0FA3               	dw	_Default_ISR shr (0+2)
 10107                           
 10108                           ; Vector 62 : PWM3PR
 10109  000084  0FA3               	dw	_Default_ISR shr (0+2)
 10110                           
 10111                           ; Vector 63 : PWM3
 10112  000086  0FA3               	dw	_Default_ISR shr (0+2)
 10113                           
 10114                           ; Vector 64 : U2RX
 10115  000088  0FA3               	dw	_Default_ISR shr (0+2)
 10116                           
 10117                           ; Vector 65 : U2TX
 10118  00008A  0FA3               	dw	_Default_ISR shr (0+2)
 10119                           
 10120                           ; Vector 66 : U2E
 10121  00008C  0FA3               	dw	_Default_ISR shr (0+2)
 10122                           
 10123                           ; Vector 67 : U2
 10124  00008E  0FA3               	dw	_Default_ISR shr (0+2)
 10125                           
 10126                           ; Vector 68 : TMR5
 10127  000090  0FA3               	dw	_Default_ISR shr (0+2)
 10128                           
 10129                           ; Vector 69 : TMR5G
 10130  000092  0FA3               	dw	_Default_ISR shr (0+2)
 10131                           
 10132                           ; Vector 70 : CCP2
 10133  000094  0FA3               	dw	_Default_ISR shr (0+2)
 10134                           
 10135                           ; Vector 71 : SCAN
 10136  000096  0FA3               	dw	_Default_ISR shr (0+2)
 10137                           
 10138                           ; Vector 72 : U3RX
 10139  000098  0FA3               	dw	_Default_ISR shr (0+2)
 10140                           
 10141                           ; Vector 73 : U3TX
 10142  00009A  0FA3               	dw	_Default_ISR shr (0+2)
 10143                           
 10144                           ; Vector 74 : U3E
 10145  00009C  0FA3               	dw	_Default_ISR shr (0+2)
 10146                           
 10147                           ; Vector 75 : U3
 10148  00009E  0FA3               	dw	_Default_ISR shr (0+2)
 10149                           
 10150                           ; Vector 76 : Undefined
 10151  0000A0  0040               	dw	ivt0x8_undefint shr (0+2)
 10152                           
 10153                           ; Vector 77 : CLC4
 10154  0000A2  0FA3               	dw	_Default_ISR shr (0+2)
 10155                           
 10156                           ; Vector 78 : Undefined
 10157  0000A4  0040               	dw	ivt0x8_undefint shr (0+2)
 10158                           
 10159                           ; Vector 79 : Undefined
 10160  0000A6  0040               	dw	ivt0x8_undefint shr (0+2)
 10161                           
 10162                           ; Vector 80 : INT2
 10163  0000A8  0FA3               	dw	_Default_ISR shr (0+2)
 10164                           
 10165                           ; Vector 81 : CLC5
 10166  0000AA  0FA3               	dw	_Default_ISR shr (0+2)
 10167                           
 10168                           ; Vector 82 : CWG2
 10169  0000AC  0FA3               	dw	_Default_ISR shr (0+2)
 10170                           
 10171                           ; Vector 83 : NCO2
 10172  0000AE  0FA3               	dw	_Default_ISR shr (0+2)
 10173                           
 10174                           ; Vector 84 : DMA3SCNT
 10175  0000B0  0FA3               	dw	_Default_ISR shr (0+2)
 10176                           
 10177                           ; Vector 85 : DMA3DCNT
 10178  0000B2  0FA3               	dw	_Default_ISR shr (0+2)
 10179                           
 10180                           ; Vector 86 : DMA3OR
 10181  0000B4  0FA3               	dw	_Default_ISR shr (0+2)
 10182                           
 10183                           ; Vector 87 : DMA3A
 10184  0000B6  0FA3               	dw	_Default_ISR shr (0+2)
 10185                           
 10186                           ; Vector 88 : CCP3
 10187  0000B8  0FA3               	dw	_Default_ISR shr (0+2)
 10188                           
 10189                           ; Vector 89 : CLC6
 10190  0000BA  0FA3               	dw	_Default_ISR shr (0+2)
 10191                           
 10192                           ; Vector 90 : CWG3
 10193  0000BC  0FA3               	dw	_Default_ISR shr (0+2)
 10194                           
 10195                           ; Vector 91 : TMR4
 10196  0000BE  0FA3               	dw	_Default_ISR shr (0+2)
 10197                           
 10198                           ; Vector 92 : DMA4SCNT
 10199  0000C0  0FA3               	dw	_Default_ISR shr (0+2)
 10200                           
 10201                           ; Vector 93 : DMA4DCNT
 10202  0000C2  0FA3               	dw	_Default_ISR shr (0+2)
 10203                           
 10204                           ; Vector 94 : DMA4OR
 10205  0000C4  0FA3               	dw	_Default_ISR shr (0+2)
 10206                           
 10207                           ; Vector 95 : DMA4A
 10208  0000C6  0FA3               	dw	_Default_ISR shr (0+2)
 10209                           
 10210                           ; Vector 96 : U4RX
 10211  0000C8  0FA3               	dw	_Default_ISR shr (0+2)
 10212                           
 10213                           ; Vector 97 : U4TX
 10214  0000CA  0FA3               	dw	_Default_ISR shr (0+2)
 10215                           
 10216                           ; Vector 98 : U4E
 10217  0000CC  0FA3               	dw	_Default_ISR shr (0+2)
 10218                           
 10219                           ; Vector 99 : U4
 10220  0000CE  0FA3               	dw	_Default_ISR shr (0+2)
 10221                           
 10222                           ; Vector 100 : DMA5SCNT
 10223  0000D0  0FA3               	dw	_Default_ISR shr (0+2)
 10224                           
 10225                           ; Vector 101 : DMA5DCNT
 10226  0000D2  0FA3               	dw	_Default_ISR shr (0+2)
 10227                           
 10228                           ; Vector 102 : DMA5OR
 10229  0000D4  0FA3               	dw	_Default_ISR shr (0+2)
 10230                           
 10231                           ; Vector 103 : DMA5A
 10232  0000D6  0FA3               	dw	_Default_ISR shr (0+2)
 10233                           
 10234                           ; Vector 104 : U5RX
 10235  0000D8  0FA3               	dw	_Default_ISR shr (0+2)
 10236                           
 10237                           ; Vector 105 : U5TX
 10238  0000DA  0FA3               	dw	_Default_ISR shr (0+2)
 10239                           
 10240                           ; Vector 106 : U5E
 10241  0000DC  0FA3               	dw	_Default_ISR shr (0+2)
 10242                           
 10243                           ; Vector 107 : U5
 10244  0000DE  0FA3               	dw	_Default_ISR shr (0+2)
 10245                           
 10246                           ; Vector 108 : DMA6SCNT
 10247  0000E0  0FA3               	dw	_Default_ISR shr (0+2)
 10248                           
 10249                           ; Vector 109 : DMA6DCNT
 10250  0000E2  0FA3               	dw	_Default_ISR shr (0+2)
 10251                           
 10252                           ; Vector 110 : DMA6OR
 10253  0000E4  0FA3               	dw	_Default_ISR shr (0+2)
 10254                           
 10255                           ; Vector 111 : DMA6A
 10256  0000E6  0FA3               	dw	_Default_ISR shr (0+2)
 10257                           
 10258                           ; Vector 112 : Undefined
 10259  0000E8  0040               	dw	ivt0x8_undefint shr (0+2)
 10260                           
 10261                           ; Vector 113 : CLC7
 10262  0000EA  0FA3               	dw	_Default_ISR shr (0+2)
 10263                           
 10264                           ; Vector 114 : CMP2
 10265  0000EC  0FA3               	dw	_Default_ISR shr (0+2)
 10266                           
 10267                           ; Vector 115 : NCO3
 10268  0000EE  0FA3               	dw	_Default_ISR shr (0+2)
 10269                           
 10270                           ; Vector 116 : Undefined
 10271  0000F0  0040               	dw	ivt0x8_undefint shr (0+2)
 10272                           
 10273                           ; Vector 117 : Undefined
 10274  0000F2  0040               	dw	ivt0x8_undefint shr (0+2)
 10275                           
 10276                           ; Vector 118 : Undefined
 10277  0000F4  0040               	dw	ivt0x8_undefint shr (0+2)
 10278                           
 10279                           ; Vector 119 : Undefined
 10280  0000F6  0040               	dw	ivt0x8_undefint shr (0+2)
 10281                           
 10282                           ; Vector 120 : NVM
 10283  0000F8  0FA1               	dw	_MEMORY_ISR shr (0+2)
 10284                           
 10285                           ; Vector 121 : CLC8
 10286  0000FA  0FA3               	dw	_Default_ISR shr (0+2)
 10287                           
 10288                           ; Vector 122 : CRC
 10289  0000FC  0FA3               	dw	_Default_ISR shr (0+2)
 10290                           
 10291                           ; Vector 123 : TMR6
 10292  0000FE  0F8E               	dw	_TMR6_ISR shr (0+2)
 10293  000100                     ivt0x8_undefint:
 10294                           	callstack 0
 10295  000100  00FF               	reset	
 10296                           
 10297                           	psect	text109
 10298  000000                     __ptext109:
 10299                           	callstack 0
 10300  000000                     
 10301                           	psect	rparam
 10302  0000                     
 10303                           	psect	idloc
 10304                           
 10305                           ;Config register IDLOC0 @ 0x200000
 10306                           ;	unspecified, using default values
 10307  200000                     	org	2097152
 10308  200000  0FFF               	dw	4095
 10309                           
 10310                           ;Config register IDLOC1 @ 0x200002
 10311                           ;	unspecified, using default values
 10312  200002                     	org	2097154
 10313  200002  0FFF               	dw	4095
 10314                           
 10315                           ;Config register IDLOC2 @ 0x200004
 10316                           ;	unspecified, using default values
 10317  200004                     	org	2097156
 10318  200004  0FFF               	dw	4095
 10319                           
 10320                           ;Config register IDLOC3 @ 0x200006
 10321                           ;	unspecified, using default values
 10322  200006                     	org	2097158
 10323  200006  0FFF               	dw	4095
 10324                           
 10325                           ;Config register IDLOC4 @ 0x200008
 10326                           ;	unspecified, using default values
 10327  200008                     	org	2097160
 10328  200008  0FFF               	dw	4095
 10329                           
 10330                           ;Config register IDLOC5 @ 0x20000A
 10331                           ;	unspecified, using default values
 10332  20000A                     	org	2097162
 10333  20000A  0FFF               	dw	4095
 10334                           
 10335                           ;Config register IDLOC6 @ 0x20000C
 10336                           ;	unspecified, using default values
 10337  20000C                     	org	2097164
 10338  20000C  0FFF               	dw	4095
 10339                           
 10340                           ;Config register IDLOC7 @ 0x20000E
 10341                           ;	unspecified, using default values
 10342  20000E                     	org	2097166
 10343  20000E  0FFF               	dw	4095
 10344                           
 10345                           ;Config register IDLOC8 @ 0x200010
 10346                           ;	unspecified, using default values
 10347  200010                     	org	2097168
 10348  200010  0FFF               	dw	4095
 10349                           
 10350                           ;Config register IDLOC9 @ 0x200012
 10351                           ;	unspecified, using default values
 10352  200012                     	org	2097170
 10353  200012  0FFF               	dw	4095
 10354                           
 10355                           ;Config register IDLOC10 @ 0x200014
 10356                           ;	unspecified, using default values
 10357  200014                     	org	2097172
 10358  200014  0FFF               	dw	4095
 10359                           
 10360                           ;Config register IDLOC11 @ 0x200016
 10361                           ;	unspecified, using default values
 10362  200016                     	org	2097174
 10363  200016  0FFF               	dw	4095
 10364                           
 10365                           ;Config register IDLOC12 @ 0x200018
 10366                           ;	unspecified, using default values
 10367  200018                     	org	2097176
 10368  200018  0FFF               	dw	4095
 10369                           
 10370                           ;Config register IDLOC13 @ 0x20001A
 10371                           ;	unspecified, using default values
 10372  20001A                     	org	2097178
 10373  20001A  0FFF               	dw	4095
 10374                           
 10375                           ;Config register IDLOC14 @ 0x20001C
 10376                           ;	unspecified, using default values
 10377  20001C                     	org	2097180
 10378  20001C  0FFF               	dw	4095
 10379                           
 10380                           ;Config register IDLOC15 @ 0x20001E
 10381                           ;	unspecified, using default values
 10382  20001E                     	org	2097182
 10383  20001E  0FFF               	dw	4095
 10384                           
 10385                           	psect	config
 10386                           
 10387                           ;Config register CONFIG1 @ 0x300000
 10388                           ;	External Oscillator Selection
 10389                           ;	FEXTOSC = OFF, Oscillator not enabled
 10390                           ;	Reset Oscillator Selection
 10391                           ;	RSTOSC = HFINTOSC_64MHZ, HFINTOSC with HFFRQ = 64 MHz and CDIV = 1:1
 10392  300000                     	org	3145728
 10393  300000  8C                 	db	140
 10394                           
 10395                           ;Config register CONFIG2 @ 0x300001
 10396                           ;	Clock out Enable bit
 10397                           ;	CLKOUTEN = OFF, CLKOUT function is disabled
 10398                           ;	PRLOCKED One-Way Set Enable bit
 10399                           ;	PR1WAY = ON, PRLOCKED bit can be cleared and set only once
 10400                           ;	Clock Switch Enable bit
 10401                           ;	CSWEN = ON, Writing to NOSC and NDIV is allowed
 10402                           ;	Fail-Safe Clock Monitor Enable bit
 10403                           ;	FCMEN = ON, Fail-Safe Clock Monitor enabled
 10404  300001                     	org	3145729
 10405  300001  FF                 	db	255
 10406                           
 10407                           ;Config register CONFIG3 @ 0x300002
 10408                           ;	MCLR Enable bit
 10409                           ;	MCLRE = EXTMCLR, If LVP = 0, MCLR pin is MCLR; If LVP = 1, RE3 pin function is MCLR
 10410                           ;	Power-up timer selection bits
 10411                           ;	PWRTS = PWRT_OFF, PWRT is disabled
 10412                           ;	Multi-vector enable bit
 10413                           ;	MVECEN = ON, Multi-vector enabled, Vector table used for interrupts
 10414                           ;	IVTLOCK bit One-way set enable bit
 10415                           ;	IVT1WAY = ON, IVTLOCKED bit can be cleared and set only once
 10416                           ;	Low Power BOR Enable bit
 10417                           ;	LPBOREN = OFF, Low-Power BOR disabled
 10418                           ;	Brown-out Reset Enable bits
 10419                           ;	BOREN = SBORDIS, Brown-out Reset enabled , SBOREN bit is ignored
 10420  300002                     	org	3145730
 10421  300002  FF                 	db	255
 10422                           
 10423                           ;Config register CONFIG4 @ 0x300003
 10424                           ;	Brown-out Reset Voltage Selection bits
 10425                           ;	BORV = VBOR_1P9, Brown-out Reset Voltage (VBOR) set to 1.9V
 10426                           ;	ZCD Disable bit
 10427                           ;	ZCD = OFF, ZCD module is disabled. ZCD can be enabled by setting the ZCDSEN bit of ZCD
      +                          CON
 10428                           ;	PPSLOCK bit One-Way Set Enable bit
 10429                           ;	PPS1WAY = ON, PPSLOCKED bit can be cleared and set only once; PPS registers remain loc
      +                          ked after one clear/set cycle
 10430                           ;	Stack Full/Underflow Reset Enable bit
 10431                           ;	STVREN = ON, Stack full/underflow will cause Reset
 10432                           ;	Low Voltage Programming Enable bit
 10433                           ;	LVP = ON, Low voltage programming enabled. MCLR/VPP pin function is MCLR. MCLRE config
      +                          uration bit is ignored
 10434                           ;	Extended Instruction Set Enable bit
 10435                           ;	XINST = OFF, Extended Instruction Set and Indexed Addressing Mode disabled
 10436  300003                     	org	3145731
 10437  300003  FF                 	db	255
 10438                           
 10439                           ;Config register CONFIG5 @ 0x300004
 10440                           ;	WDT Period selection bits
 10441                           ;	WDTCPS = WDTCPS_31, Divider ratio 1:65536; software control of WDTPS
 10442                           ;	WDT operating mode
 10443                           ;	WDTE = OFF, WDT Disabled; SWDTEN is ignored
 10444  300004                     	org	3145732
 10445  300004  9F                 	db	159
 10446                           
 10447                           ;Config register CONFIG6 @ 0x300005
 10448                           ;	WDT Window Select bits
 10449                           ;	WDTCWS = WDTCWS_7, window always open (100%); software control; keyed access not requi
      +                          red
 10450                           ;	WDT input clock selector
 10451                           ;	WDTCCS = SC, Software Control
 10452  300005                     	org	3145733
 10453  300005  FF                 	db	255
 10454                           
 10455                           ;Config register CONFIG7 @ 0x300006
 10456                           ;	Boot Block Size selection bits
 10457                           ;	BBSIZE = BBSIZE_512, Boot Block size is 512 words
 10458                           ;	Boot Block enable bit
 10459                           ;	BBEN = OFF, Boot block disabled
 10460                           ;	Storage Area Flash enable bit
 10461                           ;	SAFEN = OFF, SAF disabled
 10462                           ;	Background Debugger
 10463                           ;	DEBUG = OFF, Background Debugger disabled
 10464  300006                     	org	3145734
 10465  300006  FF                 	db	255
 10466                           
 10467                           ;Config register CONFIG8 @ 0x300007
 10468                           ;	Boot Block Write Protection bit
 10469                           ;	WRTB = OFF, Boot Block not Write protected
 10470                           ;	Configuration Register Write Protection bit
 10471                           ;	WRTC = OFF, Configuration registers not Write protected
 10472                           ;	Data EEPROM Write Protection bit
 10473                           ;	WRTD = OFF, Data EEPROM not Write protected
 10474                           ;	SAF Write protection bit
 10475                           ;	WRTSAF = OFF, SAF not Write Protected
 10476                           ;	Application Block write protection bit
 10477                           ;	WRTAPP = OFF, Application Block not write protected
 10478  300007                     	org	3145735
 10479  300007  FF                 	db	255
 10480                           
 10481                           ; Padding undefined space
 10482  300008                     	org	3145736
 10483  300008  FF                 	db	255
 10484                           
 10485                           ;Config register CONFIG10 @ 0x300009
 10486                           ;	PFM and Data EEPROM Code Protection bit
 10487                           ;	CP = OFF, PFM and Data EEPROM code protection disabled
 10488  300009                     	org	3145737
 10489  300009  FF                 	db	255
 10490                           tosu	equ	0x4FF
 10491                           tosh	equ	0x4FE
 10492                           tosl	equ	0x4FD
 10493                           stkptr	equ	0x4FC
 10494                           pclatu	equ	0x4FB
 10495                           pclath	equ	0x4FA
 10496                           pcl	equ	0x4F9
 10497                           tblptru	equ	0x4F8
 10498                           tblptrh	equ	0x4F7
 10499                           tblptrl	equ	0x4F6
 10500                           tablat	equ	0x4F5
 10501                           prodh	equ	0x4F4
 10502                           prodl	equ	0x4F3
 10503                           indf0	equ	0x4EF
 10504                           postinc0	equ	0x4EE
 10505                           postdec0	equ	0x4ED
 10506                           preinc0	equ	0x4EC
 10507                           plusw0	equ	0x4EB
 10508                           fsr0h	equ	0x4EA
 10509                           fsr0l	equ	0x4E9
 10510                           wreg	equ	0x4E8
 10511                           indf1	equ	0x4E7
 10512                           postinc1	equ	0x4E6
 10513                           postdec1	equ	0x4E5
 10514                           preinc1	equ	0x4E4
 10515                           plusw1	equ	0x4E3
 10516                           fsr1h	equ	0x4E2
 10517                           fsr1l	equ	0x4E1
 10518                           bsr	equ	0x4E0
 10519                           indf2	equ	0x4DF
 10520                           postinc2	equ	0x4DE
 10521                           postdec2	equ	0x4DD
 10522                           preinc2	equ	0x4DC
 10523                           plusw2	equ	0x4DB
 10524                           fsr2h	equ	0x4DA
 10525                           fsr2l	equ	0x4D9
 10526                           status	equ	0x4D8

Data Sizes:
    Strings     0
    Constant    5
    Data        0
    BSS         32
    Persistent  28
    Stack       0

Auto Spaces:
    Space          Size  Autos    Used
    COMRAM           95     39      93
    BANK5           160      0       6
    BANK6           256      0       0
    BANK7           256      0       0
    BANK8           256      0       0
    BANK9           256      0       0
    BANK10          256      0       0
    BANK11          254      0       0
    BANK12          254      0       0
    BANK13          256      0       0
    BANK14          256      0       0
    BANK15          256      0       0
    BANK16          256      0       0
    BANK17          256      0       0
    BANK18          256      0       0
    BANK19          256      0       0
    BANK20          256      0       0
    BANK21          256      0       0
    BANK22          256      0       0
    BANK23          256      0       0
    BANK24          256      0       0
    BANK25          256      0       0
    BANK26          256      0       0
    BANK27          256      0       0
    BANK28          256      0       0
    BANK29          256      0       0
    BANK30          256      0       0
    BANK31          256      0       0
    BANK32          256      0       0
    BANK33          256      0       0
    BANK34          256      0       0
    BANK35          256      0       0
    BANK36          254      0       0

Pointer List with Targets:

    SST26VF064B_GetDeviceInfo@info	PTR struct SST26VF064B_info_s size(2) Largest target is 3
		 -> SST26VF064B_Initialize@deviceInfo(COMRAM[3]), 

    SST26VF064B_SPI_ReadBuffer@buffer	PTR unsigned char  size(2) Largest target is 3
		 -> SST26VF064B_Initialize@deviceInfo(COMRAM[3]), 

    AUDIO_Record@bufferRamPtr	PTR unsigned short  size(2) Largest target is 2
		 -> gpr_bufferRam(ABS[2]), 

    PWM2_16BIT_Period_SetInterruptHandler@InterruptHandler	PTR FTN()void  size(3) Largest target is 1
		 -> PWM2_16BIT_Period_DefaultInterruptHandler(), 

    PWM2_16BIT_Slice1Output2_SetInterruptHandler@InterruptHandler	PTR FTN()void  size(3) Largest target is 1
		 -> PWM2_16BIT_Slice1Output2_DefaultInterruptHandler(), 

    PWM2_16BIT_Slice1Output1_SetInterruptHandler@InterruptHandler	PTR FTN()void  size(3) Largest target is 1
		 -> PWM2_16BIT_Slice1Output1_DefaultInterruptHandler(), 

    PWM2_16BIT_Period_InterruptHandler	PTR FTN()void  size(3) Largest target is 1
		 -> PWM2_16BIT_Period_DefaultInterruptHandler(), Absolute function(), 

    PWM2_16BIT_Slice1Output2_InterruptHandler	PTR FTN()void  size(3) Largest target is 1
		 -> PWM2_16BIT_Slice1Output2_DefaultInterruptHandler(), Absolute function(), 

    PWM2_16BIT_Slice1Output1_InterruptHandler	PTR FTN()void  size(3) Largest target is 1
		 -> PWM2_16BIT_Slice1Output1_DefaultInterruptHandler(), Absolute function(), 

    TMR6_SetInterruptHandler@InterruptHandler	PTR FTN()void  size(3) Largest target is 1
		 -> BlinkTimer_ISR(), TMR6_DefaultInterruptHandler(), 

    TMR6_InterruptHandler	PTR FTN()void  size(3) Largest target is 1
		 -> BlinkTimer_ISR(), TMR6_DefaultInterruptHandler(), Absolute function(), 

    TMR0_SetInterruptHandler@InterruptHandler	PTR FTN()void  size(3) Largest target is 1
		 -> TimerTick_ISR(), TMR0_DefaultInterruptHandler(), 

    TMR0_InterruptHandler	PTR FTN()void  size(3) Largest target is 1
		 -> TimerTick_ISR(), Absolute function(), TMR0_DefaultInterruptHandler(), 

    UART1_SetErrorHandler@interruptHandler	PTR FTN()void  size(3) Largest target is 1
		 -> UART1_DefaultErrorHandler(), 

    UART1_SetOverrunErrorHandler@interruptHandler	PTR FTN()void  size(3) Largest target is 1
		 -> UART1_DefaultOverrunErrorHandler(), 

    UART1_SetFramingErrorHandler@interruptHandler	PTR FTN()void  size(3) Largest target is 1
		 -> UART1_DefaultFramingErrorHandler(), 

    UART1_ErrorHandler	PTR FTN()void  size(3) Largest target is 1
		 -> Absolute function(), UART1_DefaultErrorHandler(), 

    UART1_OverrunErrorHandler	PTR FTN()void  size(3) Largest target is 1
		 -> Absolute function(), UART1_DefaultOverrunErrorHandler(), 

    UART1_FramingErrorHandler	PTR FTN()void  size(3) Largest target is 1
		 -> Absolute function(), UART1_DefaultFramingErrorHandler(), 


Critical Paths under _main in COMRAM

    _main->_AUDIO_Record
    _SYSTEM_Initialize->_TMR0_Initialize
    _UART1_Initialize->_UART1_SetErrorHandler
    _UART1_Initialize->_UART1_SetFramingErrorHandler
    _UART1_Initialize->_UART1_SetOverrunErrorHandler
    _TMR6_Initialize->_TMR6_SetInterruptHandler
    _TMR0_Initialize->_TMR0_SetInterruptHandler
    _PWM2_16BIT_Initialize->_PWM2_16BIT_Period_SetInterruptHandler
    _PWM2_16BIT_Initialize->_PWM2_16BIT_Slice1Output1_SetInterruptHandler
    _PWM2_16BIT_Initialize->_PWM2_16BIT_Slice1Output2_SetInterruptHandler
    _SST26VF064B_PageProgram_Cmd->_SST26VF064B_Command
    _AUDIO_Erase->_FLASH_ErasePages
    _SST26VF064B_ChipErase->_SST26VF064B_Busy
    _FLASH_ErasePages->_FLASH_EraseBlock
    _AUDIO_UpdateMetaData->_DATAEE_WriteByte
    _AUDIO_Playback->_SST26VF064B_WriteAddress
    _SST26VF064B_WriteAddress->_SPI1_ExchangeByte
    _SST26VF064B_Read_Cmd->_SST26VF064B_Command
    _AUDIO_Passthrough->_ResetDMA
    _AUDIO_Passthrough->_UART1_Write
    _AUDIO_Idle->_TMR1_StopAndStartTimer
    _TMR1_StopAndStartTimer->_TMR1_WriteTimer
    _APP_Initialize->_SST26VF064B_Initialize
    _SST26VF064B_Initialize->_SST26VF064B_GetDeviceInfo
    _SST26VF064B_GetDeviceInfo->_SST26VF064B_SPI_ReadBuffer
    _SST26VF064B_SPI_ReadBuffer->_SPI1_ExchangeByte
    _SST26VF064B_JEDECID_Cmd->_SST26VF064B_Command
    _SST26VF064B_GlobalBlockUnlock->_SST26VF064B_Busy
    _SST26VF064B_WriteEnable->_SST26VF064B_Command
    _SST26VF064B_Busy->_SST26VF064B_Command
    _SST26VF064B_Busy->_SST26VF064B_SPI_ReadByte
    _SST26VF064B_SPI_ReadByte->_SPI1_ExchangeByte
    _SST26VF064B_Command->_SPI1_ExchangeByte
    _AUDIO_ReadMetaData->_DATAEE_ReadByte

Critical Paths under _TMR0_ISR in COMRAM

    None.

Critical Paths under _TMR6_ISR in COMRAM

    _TMR6_CallBack->_BlinkTimer_ISR

Critical Paths under _CLC1_ISR in COMRAM

    None.

Critical Paths under _Default_ISR in COMRAM

    None.

Critical Paths under _MEMORY_ISR in COMRAM

    None.

Critical Paths under _PWM2_16BIT_PWMI_ISR in COMRAM

    None.

Critical Paths under _PWM2_16BIT_PWMPI_ISR in COMRAM

    None.

Critical Paths under _CLC2_ISR in COMRAM

    None.

Critical Paths under _main in BANK5

    None.

Critical Paths under _TMR0_ISR in BANK5

    None.

Critical Paths under _TMR6_ISR in BANK5

    None.

Critical Paths under _CLC1_ISR in BANK5

    None.

Critical Paths under _Default_ISR in BANK5

    None.

Critical Paths under _MEMORY_ISR in BANK5

    None.

Critical Paths under _PWM2_16BIT_PWMI_ISR in BANK5

    None.

Critical Paths under _PWM2_16BIT_PWMPI_ISR in BANK5

    None.

Critical Paths under _CLC2_ISR in BANK5

    None.

Critical Paths under _main in BANK6

    None.

Critical Paths under _TMR0_ISR in BANK6

    None.

Critical Paths under _TMR6_ISR in BANK6

    None.

Critical Paths under _CLC1_ISR in BANK6

    None.

Critical Paths under _Default_ISR in BANK6

    None.

Critical Paths under _MEMORY_ISR in BANK6

    None.

Critical Paths under _PWM2_16BIT_PWMI_ISR in BANK6

    None.

Critical Paths under _PWM2_16BIT_PWMPI_ISR in BANK6

    None.

Critical Paths under _CLC2_ISR in BANK6

    None.

Critical Paths under _main in BANK7

    None.

Critical Paths under _TMR0_ISR in BANK7

    None.

Critical Paths under _TMR6_ISR in BANK7

    None.

Critical Paths under _CLC1_ISR in BANK7

    None.

Critical Paths under _Default_ISR in BANK7

    None.

Critical Paths under _MEMORY_ISR in BANK7

    None.

Critical Paths under _PWM2_16BIT_PWMI_ISR in BANK7

    None.

Critical Paths under _PWM2_16BIT_PWMPI_ISR in BANK7

    None.

Critical Paths under _CLC2_ISR in BANK7

    None.

Critical Paths under _main in BANK8

    None.

Critical Paths under _TMR0_ISR in BANK8

    None.

Critical Paths under _TMR6_ISR in BANK8

    None.

Critical Paths under _CLC1_ISR in BANK8

    None.

Critical Paths under _Default_ISR in BANK8

    None.

Critical Paths under _MEMORY_ISR in BANK8

    None.

Critical Paths under _PWM2_16BIT_PWMI_ISR in BANK8

    None.

Critical Paths under _PWM2_16BIT_PWMPI_ISR in BANK8

    None.

Critical Paths under _CLC2_ISR in BANK8

    None.

Critical Paths under _main in BANK9

    None.

Critical Paths under _TMR0_ISR in BANK9

    None.

Critical Paths under _TMR6_ISR in BANK9

    None.

Critical Paths under _CLC1_ISR in BANK9

    None.

Critical Paths under _Default_ISR in BANK9

    None.

Critical Paths under _MEMORY_ISR in BANK9

    None.

Critical Paths under _PWM2_16BIT_PWMI_ISR in BANK9

    None.

Critical Paths under _PWM2_16BIT_PWMPI_ISR in BANK9

    None.

Critical Paths under _CLC2_ISR in BANK9

    None.

Critical Paths under _main in BANK10

    None.

Critical Paths under _TMR0_ISR in BANK10

    None.

Critical Paths under _TMR6_ISR in BANK10

    None.

Critical Paths under _CLC1_ISR in BANK10

    None.

Critical Paths under _Default_ISR in BANK10

    None.

Critical Paths under _MEMORY_ISR in BANK10

    None.

Critical Paths under _PWM2_16BIT_PWMI_ISR in BANK10

    None.

Critical Paths under _PWM2_16BIT_PWMPI_ISR in BANK10

    None.

Critical Paths under _CLC2_ISR in BANK10

    None.

Critical Paths under _main in BANK11

    None.

Critical Paths under _TMR0_ISR in BANK11

    None.

Critical Paths under _TMR6_ISR in BANK11

    None.

Critical Paths under _CLC1_ISR in BANK11

    None.

Critical Paths under _Default_ISR in BANK11

    None.

Critical Paths under _MEMORY_ISR in BANK11

    None.

Critical Paths under _PWM2_16BIT_PWMI_ISR in BANK11

    None.

Critical Paths under _PWM2_16BIT_PWMPI_ISR in BANK11

    None.

Critical Paths under _CLC2_ISR in BANK11

    None.

Critical Paths under _main in BANK12

    None.

Critical Paths under _TMR0_ISR in BANK12

    None.

Critical Paths under _TMR6_ISR in BANK12

    None.

Critical Paths under _CLC1_ISR in BANK12

    None.

Critical Paths under _Default_ISR in BANK12

    None.

Critical Paths under _MEMORY_ISR in BANK12

    None.

Critical Paths under _PWM2_16BIT_PWMI_ISR in BANK12

    None.

Critical Paths under _PWM2_16BIT_PWMPI_ISR in BANK12

    None.

Critical Paths under _CLC2_ISR in BANK12

    None.

Critical Paths under _main in BANK13

    None.

Critical Paths under _TMR0_ISR in BANK13

    None.

Critical Paths under _TMR6_ISR in BANK13

    None.

Critical Paths under _CLC1_ISR in BANK13

    None.

Critical Paths under _Default_ISR in BANK13

    None.

Critical Paths under _MEMORY_ISR in BANK13

    None.

Critical Paths under _PWM2_16BIT_PWMI_ISR in BANK13

    None.

Critical Paths under _PWM2_16BIT_PWMPI_ISR in BANK13

    None.

Critical Paths under _CLC2_ISR in BANK13

    None.

Critical Paths under _main in BANK14

    None.

Critical Paths under _TMR0_ISR in BANK14

    None.

Critical Paths under _TMR6_ISR in BANK14

    None.

Critical Paths under _CLC1_ISR in BANK14

    None.

Critical Paths under _Default_ISR in BANK14

    None.

Critical Paths under _MEMORY_ISR in BANK14

    None.

Critical Paths under _PWM2_16BIT_PWMI_ISR in BANK14

    None.

Critical Paths under _PWM2_16BIT_PWMPI_ISR in BANK14

    None.

Critical Paths under _CLC2_ISR in BANK14

    None.

Critical Paths under _main in BANK15

    None.

Critical Paths under _TMR0_ISR in BANK15

    None.

Critical Paths under _TMR6_ISR in BANK15

    None.

Critical Paths under _CLC1_ISR in BANK15

    None.

Critical Paths under _Default_ISR in BANK15

    None.

Critical Paths under _MEMORY_ISR in BANK15

    None.

Critical Paths under _PWM2_16BIT_PWMI_ISR in BANK15

    None.

Critical Paths under _PWM2_16BIT_PWMPI_ISR in BANK15

    None.

Critical Paths under _CLC2_ISR in BANK15

    None.

Critical Paths under _main in BANK16

    None.

Critical Paths under _TMR0_ISR in BANK16

    None.

Critical Paths under _TMR6_ISR in BANK16

    None.

Critical Paths under _CLC1_ISR in BANK16

    None.

Critical Paths under _Default_ISR in BANK16

    None.

Critical Paths under _MEMORY_ISR in BANK16

    None.

Critical Paths under _PWM2_16BIT_PWMI_ISR in BANK16

    None.

Critical Paths under _PWM2_16BIT_PWMPI_ISR in BANK16

    None.

Critical Paths under _CLC2_ISR in BANK16

    None.

Critical Paths under _main in BANK17

    None.

Critical Paths under _TMR0_ISR in BANK17

    None.

Critical Paths under _TMR6_ISR in BANK17

    None.

Critical Paths under _CLC1_ISR in BANK17

    None.

Critical Paths under _Default_ISR in BANK17

    None.

Critical Paths under _MEMORY_ISR in BANK17

    None.

Critical Paths under _PWM2_16BIT_PWMI_ISR in BANK17

    None.

Critical Paths under _PWM2_16BIT_PWMPI_ISR in BANK17

    None.

Critical Paths under _CLC2_ISR in BANK17

    None.

Critical Paths under _main in BANK18

    None.

Critical Paths under _TMR0_ISR in BANK18

    None.

Critical Paths under _TMR6_ISR in BANK18

    None.

Critical Paths under _CLC1_ISR in BANK18

    None.

Critical Paths under _Default_ISR in BANK18

    None.

Critical Paths under _MEMORY_ISR in BANK18

    None.

Critical Paths under _PWM2_16BIT_PWMI_ISR in BANK18

    None.

Critical Paths under _PWM2_16BIT_PWMPI_ISR in BANK18

    None.

Critical Paths under _CLC2_ISR in BANK18

    None.

Critical Paths under _main in BANK19

    None.

Critical Paths under _TMR0_ISR in BANK19

    None.

Critical Paths under _TMR6_ISR in BANK19

    None.

Critical Paths under _CLC1_ISR in BANK19

    None.

Critical Paths under _Default_ISR in BANK19

    None.

Critical Paths under _MEMORY_ISR in BANK19

    None.

Critical Paths under _PWM2_16BIT_PWMI_ISR in BANK19

    None.

Critical Paths under _PWM2_16BIT_PWMPI_ISR in BANK19

    None.

Critical Paths under _CLC2_ISR in BANK19

    None.

Critical Paths under _main in BANK20

    None.

Critical Paths under _TMR0_ISR in BANK20

    None.

Critical Paths under _TMR6_ISR in BANK20

    None.

Critical Paths under _CLC1_ISR in BANK20

    None.

Critical Paths under _Default_ISR in BANK20

    None.

Critical Paths under _MEMORY_ISR in BANK20

    None.

Critical Paths under _PWM2_16BIT_PWMI_ISR in BANK20

    None.

Critical Paths under _PWM2_16BIT_PWMPI_ISR in BANK20

    None.

Critical Paths under _CLC2_ISR in BANK20

    None.

Critical Paths under _main in BANK21

    None.

Critical Paths under _TMR0_ISR in BANK21

    None.

Critical Paths under _TMR6_ISR in BANK21

    None.

Critical Paths under _CLC1_ISR in BANK21

    None.

Critical Paths under _Default_ISR in BANK21

    None.

Critical Paths under _MEMORY_ISR in BANK21

    None.

Critical Paths under _PWM2_16BIT_PWMI_ISR in BANK21

    None.

Critical Paths under _PWM2_16BIT_PWMPI_ISR in BANK21

    None.

Critical Paths under _CLC2_ISR in BANK21

    None.

Critical Paths under _main in BANK22

    None.

Critical Paths under _TMR0_ISR in BANK22

    None.

Critical Paths under _TMR6_ISR in BANK22

    None.

Critical Paths under _CLC1_ISR in BANK22

    None.

Critical Paths under _Default_ISR in BANK22

    None.

Critical Paths under _MEMORY_ISR in BANK22

    None.

Critical Paths under _PWM2_16BIT_PWMI_ISR in BANK22

    None.

Critical Paths under _PWM2_16BIT_PWMPI_ISR in BANK22

    None.

Critical Paths under _CLC2_ISR in BANK22

    None.

Critical Paths under _main in BANK23

    None.

Critical Paths under _TMR0_ISR in BANK23

    None.

Critical Paths under _TMR6_ISR in BANK23

    None.

Critical Paths under _CLC1_ISR in BANK23

    None.

Critical Paths under _Default_ISR in BANK23

    None.

Critical Paths under _MEMORY_ISR in BANK23

    None.

Critical Paths under _PWM2_16BIT_PWMI_ISR in BANK23

    None.

Critical Paths under _PWM2_16BIT_PWMPI_ISR in BANK23

    None.

Critical Paths under _CLC2_ISR in BANK23

    None.

Critical Paths under _main in BANK24

    None.

Critical Paths under _TMR0_ISR in BANK24

    None.

Critical Paths under _TMR6_ISR in BANK24

    None.

Critical Paths under _CLC1_ISR in BANK24

    None.

Critical Paths under _Default_ISR in BANK24

    None.

Critical Paths under _MEMORY_ISR in BANK24

    None.

Critical Paths under _PWM2_16BIT_PWMI_ISR in BANK24

    None.

Critical Paths under _PWM2_16BIT_PWMPI_ISR in BANK24

    None.

Critical Paths under _CLC2_ISR in BANK24

    None.

Critical Paths under _main in BANK25

    None.

Critical Paths under _TMR0_ISR in BANK25

    None.

Critical Paths under _TMR6_ISR in BANK25

    None.

Critical Paths under _CLC1_ISR in BANK25

    None.

Critical Paths under _Default_ISR in BANK25

    None.

Critical Paths under _MEMORY_ISR in BANK25

    None.

Critical Paths under _PWM2_16BIT_PWMI_ISR in BANK25

    None.

Critical Paths under _PWM2_16BIT_PWMPI_ISR in BANK25

    None.

Critical Paths under _CLC2_ISR in BANK25

    None.

Critical Paths under _main in BANK26

    None.

Critical Paths under _TMR0_ISR in BANK26

    None.

Critical Paths under _TMR6_ISR in BANK26

    None.

Critical Paths under _CLC1_ISR in BANK26

    None.

Critical Paths under _Default_ISR in BANK26

    None.

Critical Paths under _MEMORY_ISR in BANK26

    None.

Critical Paths under _PWM2_16BIT_PWMI_ISR in BANK26

    None.

Critical Paths under _PWM2_16BIT_PWMPI_ISR in BANK26

    None.

Critical Paths under _CLC2_ISR in BANK26

    None.

Critical Paths under _main in BANK27

    None.

Critical Paths under _TMR0_ISR in BANK27

    None.

Critical Paths under _TMR6_ISR in BANK27

    None.

Critical Paths under _CLC1_ISR in BANK27

    None.

Critical Paths under _Default_ISR in BANK27

    None.

Critical Paths under _MEMORY_ISR in BANK27

    None.

Critical Paths under _PWM2_16BIT_PWMI_ISR in BANK27

    None.

Critical Paths under _PWM2_16BIT_PWMPI_ISR in BANK27

    None.

Critical Paths under _CLC2_ISR in BANK27

    None.

Critical Paths under _main in BANK28

    None.

Critical Paths under _TMR0_ISR in BANK28

    None.

Critical Paths under _TMR6_ISR in BANK28

    None.

Critical Paths under _CLC1_ISR in BANK28

    None.

Critical Paths under _Default_ISR in BANK28

    None.

Critical Paths under _MEMORY_ISR in BANK28

    None.

Critical Paths under _PWM2_16BIT_PWMI_ISR in BANK28

    None.

Critical Paths under _PWM2_16BIT_PWMPI_ISR in BANK28

    None.

Critical Paths under _CLC2_ISR in BANK28

    None.

Critical Paths under _main in BANK29

    None.

Critical Paths under _TMR0_ISR in BANK29

    None.

Critical Paths under _TMR6_ISR in BANK29

    None.

Critical Paths under _CLC1_ISR in BANK29

    None.

Critical Paths under _Default_ISR in BANK29

    None.

Critical Paths under _MEMORY_ISR in BANK29

    None.

Critical Paths under _PWM2_16BIT_PWMI_ISR in BANK29

    None.

Critical Paths under _PWM2_16BIT_PWMPI_ISR in BANK29

    None.

Critical Paths under _CLC2_ISR in BANK29

    None.

Critical Paths under _main in BANK30

    None.

Critical Paths under _TMR0_ISR in BANK30

    None.

Critical Paths under _TMR6_ISR in BANK30

    None.

Critical Paths under _CLC1_ISR in BANK30

    None.

Critical Paths under _Default_ISR in BANK30

    None.

Critical Paths under _MEMORY_ISR in BANK30

    None.

Critical Paths under _PWM2_16BIT_PWMI_ISR in BANK30

    None.

Critical Paths under _PWM2_16BIT_PWMPI_ISR in BANK30

    None.

Critical Paths under _CLC2_ISR in BANK30

    None.

Critical Paths under _main in BANK31

    None.

Critical Paths under _TMR0_ISR in BANK31

    None.

Critical Paths under _TMR6_ISR in BANK31

    None.

Critical Paths under _CLC1_ISR in BANK31

    None.

Critical Paths under _Default_ISR in BANK31

    None.

Critical Paths under _MEMORY_ISR in BANK31

    None.

Critical Paths under _PWM2_16BIT_PWMI_ISR in BANK31

    None.

Critical Paths under _PWM2_16BIT_PWMPI_ISR in BANK31

    None.

Critical Paths under _CLC2_ISR in BANK31

    None.

Critical Paths under _main in BANK32

    None.

Critical Paths under _TMR0_ISR in BANK32

    None.

Critical Paths under _TMR6_ISR in BANK32

    None.

Critical Paths under _CLC1_ISR in BANK32

    None.

Critical Paths under _Default_ISR in BANK32

    None.

Critical Paths under _MEMORY_ISR in BANK32

    None.

Critical Paths under _PWM2_16BIT_PWMI_ISR in BANK32

    None.

Critical Paths under _PWM2_16BIT_PWMPI_ISR in BANK32

    None.

Critical Paths under _CLC2_ISR in BANK32

    None.

Critical Paths under _main in BANK33

    None.

Critical Paths under _TMR0_ISR in BANK33

    None.

Critical Paths under _TMR6_ISR in BANK33

    None.

Critical Paths under _CLC1_ISR in BANK33

    None.

Critical Paths under _Default_ISR in BANK33

    None.

Critical Paths under _MEMORY_ISR in BANK33

    None.

Critical Paths under _PWM2_16BIT_PWMI_ISR in BANK33

    None.

Critical Paths under _PWM2_16BIT_PWMPI_ISR in BANK33

    None.

Critical Paths under _CLC2_ISR in BANK33

    None.

Critical Paths under _main in BANK34

    None.

Critical Paths under _TMR0_ISR in BANK34

    None.

Critical Paths under _TMR6_ISR in BANK34

    None.

Critical Paths under _CLC1_ISR in BANK34

    None.

Critical Paths under _Default_ISR in BANK34

    None.

Critical Paths under _MEMORY_ISR in BANK34

    None.

Critical Paths under _PWM2_16BIT_PWMI_ISR in BANK34

    None.

Critical Paths under _PWM2_16BIT_PWMPI_ISR in BANK34

    None.

Critical Paths under _CLC2_ISR in BANK34

    None.

Critical Paths under _main in BANK35

    None.

Critical Paths under _TMR0_ISR in BANK35

    None.

Critical Paths under _TMR6_ISR in BANK35

    None.

Critical Paths under _CLC1_ISR in BANK35

    None.

Critical Paths under _Default_ISR in BANK35

    None.

Critical Paths under _MEMORY_ISR in BANK35

    None.

Critical Paths under _PWM2_16BIT_PWMI_ISR in BANK35

    None.

Critical Paths under _PWM2_16BIT_PWMPI_ISR in BANK35

    None.

Critical Paths under _CLC2_ISR in BANK35

    None.

Critical Paths under _main in BANK36

    None.

Critical Paths under _TMR0_ISR in BANK36

    None.

Critical Paths under _TMR6_ISR in BANK36

    None.

Critical Paths under _CLC1_ISR in BANK36

    None.

Critical Paths under _Default_ISR in BANK36

    None.

Critical Paths under _MEMORY_ISR in BANK36

    None.

Critical Paths under _PWM2_16BIT_PWMI_ISR in BANK36

    None.

Critical Paths under _PWM2_16BIT_PWMPI_ISR in BANK36

    None.

Critical Paths under _CLC2_ISR in BANK36

    None.

Call Graph Tables:

 ---------------------------------------------------------------------------------
 (Depth) Function   	        Calls       Base Space   Used Autos Params    Refs
 ---------------------------------------------------------------------------------
 (0) _main                                                 0     0      0   12718
                     _APP_Initialize
                        _AUDIO_Erase
                         _AUDIO_Idle
                  _AUDIO_Passthrough
                     _AUDIO_Playback
                       _AUDIO_Record
                  _SYSTEM_Initialize
 ---------------------------------------------------------------------------------
 (1) _SYSTEM_Initialize                                    0     0      0     951
                    _ADCC_Initialize
                    _CLC1_Initialize
                    _CLC2_Initialize
                    _CMP1_Initialize
                    _DAC1_Initialize
                    _DMA1_Initialize
                    _DMA2_Initialize
                    _DMA3_Initialize
                    _DMA4_Initialize
                    _DMA5_Initialize
                    _DMA6_Initialize
               _INTERRUPT_Initialize
              _OSCILLATOR_Initialize
             _PIN_MANAGER_Initialize
                     _PMD_Initialize
              _PWM2_16BIT_Initialize
                    _SPI1_Initialize
           _SystemArbiter_Initialize
                    _TMR0_Initialize
                    _TMR1_Initialize
                    _TMR2_Initialize
                    _TMR4_Initialize
                    _TMR6_Initialize
                   _UART1_Initialize
 ---------------------------------------------------------------------------------
 (2) _UART1_Initialize                                     0     0      0     294
              _UART1_SetErrorHandler
       _UART1_SetFramingErrorHandler
       _UART1_SetOverrunErrorHandler
 ---------------------------------------------------------------------------------
 (3) _UART1_SetOverrunErrorHandler                         3     0      3      98
                                              1 COMRAM     3     0      3
 ---------------------------------------------------------------------------------
 (3) _UART1_SetFramingErrorHandler                         3     0      3      98
                                              1 COMRAM     3     0      3
 ---------------------------------------------------------------------------------
 (3) _UART1_SetErrorHandler                                3     0      3      98
                                              1 COMRAM     3     0      3
 ---------------------------------------------------------------------------------
 (2) _TMR6_Initialize                                      0     0      0     174
           _TMR6_SetInterruptHandler
 ---------------------------------------------------------------------------------
 (2) _TMR4_Initialize                                      0     0      0       0
 ---------------------------------------------------------------------------------
 (2) _TMR2_Initialize                                      0     0      0       0
 ---------------------------------------------------------------------------------
 (2) _TMR1_Initialize                                      2     2      0       0
                                              1 COMRAM     2     2      0
 ---------------------------------------------------------------------------------
 (2) _TMR0_Initialize                                      2     2      0     174
                                              4 COMRAM     2     2      0
           _TMR0_SetInterruptHandler
 ---------------------------------------------------------------------------------
 (2) _SystemArbiter_Initialize                             0     0      0       0
 ---------------------------------------------------------------------------------
 (2) _SPI1_Initialize                                      0     0      0       0
 ---------------------------------------------------------------------------------
 (2) _PWM2_16BIT_Initialize                                0     0      0     294
_PWM2_16BIT_Period_SetInterruptHandl
_PWM2_16BIT_Slice1Output1_SetInterru
_PWM2_16BIT_Slice1Output2_SetInterru
 ---------------------------------------------------------------------------------
 (3) _PWM2_16BIT_Slice1Output2_SetInterruptHandler         3     0      3      98
                                              1 COMRAM     3     0      3
 ---------------------------------------------------------------------------------
 (3) _PWM2_16BIT_Slice1Output1_SetInterruptHandler         3     0      3      98
                                              1 COMRAM     3     0      3
 ---------------------------------------------------------------------------------
 (3) _PWM2_16BIT_Period_SetInterruptHandler                3     0      3      98
                                              1 COMRAM     3     0      3
 ---------------------------------------------------------------------------------
 (2) _PMD_Initialize                                       0     0      0       0
 ---------------------------------------------------------------------------------
 (2) _PIN_MANAGER_Initialize                               0     0      0       0
 ---------------------------------------------------------------------------------
 (2) _OSCILLATOR_Initialize                                0     0      0       0
 ---------------------------------------------------------------------------------
 (2) _INTERRUPT_Initialize                                 1     1      0      15
                                              1 COMRAM     1     1      0
 ---------------------------------------------------------------------------------
 (2) _DMA6_Initialize                                      0     0      0       0
 ---------------------------------------------------------------------------------
 (2) _DMA5_Initialize                                      0     0      0       0
 ---------------------------------------------------------------------------------
 (2) _DMA4_Initialize                                      0     0      0       0
 ---------------------------------------------------------------------------------
 (2) _DMA3_Initialize                                      0     0      0       0
 ---------------------------------------------------------------------------------
 (2) _DMA2_Initialize                                      0     0      0       0
 ---------------------------------------------------------------------------------
 (2) _DMA1_Initialize                                      0     0      0       0
 ---------------------------------------------------------------------------------
 (2) _DAC1_Initialize                                      0     0      0       0
 ---------------------------------------------------------------------------------
 (2) _CMP1_Initialize                                      0     0      0       0
 ---------------------------------------------------------------------------------
 (2) _CLC2_Initialize                                      0     0      0       0
 ---------------------------------------------------------------------------------
 (2) _CLC1_Initialize                                      0     0      0       0
 ---------------------------------------------------------------------------------
 (2) _ADCC_Initialize                                      0     0      0       0
 ---------------------------------------------------------------------------------
 (1) _AUDIO_Record                                        21    21      0    5813
                                             18 COMRAM    21    21      0
                        _AUDIO_Erase
               _AUDIO_UpdateMetaData
      _DMA2_StartTransferWithTrigger
                  _DMA2_StopTransfer
             _FLASH_WriteWord_ByWord
                 _PingPong2BufferRam
                       _PingPong2SPI
                           _ResetDMA
                      _ResetSwitches
                   _SST26VF064B_Busy
                _SST26VF064B_CS_High
                 _SST26VF064B_CS_Low
        _SST26VF064B_PageProgram_Cmd
           _SST26VF064B_WriteAddress
            _SST26VF064B_WriteEnable
                        _TMR0_Reload
                    _TMR0_StartTimer
                     _TMR0_StopTimer
                        _UART1_Write
                        _WaitForTick
 ---------------------------------------------------------------------------------
 (2) _WaitForTick                                          0     0      0       0
 ---------------------------------------------------------------------------------
 (2) _SST26VF064B_PageProgram_Cmd                          0     0      0      30
                _SST26VF064B_Command
 ---------------------------------------------------------------------------------
 (2) _PingPong2SPI                                         0     0      0       0
 ---------------------------------------------------------------------------------
 (2) _PingPong2BufferRam                                   0     0      0       0
 ---------------------------------------------------------------------------------
 (2) _FLASH_WriteWord_ByWord                               5     1      4     241
                                              1 COMRAM     5     1      4
 ---------------------------------------------------------------------------------
 (2) _DMA2_StopTransfer                                    0     0      0       0
 ---------------------------------------------------------------------------------
 (2) _DMA2_StartTransferWithTrigger                        0     0      0       0
 ---------------------------------------------------------------------------------
 (2) _AUDIO_Erase                                          0     0      0    2700
               _AUDIO_UpdateMetaData
                   _FLASH_ErasePages
                   _LED0_Blink_Start
                    _LED0_Blink_Stop
                      _ResetSwitches
                   _SST26VF064B_Busy
              _SST26VF064B_ChipErase
                        _UART1_Write
 ---------------------------------------------------------------------------------
 (3) _SST26VF064B_ChipErase                                0     0      0     135
                   _SST26VF064B_Busy
                _SST26VF064B_CS_High
                 _SST26VF064B_CS_Low
                _SST26VF064B_Command
            _SST26VF064B_WriteEnable
 ---------------------------------------------------------------------------------
 (3) _FLASH_ErasePages                                     8     2      6     562
                                             10 COMRAM     8     2      6
                   _FLASH_EraseBlock
 ---------------------------------------------------------------------------------
 (4) _FLASH_EraseBlock                                     9     5      4     318
                                              1 COMRAM     9     5      4
 ---------------------------------------------------------------------------------
 (2) _AUDIO_UpdateMetaData                                 0     0      0    1913
                   _DATAEE_WriteByte
 ---------------------------------------------------------------------------------
 (3) _DATAEE_WriteByte                                     4     1      3    1913
                                              1 COMRAM     4     1      3
 ---------------------------------------------------------------------------------
 (1) _AUDIO_Playback                                      10    10      0     788
                                              9 COMRAM    10    10      0
                           _ResetDMA
                      _ResetSwitches
                   _SST26VF064B_Busy
                _SST26VF064B_CS_High
                 _SST26VF064B_CS_Low
               _SST26VF064B_Read_Cmd
           _SST26VF064B_WriteAddress
                        _TMR0_Reload
                    _TMR0_StartTimer
                     _TMR0_StopTimer
                        _UART1_Write
 ---------------------------------------------------------------------------------
 (2) _SST26VF064B_WriteAddress                             7     3      4     454
                                              2 COMRAM     7     3      4
                  _SPI1_ExchangeByte
 ---------------------------------------------------------------------------------
 (2) _SST26VF064B_Read_Cmd                                 0     0      0      30
                _SST26VF064B_Command
 ---------------------------------------------------------------------------------
 (1) _AUDIO_Passthrough                                    0     0      0      45
      _DMA1_StartTransferWithTrigger
                  _DMA1_StopTransfer
                           _ResetDMA
                      _ResetSwitches
                        _TMR0_Reload
                    _TMR0_StartTimer
                     _TMR0_StopTimer
                        _UART1_Write
 ---------------------------------------------------------------------------------
 (2) _UART1_Write                                          1     1      0      15
                                              1 COMRAM     1     1      0
 ---------------------------------------------------------------------------------
 (2) _TMR0_StartTimer                                      0     0      0       0
 ---------------------------------------------------------------------------------
 (2) _ResetDMA                                             1     1      0      30
                                              1 COMRAM     1     1      0
 ---------------------------------------------------------------------------------
 (2) _DMA1_StopTransfer                                    0     0      0       0
 ---------------------------------------------------------------------------------
 (2) _DMA1_StartTransferWithTrigger                        0     0      0       0
 ---------------------------------------------------------------------------------
 (1) _AUDIO_Idle                                           0     0      0     490
                   _LED0_Blink_Start
                    _LED0_Blink_Stop
            _TMR1_HasOverflowOccured
             _TMR1_StopAndStartTimer
                     _TMR1_StopTimer
 ---------------------------------------------------------------------------------
 (2) _TMR1_StopAndStartTimer                               2     0      2     490
                                              3 COMRAM     2     0      2
                    _TMR1_StartTimer
                     _TMR1_StopTimer
                    _TMR1_WriteTimer
 ---------------------------------------------------------------------------------
 (3) _TMR1_WriteTimer                                      2     0      2     240
                                              1 COMRAM     2     0      2
 ---------------------------------------------------------------------------------
 (3) _TMR1_StartTimer                                      0     0      0       0
 ---------------------------------------------------------------------------------
 (2) _TMR1_HasOverflowOccured                              0     0      0       0
 ---------------------------------------------------------------------------------
 (3) _LED0_Blink_Stop                                      0     0      0       0
                     _TMR6_StopTimer
 ---------------------------------------------------------------------------------
 (4) _TMR6_StopTimer                                       0     0      0       0
                          _TMR6_Stop
 ---------------------------------------------------------------------------------
 (5) _TMR6_Stop                                            0     0      0       0
 ---------------------------------------------------------------------------------
 (3) _LED0_Blink_Start                                     0     0      0       0
                    _TMR6_StartTimer
 ---------------------------------------------------------------------------------
 (4) _TMR6_StartTimer                                      0     0      0       0
                         _TMR6_Start
 ---------------------------------------------------------------------------------
 (5) _TMR6_Start                                           0     0      0       0
 ---------------------------------------------------------------------------------
 (1) _APP_Initialize                                       0     0      0    1931
                 _AUDIO_ReadMetaData
                        _ResetAllDMA
                      _ResetSwitches
      _SST26VF064B_GlobalBlockUnlock
             _SST26VF064B_Initialize
                        _TMR0_Reload
           _TMR0_SetInterruptHandler
                     _TMR0_StopTimer
                     _TMR1_StopTimer
           _TMR6_SetInterruptHandler
 ---------------------------------------------------------------------------------
 (3) _TMR6_SetInterruptHandler                             3     0      3     174
                                              1 COMRAM     3     0      3
 ---------------------------------------------------------------------------------
 (2) _TMR1_StopTimer                                       0     0      0       0
 ---------------------------------------------------------------------------------
 (2) _TMR0_StopTimer                                       0     0      0       0
 ---------------------------------------------------------------------------------
 (3) _TMR0_SetInterruptHandler                             3     0      3     174
                                              1 COMRAM     3     0      3
 ---------------------------------------------------------------------------------
 (2) _TMR0_Reload                                          0     0      0       0
 ---------------------------------------------------------------------------------
 (2) _SST26VF064B_Initialize                               3     3      0     447
                                              8 COMRAM     3     3      0
                _SST26VF064B_CS_High
          _SST26VF064B_GetDeviceInfo
                   _SST26VF064B_Hold
                _SST26VF064B_WP_High
 ---------------------------------------------------------------------------------
 (3) _SST26VF064B_WP_High                                  0     0      0       0
 ---------------------------------------------------------------------------------
 (3) _SST26VF064B_Hold                                     1     1      0      15
                                              1 COMRAM     1     1      0
 ---------------------------------------------------------------------------------
 (3) _SST26VF064B_GetDeviceInfo                            2     0      2     340
                                              6 COMRAM     2     0      2
                _SST26VF064B_CS_High
                 _SST26VF064B_CS_Low
            _SST26VF064B_JEDECID_Cmd
         _SST26VF064B_SPI_ReadBuffer
 ---------------------------------------------------------------------------------
 (4) _SST26VF064B_SPI_ReadBuffer                           4     0      4     212
                                              2 COMRAM     4     0      4
                  _SPI1_ExchangeByte
 ---------------------------------------------------------------------------------
 (4) _SST26VF064B_JEDECID_Cmd                              0     0      0      30
                _SST26VF064B_Command
 ---------------------------------------------------------------------------------
 (2) _SST26VF064B_GlobalBlockUnlock                        0     0      0     135
                   _SST26VF064B_Busy
                _SST26VF064B_CS_High
                 _SST26VF064B_CS_Low
                _SST26VF064B_Command
            _SST26VF064B_WriteEnable
 ---------------------------------------------------------------------------------
 (2) _SST26VF064B_WriteEnable                              0     0      0      30
                _SST26VF064B_CS_High
                 _SST26VF064B_CS_Low
                _SST26VF064B_Command
 ---------------------------------------------------------------------------------
 (2) _SST26VF064B_Busy                                     1     1      0      75
                                              3 COMRAM     1     1      0
                _SST26VF064B_CS_High
                 _SST26VF064B_CS_Low
                _SST26VF064B_Command
           _SST26VF064B_SPI_ReadByte
 ---------------------------------------------------------------------------------
 (3) _SST26VF064B_SPI_ReadByte                             1     1      0      30
                                              2 COMRAM     1     1      0
                  _SPI1_ExchangeByte
 ---------------------------------------------------------------------------------
 (3) _SST26VF064B_Command                                  1     1      0      30
                                              2 COMRAM     1     1      0
                  _SPI1_ExchangeByte
 ---------------------------------------------------------------------------------
 (4) _SPI1_ExchangeByte                                    1     1      0      15
                                              1 COMRAM     1     1      0
 ---------------------------------------------------------------------------------
 (3) _SST26VF064B_CS_Low                                   0     0      0       0
 ---------------------------------------------------------------------------------
 (3) _SST26VF064B_CS_High                                  0     0      0       0
 ---------------------------------------------------------------------------------
 (2) _ResetSwitches                                        0     0      0       0
 ---------------------------------------------------------------------------------
 (2) _ResetAllDMA                                          1     1      0      45
                                              1 COMRAM     1     1      0
 ---------------------------------------------------------------------------------
 (2) _AUDIO_ReadMetaData                                   5     5      0     956
                                              3 COMRAM     5     5      0
                    _DATAEE_ReadByte
 ---------------------------------------------------------------------------------
 (3) _DATAEE_ReadByte                                      2     0      2     956
                                              1 COMRAM     2     0      2
 ---------------------------------------------------------------------------------
 Estimated maximum stack depth 5
 ---------------------------------------------------------------------------------
 (Depth) Function   	        Calls       Base Space   Used Autos Params    Refs
 ---------------------------------------------------------------------------------
 (7) _TMR0_ISR                                             0     0      0       0
                      _TMR0_CallBack
 ---------------------------------------------------------------------------------
 (8) _TMR0_CallBack                                        0     0      0       0
                   Absolute function *
       _TMR0_DefaultInterruptHandler *
                      _TimerTick_ISR *
 ---------------------------------------------------------------------------------
 (9) _TimerTick_ISR                                        0     0      0       0
 ---------------------------------------------------------------------------------
 (9) _TMR0_DefaultInterruptHandler                         0     0      0       0
 ---------------------------------------------------------------------------------
 (8) Absolute function(Fake)                               0     0      0       0
 ---------------------------------------------------------------------------------
 Estimated maximum stack depth 9
 ---------------------------------------------------------------------------------
 (Depth) Function   	        Calls       Base Space   Used Autos Params    Refs
 ---------------------------------------------------------------------------------
 (7) _TMR6_ISR                                             0     0      0       0
                      _TMR6_CallBack
 ---------------------------------------------------------------------------------
 (8) _TMR6_CallBack                                        0     0      0       0
                   Absolute function *
                     _BlinkTimer_ISR *
       _TMR6_DefaultInterruptHandler *
 ---------------------------------------------------------------------------------
 (9) _TMR6_DefaultInterruptHandler                         0     0      0       0
 ---------------------------------------------------------------------------------
 (9) _BlinkTimer_ISR                                       1     1      0       0
                                              0 COMRAM     1     1      0
 ---------------------------------------------------------------------------------
 (8) Absolute function(Fake)                               0     0      0       0
 ---------------------------------------------------------------------------------
 Estimated maximum stack depth 9
 ---------------------------------------------------------------------------------
 (Depth) Function   	        Calls       Base Space   Used Autos Params    Refs
 ---------------------------------------------------------------------------------
 (7) _CLC1_ISR                                             0     0      0       0
               _CLC1_OutputStatusGet
 ---------------------------------------------------------------------------------
 (8) _CLC1_OutputStatusGet                                 0     0      0       0
 ---------------------------------------------------------------------------------
 Estimated maximum stack depth 8
 ---------------------------------------------------------------------------------
 (Depth) Function   	        Calls       Base Space   Used Autos Params    Refs
 ---------------------------------------------------------------------------------
 (7) _Default_ISR                                          0     0      0       0
 ---------------------------------------------------------------------------------
 Estimated maximum stack depth 7
 ---------------------------------------------------------------------------------
 (Depth) Function   	        Calls       Base Space   Used Autos Params    Refs
 ---------------------------------------------------------------------------------
 (7) _MEMORY_ISR                                           0     0      0       0
 ---------------------------------------------------------------------------------
 Estimated maximum stack depth 7
 ---------------------------------------------------------------------------------
 (Depth) Function   	        Calls       Base Space   Used Autos Params    Refs
 ---------------------------------------------------------------------------------
 (7) _PWM2_16BIT_PWMI_ISR                                  0     0      0       0
                   Absolute function *
_PWM2_16BIT_Slice1Output1_DefaultInt *
_PWM2_16BIT_Slice1Output2_DefaultInt *
 ---------------------------------------------------------------------------------
 (8) _PWM2_16BIT_Slice1Output2_DefaultInterruptHandler     0     0      0       0
 ---------------------------------------------------------------------------------
 (8) _PWM2_16BIT_Slice1Output1_DefaultInterruptHandler     0     0      0       0
 ---------------------------------------------------------------------------------
 (8) Absolute function(Fake)                               0     0      0       0
 ---------------------------------------------------------------------------------
 Estimated maximum stack depth 8
 ---------------------------------------------------------------------------------
 (Depth) Function   	        Calls       Base Space   Used Autos Params    Refs
 ---------------------------------------------------------------------------------
 (7) _PWM2_16BIT_PWMPI_ISR                                 0     0      0       0
                   Absolute function *
_PWM2_16BIT_Period_DefaultInterruptH *
 ---------------------------------------------------------------------------------
 (8) _PWM2_16BIT_Period_DefaultInterruptHandler            0     0      0       0
 ---------------------------------------------------------------------------------
 (8) Absolute function(Fake)                               0     0      0       0
 ---------------------------------------------------------------------------------
 Estimated maximum stack depth 8
 ---------------------------------------------------------------------------------
 (Depth) Function   	        Calls       Base Space   Used Autos Params    Refs
 ---------------------------------------------------------------------------------
 (7) _CLC2_ISR                                             0     0      0       0
               _CLC2_OutputStatusGet
 ---------------------------------------------------------------------------------
 (8) _CLC2_OutputStatusGet                                 0     0      0       0
 ---------------------------------------------------------------------------------
 Estimated maximum stack depth 8
 ---------------------------------------------------------------------------------

 Call Graph Graphs:

 _main (ROOT)
   _APP_Initialize
     _AUDIO_ReadMetaData
       _DATAEE_ReadByte
     _ResetAllDMA
     _ResetSwitches
     _SST26VF064B_GlobalBlockUnlock
       _SST26VF064B_Busy
         _SST26VF064B_CS_High
         _SST26VF064B_CS_Low
         _SST26VF064B_Command
           _SPI1_ExchangeByte
         _SST26VF064B_SPI_ReadByte
           _SPI1_ExchangeByte
       _SST26VF064B_CS_High
       _SST26VF064B_CS_Low
       _SST26VF064B_Command
         _SPI1_ExchangeByte
       _SST26VF064B_WriteEnable
         _SST26VF064B_CS_High
         _SST26VF064B_CS_Low
         _SST26VF064B_Command
           _SPI1_ExchangeByte
     _SST26VF064B_Initialize
       _SST26VF064B_CS_High
       _SST26VF064B_GetDeviceInfo
         _SST26VF064B_CS_High
         _SST26VF064B_CS_Low
         _SST26VF064B_JEDECID_Cmd
           _SST26VF064B_Command
             _SPI1_ExchangeByte
         _SST26VF064B_SPI_ReadBuffer
           _SPI1_ExchangeByte
       _SST26VF064B_Hold
       _SST26VF064B_WP_High
     _TMR0_Reload
     _TMR0_SetInterruptHandler
     _TMR0_StopTimer
     _TMR1_StopTimer
     _TMR6_SetInterruptHandler
   _AUDIO_Erase
     _AUDIO_UpdateMetaData
       _DATAEE_WriteByte
     _FLASH_ErasePages
       _FLASH_EraseBlock
     _LED0_Blink_Start
       _TMR6_StartTimer
         _TMR6_Start
     _LED0_Blink_Stop
       _TMR6_StopTimer
         _TMR6_Stop
     _ResetSwitches
     _SST26VF064B_Busy
       _SST26VF064B_CS_High
       _SST26VF064B_CS_Low
       _SST26VF064B_Command
         _SPI1_ExchangeByte
       _SST26VF064B_SPI_ReadByte
         _SPI1_ExchangeByte
     _SST26VF064B_ChipErase
       _SST26VF064B_Busy
         _SST26VF064B_CS_High
         _SST26VF064B_CS_Low
         _SST26VF064B_Command
           _SPI1_ExchangeByte
         _SST26VF064B_SPI_ReadByte
           _SPI1_ExchangeByte
       _SST26VF064B_CS_High
       _SST26VF064B_CS_Low
       _SST26VF064B_Command
         _SPI1_ExchangeByte
       _SST26VF064B_WriteEnable
         _SST26VF064B_CS_High
         _SST26VF064B_CS_Low
         _SST26VF064B_Command
           _SPI1_ExchangeByte
     _UART1_Write
   _AUDIO_Idle
     _LED0_Blink_Start
       _TMR6_StartTimer
         _TMR6_Start
     _LED0_Blink_Stop
       _TMR6_StopTimer
         _TMR6_Stop
     _TMR1_HasOverflowOccured
     _TMR1_StopAndStartTimer
       _TMR1_StartTimer
       _TMR1_StopTimer
       _TMR1_WriteTimer
     _TMR1_StopTimer
   _AUDIO_Passthrough
     _DMA1_StartTransferWithTrigger
     _DMA1_StopTransfer
     _ResetDMA
     _ResetSwitches
     _TMR0_Reload
     _TMR0_StartTimer
     _TMR0_StopTimer
     _UART1_Write
   _AUDIO_Playback
     _ResetDMA
     _ResetSwitches
     _SST26VF064B_Busy
       _SST26VF064B_CS_High
       _SST26VF064B_CS_Low
       _SST26VF064B_Command
         _SPI1_ExchangeByte
       _SST26VF064B_SPI_ReadByte
         _SPI1_ExchangeByte
     _SST26VF064B_CS_High
     _SST26VF064B_CS_Low
     _SST26VF064B_Read_Cmd
       _SST26VF064B_Command
         _SPI1_ExchangeByte
     _SST26VF064B_WriteAddress
       _SPI1_ExchangeByte
     _TMR0_Reload
     _TMR0_StartTimer
     _TMR0_StopTimer
     _UART1_Write
   _AUDIO_Record
     _AUDIO_Erase
       _AUDIO_UpdateMetaData
         _DATAEE_WriteByte
       _FLASH_ErasePages
         _FLASH_EraseBlock
       _LED0_Blink_Start
         _TMR6_StartTimer
           _TMR6_Start
       _LED0_Blink_Stop
         _TMR6_StopTimer
           _TMR6_Stop
       _ResetSwitches
       _SST26VF064B_Busy
         _SST26VF064B_CS_High
         _SST26VF064B_CS_Low
         _SST26VF064B_Command
           _SPI1_ExchangeByte
         _SST26VF064B_SPI_ReadByte
           _SPI1_ExchangeByte
       _SST26VF064B_ChipErase
         _SST26VF064B_Busy
           _SST26VF064B_CS_High
           _SST26VF064B_CS_Low
           _SST26VF064B_Command
             _SPI1_ExchangeByte
           _SST26VF064B_SPI_ReadByte
             _SPI1_ExchangeByte
         _SST26VF064B_CS_High
         _SST26VF064B_CS_Low
         _SST26VF064B_Command
           _SPI1_ExchangeByte
         _SST26VF064B_WriteEnable
           _SST26VF064B_CS_High
           _SST26VF064B_CS_Low
           _SST26VF064B_Command
             _SPI1_ExchangeByte
       _UART1_Write
     _AUDIO_UpdateMetaData
       _DATAEE_WriteByte
     _DMA2_StartTransferWithTrigger
     _DMA2_StopTransfer
     _FLASH_WriteWord_ByWord
     _PingPong2BufferRam
     _PingPong2SPI
     _ResetDMA
     _ResetSwitches
     _SST26VF064B_Busy
       _SST26VF064B_CS_High
       _SST26VF064B_CS_Low
       _SST26VF064B_Command
         _SPI1_ExchangeByte
       _SST26VF064B_SPI_ReadByte
         _SPI1_ExchangeByte
     _SST26VF064B_CS_High
     _SST26VF064B_CS_Low
     _SST26VF064B_PageProgram_Cmd
       _SST26VF064B_Command
         _SPI1_ExchangeByte
     _SST26VF064B_WriteAddress
       _SPI1_ExchangeByte
     _SST26VF064B_WriteEnable
       _SST26VF064B_CS_High
       _SST26VF064B_CS_Low
       _SST26VF064B_Command
         _SPI1_ExchangeByte
     _TMR0_Reload
     _TMR0_StartTimer
     _TMR0_StopTimer
     _UART1_Write
     _WaitForTick
   _SYSTEM_Initialize
     _ADCC_Initialize
     _CLC1_Initialize
     _CLC2_Initialize
     _CMP1_Initialize
     _DAC1_Initialize
     _DMA1_Initialize
     _DMA2_Initialize
     _DMA3_Initialize
     _DMA4_Initialize
     _DMA5_Initialize
     _DMA6_Initialize
     _INTERRUPT_Initialize
     _OSCILLATOR_Initialize
     _PIN_MANAGER_Initialize
     _PMD_Initialize
     _PWM2_16BIT_Initialize
       _PWM2_16BIT_Period_SetInterruptHandler
       _PWM2_16BIT_Slice1Output1_SetInterruptHandler
       _PWM2_16BIT_Slice1Output2_SetInterruptHandler
     _SPI1_Initialize
     _SystemArbiter_Initialize
     _TMR0_Initialize
       _TMR0_SetInterruptHandler
     _TMR1_Initialize
     _TMR2_Initialize
     _TMR4_Initialize
     _TMR6_Initialize
       _TMR6_SetInterruptHandler
     _UART1_Initialize
       _UART1_SetErrorHandler
       _UART1_SetFramingErrorHandler
       _UART1_SetOverrunErrorHandler

 _TMR0_ISR (ROOT)
   _TMR0_CallBack
     Absolute function(Fake) *
     _TMR0_DefaultInterruptHandler *
     _TimerTick_ISR *

 _TMR6_ISR (ROOT)
   _TMR6_CallBack
     Absolute function(Fake) *
     _BlinkTimer_ISR *
     _TMR6_DefaultInterruptHandler *

 _CLC1_ISR (ROOT)
   _CLC1_OutputStatusGet

 _Default_ISR (ROOT)

 _MEMORY_ISR (ROOT)

 _PWM2_16BIT_PWMI_ISR (ROOT)
   Absolute function(Fake) *
   _PWM2_16BIT_Slice1Output1_DefaultInterruptHandler *
   _PWM2_16BIT_Slice1Output2_DefaultInterruptHandler *

 _PWM2_16BIT_PWMPI_ISR (ROOT)
   Absolute function(Fake) *
   _PWM2_16BIT_Period_DefaultInterruptHandler *

 _CLC2_ISR (ROOT)
   _CLC2_OutputStatusGet

 Address spaces:
Name               Size   Autos  Total    Cost      Usage
BIGRAMhhl         17FE      0       0      70        0.0%
BIGRAMl            5FF      0       0      72        0.0%
EEDATA             400      0       0       0        0.0%
BITBANK35          100      0       0      65        0.0%
BANK35             100      0       0      66        0.0%
BITBANK34          100      0       0      63        0.0%
BANK34             100      0       0      64        0.0%
BITBANK33          100      0       0      61        0.0%
BANK33             100      0       0      62        0.0%
BITBANK32          100      0       0      59        0.0%
BANK32             100      0       0      60        0.0%
BITBANK31          100      0       0      57        0.0%
BANK31             100      0       0      58        0.0%
BITBANK30          100      0       0      55        0.0%
BANK30             100      0       0      56        0.0%
BITBANK29          100      0       0      53        0.0%
BANK29             100      0       0      54        0.0%
BITBANK28          100      0       0      51        0.0%
BANK28             100      0       0      52        0.0%
BITBANK27          100      0       0      49        0.0%
BANK27             100      0       0      50        0.0%
BITBANK26          100      0       0      47        0.0%
BANK26             100      0       0      48        0.0%
BITBANK25          100      0       0      45        0.0%
BANK25             100      0       0      46        0.0%
BITBANK24          100      0       0      43        0.0%
BANK24             100      0       0      44        0.0%
BITBANK23          100      0       0      41        0.0%
BANK23             100      0       0      42        0.0%
BITBANK22          100      0       0      39        0.0%
BANK22             100      0       0      40        0.0%
BITBANK21          100      0       0      37        0.0%
BANK21             100      0       0      38        0.0%
BITBANK20          100      0       0      35        0.0%
BANK20             100      0       0      36        0.0%
BITBANK19          100      0       0      33        0.0%
BANK19             100      0       0      34        0.0%
BITBANK18          100      0       0      31        0.0%
BANK18             100      0       0      32        0.0%
BITBANK17          100      0       0      29        0.0%
BANK17             100      0       0      30        0.0%
BITBANK16          100      0       0      27        0.0%
BANK16             100      0       0      28        0.0%
BITBANK15          100      0       0      25        0.0%
BANK15             100      0       0      26        0.0%
BITBANK14          100      0       0      23        0.0%
BANK14             100      0       0      24        0.0%
BITBANK13          100      0       0      21        0.0%
BANK13             100      0       0      22        0.0%
BITBANK10          100      0       0      15        0.0%
BANK10             100      0       0      16        0.0%
BITBANK9           100      0       0      13        0.0%
BANK9              100      0       0      14        0.0%
BITBANK8           100      0       0      11        0.0%
BANK8              100      0       0      12        0.0%
BITBANK7           100      0       0       9        0.0%
BANK7              100      0       0      10        0.0%
BITBANK6           100      0       0       6        0.0%
BANK6              100      0       0       7        0.0%
BIGRAMhhh           FE      0       0      69        0.0%
BIGRAMhl            FE      0       0      71        0.0%
BITBANK36           FE      0       0      67        0.0%
BANK36              FE      0       0      68        0.0%
BITBANK12           FE      0       0      19        0.0%
BANK12              FE      0       0      20        0.0%
BITBANK11           FE      0       0      17        0.0%
BANK11              FE      0       0      18        0.0%
BITBANK5            A0      0       0       4        0.0%
BANK5               A0      0       6       5        3.8%
BITCOMRAM           5F      0       0       0        0.0%
COMRAM              5F     27      5D       1       97.9%
BITSFR_5             0      0       0     200        0.0%
SFR_5                0      0       0     200        0.0%
BITSFR_4             0      0       0     200        0.0%
SFR_4                0      0       0     200        0.0%
BITSFR_3             0      0       0     200        0.0%
SFR_3                0      0       0     200        0.0%
BITSFR_2             0      0       0     200        0.0%
SFR_2                0      0       0     200        0.0%
BITSFR_1             0      0       0     200        0.0%
SFR_1                0      0       0     200        0.0%
BITSFR               0      0       0     200        0.0%
SFR                  0      0       0     200        0.0%
STACK                0      0       0       2        0.0%
NULL                 0      0       0       0        0.0%
ABS                  0      0      63       8        0.0%
DATA                 0      0      63       3        0.0%
CODE                 0      0       0       0        0.0%


Microchip Technology PIC18 Macro Assembler V2.20 build 20200326151930 
Symbol Table                                                                                   Mon Apr 27 14:24:36 2020

                                           _SPI1_ExchangeByte 3B32  
                                 __end_of_SST26VF064B_CS_High 3E82  
                                           ??_CMP1_Initialize 0502  
                                                          l91 3304  
                                                          l94 3C08  
                                                          l97 3AA0  
                                                          u10 3B4E  
                                                          u11 3B4A  
                                                          u70 3C84  
                                                          u71 3C80  
                                          ?_SPI1_ExchangeByte 0501  
                                           ??_TMR6_StartTimer 0502  
                                            ??_TMR6_StopTimer 0502  
                                             _DAC1_Initialize 3DC0  
                                                 ?_MEMORY_ISR 0501  
                                                         l100 3D6A  
                                                         l210 3D5C  
                                                         l204 3D4E  
                                                         l207 3D40  
                                                         l163 3238  
                                                         l333 2E00  
                                                         l430 391C  
                                                         l192 3C8A  
                                                         l520 387C  
                                                         l442 3E62  
                                                         l363 37CC  
                                                         l445 3E56  
                                                         l189 3C76  
                                                         l390 3DB0  
                                                         l366 3E44  
                                                         l439 3E68  
                                                         l448 3E50  
                                                         l369 3E74  
                                                         l378 3DBE  
                                                         l563 378A  
                                                         l661 3E4A  
                                                         l478 3DA2  
                                                         l664 3E6E  
                                                         l672 39DE  
                                                         l920 3366  
                                                         l658 38EA  
                                                         l923 3510  
                                                         l763 3482  
                                                         l851 3DCA  
                                                         l595 3BB0  
                                                         l684 3D0C  
                                                         l925 351E  
                                                         l917 3348  
                                                         l926 352E  
                                                         l919 3356  
                                                         l929 3C5A  
                                                         l961 3C72  
                                                         l971 3B40  
                                                         l973 3B4E  
                                                         l974 3B52  
                                                         _GIE 0026B7  
                                                         u200 3AB4  
                                                         u120 39F4  
                                                         u201 3AB0  
                                                         u121 39F0  
                                                         u210 3A7C  
                                                         u130 3C38  
                                                         u211 3A78  
                                                         u131 3C34  
                                                         u150 3D0A  
                                                         u151 3D04  
                                                         u240 3C22  
                                                         u241 3C1E  
                                                         u145 377E  
                                                         u410 3A1C  
                                                         u250 3036  
                                                         u146 3780  
                                                         u411 3A18  
                                                         u251 3032  
                                                         u156 3D0C  
                                                         u260 3058  
                                                         u180 3CB4  
                                                         u261 3054  
                                                         u181 3CB0  
                                                         u270 3086  
                                                         _PR2 000323  
                                                         u271 3082  
                                                         u280 3098  
                                                         _PR4 00032F  
                                                         u281 3094  
                                                         u290 30AA  
                                                         _PR6 00033B  
                                                         u291 30A6  
                                                         u840 339E  
                                                         u841 339A  
                                        ?_PWM2_16BIT_PWMI_ISR 0501  
                            __size_of_SST26VF064B_WriteEnable 0010  
                                             _timer1ReloadVal 055A  
                                 __end_of_SST26VF064B_WP_High 3E7A  
                                     __size_of_PMD_Initialize 0024  
                                         ??_SPI1_ExchangeByte 0502  
                                             _TMR2_Initialize 3BB2  
                                           ??_CLC2_Initialize 0502  
                                                         tosl 0004FD  
                                                         wreg 0004E8  
                              __end_of_FLASH_WriteWord_ByWord 3580  
                                 __end_of_SST26VF064B_Command 3E0E  
                                __end_of_CLC2_OutputStatusGet 3CE6  
                                                        l1044 36FA  
                                                        l2005 2D1A  
                                                        l1126 3616  
                                                        l1206 35CA  
                                                        l2103 33C6  
                                                        l1080 3DD6  
                                                        l2024 25E2  
                                                        l2106 341E  
                                                        l3011 3BE6  
                                                        l2107 3426  
                                                        l2060 2A6E  
                                                        l3013 3BEA  
                                                        l3005 3BD0  
                                                        l3021 3D2E  
                                                        l2061 2A86  
                                                        l1077 3DF8  
                                                        l2037 27D8  
                                                        l2150 3E7C  
                                                        l2070 2AF0  
                                                        l2038 26AC  
                                                        l2118 3144  
                                                        l3007 3BD4  
                                                        l2207 3B92  
                                                        l3111 39F4  
                                                        l2240 3D32  
                                                        l2056 27BE  
                                                        l1504 3CF8  
                                                        l2153 3E7E  
                                                        l3009 3BDA  
                                                        l3017 3D24  
                                                        l3033 3E30  
                                                        l3041 3C76  
                                                        l4001 33AA  
                                                        l2073 2B22  
                                                        l2225 3A06  
                                                        l3113 39F8  
                                                        l3201 35BC  
                                                        l1370 36AE  
                                                        l2155 3E80  
                                                        l3019 3D28  
                                                        l2163 3E76  
                                                        l3051 3E6A  
                                                        l3043 3C84  
                                                        l4011 33BC  
                                                        l4003 33AE  
                                                        l2083 2BA4  
                                                        l2075 2B30  
                                                        l3115 39FC  
                                                        l3107 39E0  
                                                        l3211 3618  
                                                        l3203 35BE  
                                                        l3131 374A  
                                                        l2148 3E7A  
                                                        l2180 3BEC  
                                                        l2172 3C3E  
                                                        l2084 2BA6  
                                                        l2068 2AE0  
                                                        l2252 3E1E  
                                                        l1452 3746  
                                                        l2237 3A2E  
                                                        l2261 3B30  
                                                        l2165 3E78  
                                                        l4013 33C0  
                                                        l4005 33B0  
                                                        l2093 2C0C  
                                                        l2085 2BBC  
                                                        l2077 2B54  
                                                        l3109 39E0  
                                                        l3301 36A0  
                                                        l3221 3656  
                                                        l3213 364E  
                                                        l3205 35C0  
                                                        l3141 3780  
                                                        l3133 3752  
                                                        l2174 3C40  
                                                        l1534 3BCE  
                                                        l2183 3DEE  
                                                        l3119 3C28  
                                                        l4007 33B4  
                                                        l2255 3E26  
                                                        l2087 2BCA  
                                                        l2079 2B64  
                                                        l3231 36FC  
                                                        l3303 36A2  
                                                        l3223 3658  
                                                        l3215 3650  
                                                        l3311 35CC  
                                                        l3207 35C2  
                                                        l3143 3784  
                                                        l3135 375E  
                                                        l3151 2D1C  
                                                        l2192 38B4  
                                                        l2088 2BCC  
                                                        l1288 3662  
                                                        l2177 3E0C  
                                                        l2169 3C38  
                                                        l2265 34DC  
                                                        l3081 3E58  
                                                        l3049 3E46  
                                                        l5001 39B2  
                                                        l3401 3E00  
                                                        l4009 33B8  
                                                        l3241 373A  
                                                        l3233 3732  
                                                        l3305 36A4  
                                                        l3225 365A  
                                                        l3217 3652  
                                                        l3321 360A  
                                                        l3313 3602  
                                                        l3209 35C4  
                                                        l3145 3786  
                                                        l3137 3774  
                                                        l3129 3748  
                                                        l3161 2DB6  
                                                        l3153 2DAA  
                                                        l2258 3E36  
                                                        l3083 3E28  
                                                        l5003 39C2  
                                                        l5011 39D4  
                                                        l3403 3DD8  
                                                        l3251 3840  
                                                        l3243 373C  
                                                        l3235 3734  
                                                        l3307 36A6  
                                                        l3227 365C  
                                                        l3219 3654  
                                                        l3323 360C  
                                                        l3315 3604  
                                                        l3147 3788  
                                                        l3139 3776  
                                                        l3171 2DC4  
                                                        l3163 2DB8  
                                                        l3155 2DAC  
                                                        l1635 31C4  
                                                        l3331 38B6  
                                                        l3085 3E2C  
                                                        l5013 39D8  
                                                        l5005 39C4  
                                                        l1485 3E02  
                                                        l3405 3DDE  
                                                        l3421 3CA4  
                                                        l3229 3428  
                                                        l3253 3842  
                                                        l3245 373E  
                                                        l3237 3736  
                                                        l3181 36EA  
                                                        l3309 36A8  
                                                        l3325 360E  
                                                        l3317 3606  
                                                        l3173 3BEE  
                                                        l3165 2DBA  
                                                        l3157 2DAE  
                                                        l3149 3A7E  
                                                        l5101 3190  
                                                        l3333 38CC  
                                                        l3261 3BC8  
                                                        l1910 3E16  
                                                        l1726 3844  
                                                        l5015 3C42  
                                                        l3087 3E0E  
                                                        l5007 39C8  
                                                        l5111 3C8E  
                                                        l3407 3DE0  
                                                        l5031 3250  
                                                        l3423 3CA4  
                                                        l3247 3740  
                                                        l3239 3738  
                                                        l3191 36F4  
                                                        l3183 36EC  
                                                        l3175 36B0  
                                                        l3327 3610  
                                                        l3319 3608  
                                                        l3167 2DBC  
                                                        l3159 2DB0  
                                                        l5023 3D7A  
                                                        l5103 31A0  
                                                        l3335 38CE  
                                                        l3255 3B94  
                                                        l1904 3E2E  
                                                        l1488 3DE2  
                                                        l1672 3D86  
                                                        l5017 3C4C  
                                                        l3441 3A58  
                                                        l5201 348C  
                                                        l5009 39CE  
                                                        l5113 3C92  
                                                        l1913 3AB8  
                                                        l5041 2E02  
                                                        l5033 3264  
                                                        l5121 353E  
                                                        l3425 3CB4  
                                                        l3249 380E  
                                                        l3329 3DC0  
                                                        l3185 36EE  
                                                        l3177 36E6  
                                                        l3193 3580  
                                                        l3169 2DBE  
                                                        l5025 3D6C  
                                                        l5105 31B0  
                                                        l3337 38E6  
                                                        l3257 3BAA  
                                                        l1914 3AC4  
                                                        l1922 3560  
                                                        l5019 3C56  
                                                        l5051 3B18  
                                                        l5211 34D4  
                                                        l5203 3492  
                                                        l1907 3CA2  
                                                        l5115 3C9E  
                                                        l5043 2E12  
                                                        l5035 3278  
                                                        l5131 355A  
                                                        l5123 3544  
                                                        l3291 3CE6  
                                                        l3187 36F0  
                                                        l3179 36E8  
                                                        l3195 35B6  
                                                        l5027 3D88  
                                                        l1675 3D78  
                                                        l5107 31C0  
                                                        l3259 3BB2  
                                                        l1924 356E  
                                                        l5141 28A0  
                                                        l1917 3A5C  
                                                        l5053 3B2C  
                                                        l5205 349E  
                                                        l3381 3DB2  
                                                        l5109 3C8C  
                                                        l3437 3AA4  
                                                        l5045 2E76  
                                                        l5037 3288  
                                                        l5029 323A  
                                                        l1925 357E  
                                                        l5133 355E  
                                                        l5125 354A  
                                                        l5117 3530  
                                                        l5301 2516  
                                                        l3285 3846  
                                                        l3189 36F2  
                                                        l3293 3664  
                                                        l3197 35B8  
                                                        l3349 3C5C  
                                                        l3373 3D5E  
                                                        l5061 37B4  
                                                        l5221 32D4  
                                                        l1942 32A2  
                                                        l1950 3C22  
                                                        l1678 3D94  
                                                        l5143 28B0  
                                                        l5151 2912  
                                                        l1919 3A7C  
                                                        l3447 3A6C  
                                                        l5047 3B10  
                                                        l5207 34B0  
                                                        l5215 34DA  
                                                        l3383 3DB8  
                                                        l5039 328C  
                                                        l3391 3DF6  
                                                        l5135 3578  
                                                        l5127 3554  
                                                        l5119 3538  
                                                        l3471 3C0C  
                                                        l5311 256A  
                                                        l5303 251E  
                                                        l3287 3878  
                                                        l3295 369A  
                                                        l3199 35BA  
                                                        l3375 3D68  
                                                        l5063 37B6  
                                                        l5055 378C  
                                                        l5071 3904  
                                                        l5231 3300  
                                                        l5223 32D8  
                                                        l1952 3C24  
                                                        l5161 2A1E  
                                                        l5153 29C8  
                                                        l5145 28C6  
                                                        l5137 27DA  
                                                        l3449 3A6E  
                                                        l5049 3B14  
                                                        l5209 34C2  
                                                        l3385 3CFA  
                                                        l5241 2C46  
                                                        l5233 2C0E  
                                                        l3377 3E40  
                                                        l3561 3E20  
                                                        l3393 3DCC  
                                                        l5129 3556  
                                                        l3473 3C12  
                                                        l1945 3C0A  
                                                        l3481 3058  
                                                        l1961 3036  
                                                        l3553 3E18  
                                                        l5401 2790  
                                                        l5321 25AA  
                                                        l5313 258A  
                                                        l5305 2526  
                                                        l3289 387A  
                                                        l3297 369C  
                                                        l5065 37C6  
                                                        l5057 379A  
                                                        l5073 3906  
                                                        l5081 3214  
                                                        l5225 32F0  
                                                        l1938 3258  
                                                        l5155 29D8  
                                                        l5147 28E2  
                                                        l5139 27EA  
                                                        l3379 3E70  
                                                        l5251 2C7A  
                                                        l5243 2C4A  
                                                        l5235 2C1E  
                                                        l5171 2EF6  
                                                        l5163 2ED8  
                                                        l3395 3DD2  
                                                        l1947 3C14  
                                                        l3491 30AA  
                                                        l3483 3068  
                                                        l3475 3038  
                                                        l1955 3024  
                                                        l1891 3CB8  
                                                        l5411 27A2  
                                                        l5403 2794  
                                                        l5331 25C2  
                                                        l5323 25B0  
                                                        l5315 259A  
                                                        l5307 2536  
                                                        l3299 369E  
                                                        l5091 3186  
                                                        l5059 37B2  
                                                        l5075 3916  
                                                        l5067 38EC  
                                                        l5083 3224  
                                                        l5227 32F4  
                                                        l5219 32A4  
                                                        l1964 3078  
                                                        l5157 29EE  
                                                        l5149 28F6  
                                                        l1981 2A36  
                                                        l2941 3B34  
                                                        l5245 2C5E  
                                                        l5237 2C26  
                                                        l5501 2BFE  
                                                        l5421 2A38  
                                                        l5181 2F56  
                                                        l5173 2EFA  
                                                        l5165 2EDE  
                                                        l3389 3DF0  
                                                        l3397 3DD4  
                                                        l3493 30B2  
                                                        l3485 3074  
                                                        l3477 3040  
                                                        l5413 27B2  
                                                        l5405 2798  
                                                        l5341 2600  
                                                        l5333 25D2  
                                                        l5325 25B4  
                                                        l5317 259E  
                                                        l5309 2556  
                                                        l5093 3188  
                                                        l5069 3902  
                                                        l5085 3234  
                                                        l5077 31C6  
                                                        l5229 32FC  
                                                        l1974 30B8  
                                                        l1966 3086  
                                                        l5159 2A0A  
                                                        l2943 3B3A  
                                                        l3591 3A24  
                                                        l3583 3A08  
                                                        l5511 33D0  
                                                        l5247 2C6E  
                                                        l5255 2C82  
                                                        l5239 2C36  
                                                        l3399 3DFA  
                                                        l5503 2C02  
                                                        l5431 2A96  
                                                        l5423 2A3E  
                                                        l5191 2F7E  
                                                        l5183 2F5E  
                                                        l5175 2F0E  
                                                        l5167 2EE2  
                                                        l3495 30B6  
                                                        l1967 3088  
                                                        l3487 3076  
                                                        l3479 3046  
                                                        l1959 3026  
                                                        l5415 27C6  
                                                        l5407 279C  
                                                        l5351 2638  
                                                        l5343 2604  
                                                        l5335 25E4  
                                                        l5327 25B8  
                                                        l5319 25A4  
                                                        l5095 318A  
                                                        l5087 314C  
                                                        l5079 3204  
                                                        l2953 3DE4  
                                                        l3585 3A08  
                                                        l5521 3404  
                                                        l5513 33D4  
                                                        l2945 3E64  
                                                        l2961 3E4C  
                                                        l5281 2CE6  
                                                        l5257 2C96  
                                                        l5249 2C76  
                                                        l5265 2C9E  
                                                        l5193 3B74  
                                                        l5505 2C06  
                                                        l5441 2AB0  
                                                        l5433 2A9A  
                                                        l5425 2A42  
                                                        l5185 2F62  
                                                        l5177 2F2A  
                                                        l5169 2EE6  
                                                        l3489 309A  
                                                        l1969 3098  
                                                        l5417 27CE  
                                                        l5409 279E  
                                                        l5353 2648  
                                                        l5345 2618  
                                                        l5337 25F8  
                                                        l5329 25BC  
                                                        l5097 318C  
                                                        l5089 3184  
                                                        l1986 2ED6  
                                                        l2955 3DEC  
                                                        l3587 3A1C  
                                                        l5523 340A  
                                                        l5515 33D8  
                                                        l5507 33C8  
                                                        l1899 3E5C  
                                                        l2947 3E52  
                                                        l5283 2CF6  
                                                        l5267 2CB2  
                                                        l5275 2CBE  
                                                        l5195 3B80  
                                                        l5443 2AC4  
                                                        l5435 2A9E  
                                                        l5427 2A52  
                                                        l1995 2F82  
                                                        l5187 2F66  
                                                        l5179 2F46  
                                                        l5419 27D2  
                                                        l5371 26E8  
                                                        l5363 26AE  
                                                        l5355 264C  
                                                        l5347 2620  
                                                        l5339 25FC  
                                                        l5099 318E  
                                                        l2949 3E06  
                                                        l3589 3A20  
                                                        l5525 341A  
                                                        l5517 33DC  
                                                        l5509 33CC  
                                                        l5277 2CCE  
                                                        l5269 2CB6  
                                                        l5461 2B42  
                                                        l5453 2B10  
                                                        l5445 2AC8  
                                                        l5437 2AA0  
                                                        l5429 2A8A  
                                                        l5189 2F6C  
                                                        l5381 2712  
                                                        l5373 26EC  
                                                        l5365 26B6  
                                                        l5349 2634  
                                                        l5357 2652  
                                                        l5621 30BE  
                                                        l5199 3484  
                                                        l5527 3422  
                                                        l5519 33E0  
                                                        l2959 3E5E  
                                                        l5287 2CFE  
                                                        l5279 2CD6  
                                                        l5471 2B74  
                                                        l5463 2B4A  
                                                        l5455 2B1A  
                                                        l5447 2ACC  
                                                        l5391 2754  
                                                        l5383 2714  
                                                        l5375 26EE  
                                                        l5367 26CC  
                                                        l5359 2664  
                                                        l5295 2508  
                                                        l5631 30DE  
                                                        l5623 30C0  
                                                        l5289 2D12  
                                                        l5481 2BAE  
                                                        l5473 2B86  
                                                        l5457 2B20  
                                                        l5449 2AFA  
                                                        l5393 275C  
                                                        l5385 2724  
                                                        l5377 2702  
                                                        l5369 26E0  
                                                        l5297 250E  
                                                        l5641 3122  
                                                        l5633 30EE  
                                                        l5625 30C2  
                                                        l5483 2BB0  
                                                        l5475 2B8E  
                                                        l5467 2B66  
                                                        l5459 2B32  
                                                        l5395 2760  
                                                        l5387 2726  
                                                        l5379 270E  
                                                        l5299 2512  
                                                        l5643 312A  
                                                        l5635 30F6  
                                                        l5627 30C6  
                                                        l5619 30BA  
                                                        l3981 3372  
                                                        l5485 2BCE  
                                                        l5493 2BF0  
                                                        l5469 2B6E  
                                                        l4941 3306  
                                                        l5389 2750  
                                                        l5397 2762  
                                                        l5645 313C  
                                                        l5637 3108  
                                                        l5629 30D6  
                                                        l3991 3388  
                                                        l3983 3376  
                                                        l5495 2BF4  
                                                        l5487 2BDE  
                                                        l5479 2BA8  
                                                        l4951 333C  
                                                        l4943 331E  
                                                        l5399 2772  
                                                        l5639 3110  
                                                        l3993 338C  
                                                        l3985 337A  
                                                        l3977 3368  
                                                        l5497 2BF8  
                                                        l5489 2BE6  
                                                        l4961 34DE  
                                                        l4953 333E  
                                                        l4945 3326  
                                                        l3995 338E  
                                                        l3987 3380  
                                                        l3979 336E  
                                                        l5499 2BFA  
                                                        l4971 34FC  
                                                        l4963 34E6  
                                                        l4955 3342  
                                                        l4947 332C  
                                                        l3997 339E  
                                                        l3989 3384  
                                                        l4981 3528  
                                                        l4973 3504  
                                                        l4965 34EC  
                                                        l4957 3346  
                                                        l4949 3332  
                                                        l4983 387E  
                                                        l3999 33A2  
                                                        l4975 3506  
                                                        l4967 34F0  
                                                        l4959 3360  
                                                        l4991 3D42  
                                                        l4985 3882  
                                                        l4977 350A  
                                                        l4969 34F6  
                                                        l4993 3D34  
                                                        l4987 3896  
                                                        l4979 350E  
                                                        l4995 3D50  
                                                        l4989 389A  
                                                        l4997 3DA4  
                                                        l4999 3D96  
                           __size_of_SST26VF064B_WriteAddress 0020  
                                                        u2000 3122  
                                                        u2001 311E  
                                                        u2010 313C  
                                                        u2011 3138  
                                                        u1310 3356  
                                                        u1311 3352  
                                                        u1400 356E  
                                                        u1401 356A  
                                                        u1330 351E  
                                                        u1331 351A  
                                                        u1420 27EA  
                                                        u1500 34B0  
                                                        u1421 27E6  
                                                        u1501 34AC  
                                                        u1325 335E  
                                                        _LATA 0004BE  
                                                        u1430 28E2  
                                                        u1350 38B4  
                                                        u1510 34C2  
                                                        u1326 3360  
                                                        _LATB 0004BF  
                                                        u1431 28DE  
                                                        u1351 38B0  
                                                        u1511 34BE  
                                                        u1415 3576  
                                                        _LATC 0004C0  
                                                        u1440 28F6  
                                                        u1520 34D4  
                                                        u1360 39C2  
                                                        u1600 2D12  
                                                        u1416 3578  
                                                        _LATD 0004C1  
                                                        u1441 28F2  
                                                        u1521 34D0  
                                                        u1361 39BE  
                                                        u1601 2D0E  
                                                        u1345 3526  
                                                        _LATE 0004C2  
                                                        u1450 2A0A  
                                                        u1530 2C1E  
                                                        u1346 3528  
                                                        u1370 3250  
                                                        u1610 2536  
                                                        _LATF 0004C3  
                                                        u1451 2A06  
                                                        u1531 2C1A  
                                                        u1371 324C  
                                                        u1611 2532  
                                                        u1460 2A1E  
                                                        u1540 2C46  
                                                        u1380 32A2  
                                                        u1700 2736  
                                                        u1620 25D2  
                                                        u1461 2A1A  
                                                        u1541 2C42  
                                                        u1381 329E  
                                                        u1701 2730  
                                                        u1621 25CE  
                                                        u1550 2C6E  
                                                        u1390 2E12  
                                                        u1470 2EF6  
                                                        u1710 2772  
                                                        u1630 25E2  
                                                        u1551 2C6A  
                                                        u1391 2E0E  
                                                        u1471 2EF2  
                                                        u1711 276E  
                                                        u1631 25DE  
                                                        u1560 2C96  
                                                        u1800 2B42  
                                                        u1480 2F0E  
                                                        u1720 2790  
                                                        u1640 25F8  
                                                        u1561 2C92  
                                                        u1801 2B3E  
                                                        u1481 2F0A  
                                                        u1721 278C  
                                                        u1641 25F4  
                                                        u1570 2CB2  
                                                        u1810 2B64  
                                                        u1490 2F7E  
                                                        u1730 27B2  
                                                        u1706 2738  
                                                        u1650 2634  
                                                        _T2PR 000323  
                                                        u1571 2CAE  
                                                        u1811 2B60  
                                                        u1491 2F7A  
                                                        u1731 27AE  
                                                        u1651 2630  
                                                        u1580 2CCE  
                                                        u1820 2BA0  
                                                        u1740 2A52  
                                                        u1660 2664  
                                                        u1581 2CCA  
                                                        u1821 2B9C  
                                                        u1741 2A4E  
                                                        u1661 2660  
                                                        u1590 2CF6  
                                                        u1830 2BCA  
                                                        u1750 2AB0  
                                                        u1670 26A8  
                                                        u1591 2CF2  
                                                        u1831 2BC6  
                                                        u1751 2AAC  
                                                        u1671 26A4  
                                                        u1840 2BDE  
                                                        u1760 2AC4  
                                                        u1680 26CC  
                                                        u1841 2BDA  
                                                        u1761 2AC0  
                                                        u1681 26C8  
                                                        u1850 341A  
                                                        u1770 2AF0  
                                                        u1690 2724  
                                                        _T4PR 00032F  
                                                        u1851 3416  
                                                        u1771 2AEC  
                                                        u1691 2720  
                                                        u1780 2B0C  
                                                        u1781 2B08  
                                                        u1790 2B30  
                                                        u1791 2B2C  
                                                        u1970 30D6  
                                                        _T6PR 00033B  
                                                        u1971 30D2  
                                                        u1980 30EE  
                                                        _PMD0 000060  
                                                        u1981 30EA  
                                                        _PMD1 000061  
                                                        u1990 3108  
                                                        u1991 3104  
                                                        _PMD3 000063  
                                                        _PMD4 000064  
                                                        _PMD5 000065  
                                                        _PMD6 000066  
                                                        _PMD7 000067  
                                                        _PMD8 000068  
                                     _TMR1_HasOverflowOccured 3CFA  
                                   ?_SST26VF064B_WriteAddress 0503  
                                                        _TMR2 000322  
                                                        _TMR4 00032E  
                                                        _TMR6 00033A  
                                                        _WPUA 000401  
                                                        _WPUB 000409  
                                                        _WPUC 000411  
                                                        _WPUD 000419  
                                                        _WPUE 000421  
                                                        _WPUF 000429  
                                       ?_PWM2_16BIT_PWMPI_ISR 0501  
                                        SST26VF064B_Busy@temp 0504  
                                                        _main 30BA  
                                                        _mode 053F  
                                             _TMR0_StartTimer 3E40  
                                                        fsr2h 0004DA  
                                                        indf2 0004DF  
                                                        fsr2l 0004D9  
                                            __end_of_CLC1_ISR 3AEC  
                                            __end_of_CLC2_ISR 3B10  
                                                        start 0102  
                                   __end_of_SPI1_ExchangeByte 3B54  
                                         __size_of_AUDIO_Idle 010E  
                                                ___param_bank 000000  
                                __end_of_SST26VF064B_Read_Cmd 3E28  
                                       __end_of_ResetSwitches 3E18  
                                   __size_of_DATAEE_WriteByte 0052  
                                     __end_of_TMR0_Initialize 37CE  
                              ??_TMR0_DefaultInterruptHandler 0501  
                              __size_of_OSCILLATOR_Initialize 001C  
                               __end_of_OSCILLATOR_Initialize 3C0A  
                                                       _ADCAP 0003F0  
                                                       _ADACT 0003F9  
                                                       ?_main 0501  
                                        __end_of_AUDIO_Record 27DA  
                                                       _ADCLK 0003FA  
                                                       _ADCNT 0003E6  
                                                       _ADPCH 0003EC  
                                                       _ADREF 0003F8  
                                                       _ADRPT 0003E7  
                                             _TMR1_StartTimer 3E46  
                                       ??_PWM2_16BIT_PWMI_ISR 0502  
                                                       _T1CLK 000321  
                                                       _T1CON 00031E  
                                                       _U1P1H 0002A6  
                                                       _U1P2H 0002A8  
                                                       _U1P1L 0002A5  
                                                       _U1P3H 0002AA  
                                                       _T2CON 000324  
                                                       _U1P2L 0002A7  
                                                       _U1P3L 0002A9  
                                                       _T4CON 000330  
                                                       _T2HLT 000325  
                                                       _T6CON 00033C  
                                                       _T4HLT 000331  
                                                       _T6HLT 00033D  
                                                       _T2TMR 000322  
                                                       _U1UIR 0002B1  
                                                       _T2RST 000327  
                                                       _U1RXB 0002A1  
                                                       _U1TXB 0002A3  
                                                       _T4TMR 00032E  
                                                       _T4RST 000333  
                                                       i2l530 3CCE  
                                                       _T6TMR 00033A  
                                                       i2l527 3AEA  
                                                       i2l471 3E3E  
                                                       i2l383 3D22  
                                                       i2l481 3E8A  
                                                       i2l393 3E88  
                                                       _T6RST 00033F  
                                                       i2l475 39B0  
                                                       i2l387 3980  
                                                       i2l568 3E8C  
                                                       i2l934 3E86  
                                     __size_of_AUDIO_Playback 01D6  
                                                       _OSCEN 0000B3  
                                                       _TMR0H 000319  
                                                       _TMR1H 00031D  
                                                       _TMR0L 000318  
                                                       _TMR1L 00031C  
                                                       _TRISA 0004C6  
                                                       _TRISB 0004C7  
                                                       _TRISC 0004C8  
                                                       _TRISD 0004C9  
                                                       _TRISE 0004CA  
                                                       _TRISF 0004CB  
                                                 _Default_ISR 3E8C  
                                __end_of_AUDIO_UpdateMetaData 2ED8  
                                       SST26VF064B_Hold@state 0502  
                           __size_of_TMR0_SetInterruptHandler 000E  
                                             _TMR4_Initialize 3B94  
                                   ?_TMR0_SetInterruptHandler 0502  
                           __size_of_TMR6_SetInterruptHandler 000E  
                                   ?_TMR6_SetInterruptHandler 0502  
                                  AUDIO_Record@blockStartAddr 0516  
                              __size_of_SST26VF064B_ChipErase 0028  
                                            __end_of_TMR0_ISR 3D24  
                               __end_of_SST26VF064B_ChipErase 3A08  
                                            __end_of_TMR6_ISR 3E40  
                                              _BlinkTimer_ISR 3A30  
         fp__PWM2_16BIT_Slice1Output1_DefaultInterruptHandler 0000  
    __end_of_PWM2_16BIT_Slice1Output1_DefaultInterruptHandler 3E92  
   __size_of_PWM2_16BIT_Slice1Output1_DefaultInterruptHandler 0002  
          ??_PWM2_16BIT_Slice1Output1_DefaultInterruptHandler 0502  
           ?_PWM2_16BIT_Slice1Output1_DefaultInterruptHandler 0501  
            _PWM2_16BIT_Slice1Output1_DefaultInterruptHandler 3E90  
                                             _DATAEE_ReadByte 3C42  
                                          __size_of_TMR6_Stop 0006  
                                                 ?_TMR6_Start 0501  
                                     __end_of_TMR1_Initialize 38EC  
                                                       pclath 0004FA  
                                    __size_of_DMA1_Initialize 004C  
                                                       status 0004D8  
                            __size_of_SST26VF064B_JEDECID_Cmd 0008  
                            _UART1_DefaultFramingErrorHandler 000000  
                                             _TMR1_WriteTimer 39B2  
                                        _CLC1_OutputStatusGet 3CBA  
                                         __size_of_MEMORY_ISR 0004  
                                    __size_of_SPI1_Initialize 0018  
                              ??_TMR6_DefaultInterruptHandler 0501  
                                       _PWM2_16BIT_Initialize 314C  
                                             __initialization 3B54  
                                        __size_of_AUDIO_Erase 00AC  
                                                __end_of_main 314C  
                                     __end_of_DAC1_Initialize 3DCC  
                                           _transferToStorage 0541  
                                     __end_of_TMR2_Initialize 3BD0  
                                    __size_of_DMA2_Initialize 004C  
                                                ?_UART1_Write 0501  
                                                      ??_main 0528  
                                  __end_of_AUDIO_ReadMetaData 2A38  
                                            __end_of_ResetDMA 3AC6  
                                               __activetblptr 000003  
               __end_of_PWM2_16BIT_Period_SetInterruptHandler 3D96  
              __size_of_PWM2_16BIT_Period_SetInterruptHandler 000E  
                     ??_PWM2_16BIT_Period_SetInterruptHandler 0505  
                      ?_PWM2_16BIT_Period_SetInterruptHandler 0502  
                       _PWM2_16BIT_Period_SetInterruptHandler 3D88  
                                      __end_of_BlinkTimer_ISR 3A58  
                                             _TMR6_Initialize 38EC  
                                            _UART1_Initialize 31C6  
                                               ??_ResetAllDMA 0502  
                                   ??_TMR1_HasOverflowOccured 0502  
                                                      _ADACCH 0003E4  
                                                      _ADACCL 0003E3  
                                     __end_of_TMR0_StartTimer 3E46  
                                                      _ADACCU 0003E5  
                                                      _ADACQH 0003EF  
                                                      _ADACQL 0003EE  
                                                      _ADCON0 0003F3  
                                                      _ADCON1 0003F4  
                                                      _ADCON2 0003F5  
                                                      _ADCON3 0003F6  
                             SST26VF064B_SPI_ReadBuffer@count 0505  
                                                      _ADERRH 0003DE  
                                                      _CM1NCH 000072  
                                                      _ADERRL 0003DD  
                                                      _CM1PCH 000073  
                                                      _ADLTHH 0003DA  
                                                      _ACTCON 0000AC  
                                                      _ADLTHL 0003D9  
                                                      _ADRESH 0003EB  
                                                      _ADRESL 0003EA  
                                                      _ADPREH 0003F2  
                                                      _ADPREL 0003F1  
                                   __size_of_LED0_Blink_Start 0006  
                                                      _DMA1PR 0000B6  
                                                      _DMA2PR 0000B7  
                                                      _DMA3PR 0000B8  
                                                      _DMA4PR 0000B9  
                                                      _ADSTAT 0003F7  
                                                      _DMA5PR 0000BA  
                                                      _DMA6PR 0000BB  
                                                      _ADUTHH 0003DC  
                                                      _ADUTHL 0003DB  
                                                      _ANSELA 000400  
                                                      _ANSELB 000408  
                                                      _ANSELC 000410  
                                                      _ANSELD 000418  
                                                      _ANSELE 000420  
                                                      _ANSELF 000428  
                                      ??_PWM2_16BIT_PWMPI_ISR 0502  
                           FLASH_WriteWord_ByWord@GIEBitValue 0506  
                                                      _T0CON0 00031A  
                                                      _T0CON1 00031B  
                                                      _RB1I2C 000289  
                                                      _T1GATE 000320  
                                                      _RB2I2C 000288  
                                                      _T1GCON 00031F  
                                                      _U1CON0 0002AB  
                                                      _U1CON1 0002AC  
                                                      _U1CON2 0002AD  
                                                      _RC3I2C 000287  
                                                      _RC4I2C 000286  
                                                      _U1BRGH 0002AF  
                                                      _U1FIFO 0002B0  
                                                      _U1BRGL 0002AE  
                                                      _RC2PPS 000213  
                                                      _RB5PPS 00020E  
                                     TMR1_WriteTimer@timerVal 0502  
                                                      _RC4PPS 000215  
                                                      _ODCONA 000402  
                                                      _ODCONB 00040A  
                                                      _ODCONC 000412  
                                                      _RF0PPS 000229  
                                                      _RC6PPS 000217  
                                                      _ODCOND 00041A  
                                                      _ODCONE 000422  
                                                      _ODCONF 00042A  
                                                      _RD5PPS 00021E  
                                                      i2l4111 3AC8  
                                                      i2l4113 3ACA  
                                                      i2l4115 3ADE  
                                                      i2l4107 3E38  
                                                      i2l3411 37D4  
                                                      i2l1733 3B0E  
                                                      i2l4117 3AE6  
                                                      i2l4109 3E3A  
                                                      i2l3413 37EE  
                                                      i2l1663 3022  
                                                      i2l3415 3806  
                                                      i2l1736 3CE4  
                                                      i2l1681 3E90  
                                                      i2l3417 380A  
                                                      i2l3409 37D0  
                                                      i2l1658 2FD6  
                                                      i2l3427 3A30  
                                                      i2l3611 3966  
                                                      i2l4091 3D18  
                                                      i2l1684 3E8E  
                                                      i2l1669 3950  
                                                      i2l4093 3D1E  
                                                      i2l1687 3E92  
                                                      i2l3623 3982  
                                                      i2l4087 3D10  
                                                      i2l3625 3996  
                                                      i2l3609 3952  
                                                      i2l4089 3D12  
                                                      i2l3627 3CBA  
                                                      i2l1885 380C  
                                                      i2l1877 37CE  
                                                      i2l1894 3A30  
                                                      i2l1896 3A56  
                                                      i2l4297 3E84  
                                                      _INLVLA 000404  
                                                      _INLVLB 00040C  
                                                      _INLVLC 000414  
                                                      _INLVLD 00041C  
                                                      _INLVLE 000424  
                                                      _INLVLF 00042C  
                                                      i2l3699 3CD0  
                                                      i2l4771 2FA2  
                                                      i2l4781 2FF4  
                                                      i2l4773 2FA4  
                                                      i2l4791 3AEC  
                                                      i2l4783 3008  
                                                      i2l4775 2FB8  
                                                      i2l4767 2F84  
                                 __size_of_SST26VF064B_CS_Low 0004  
                                                      i2l4793 3AEE  
                                                      i2l4785 3920  
                                                      i2l4777 2FE4  
                                                      i2l4769 2F94  
                                                      i2l4795 3B02  
                                                      i2l4787 3922  
                                                      i2l4779 2FF2  
                                                      i2l4797 3B0A  
                                                      i2l4789 3936  
                                                      _TABLAT 0004F5  
                                            ??_APP_Initialize 050C  
                                      AUDIO_Playback@numPages 050E  
                                   __size_of_FLASH_EraseBlock 0062  
                                                      _OSCFRQ 0000B1  
                                    __size_of_DMA3_Initialize 004C  
                                                      _NVMDAT 000046  
                                   __size_of_FLASH_ErasePages 006A  
                                               ??_WaitForTick 0502  
                                                      _PRLOCK 0000B4  
                                       _UART1_SetErrorHandler 3D50  
                                       ?_CLC1_OutputStatusGet 0501  
                                  __size_of_SPI1_ExchangeByte 0022  
                                                ?_TMR0_Reload 0501  
                                     __end_of_TMR1_StartTimer 3E4C  
                                     ?_TMR1_StopAndStartTimer 0504  
                                               ?_PingPong2SPI 0501  
                            __end_of_SST26VF064B_SPI_ReadByte 3DF0  
                             ??_DMA2_StartTransferWithTrigger 0502  
                                        _CLC2_OutputStatusGet 3CD0  
                                           __end_of_TMR6_Stop 3E58  
                                       __end_of_TimerTick_ISR 380E  
                                                      _extMem 0542  
                                            ?_TMR0_Initialize 0501  
                                     __end_of_TMR4_Initialize 3BB2  
                                         __size_of_TMR6_Start 0006  
                                                      clear_0 3B5A  
                              FLASH_EraseBlock@blockStartAddr 0507  
                                    __size_of_DMA4_Initialize 004C  
                                     _SST26VF064B_WriteEnable 3D24  
                                ?_SST26VF064B_PageProgram_Cmd 0501  
                                     __end_of_DATAEE_ReadByte 3C5C  
                                       AUDIO_Record@flashAddr 0524  
                                                 _DstVarName1 053C  
                                                 _DstVarName4 0538  
                                             _ADCC_Initialize 3428  
                                              _PMD_Initialize 3A7E  
                                                ??_AUDIO_Idle 0506  
                                             ?_BlinkTimer_ISR 0501  
                                                   ?_CLC1_ISR 0501  
                                                   ?_CLC2_ISR 0501  
                                                __mediumconst 0000  
                                          _PingPong2BufferRam 3C0A  
                                             AUDIO_Playback@i 0510  
                                       __end_of_TMR0_CallBack 3982  
       PWM2_16BIT_Period_SetInterruptHandler@InterruptHandler 0502  
PWM2_16BIT_Slice1Output2_SetInterruptHandler@InterruptHandler 0502  
PWM2_16BIT_Slice1Output1_SetInterruptHandler@InterruptHandler 0502  
                    TMR6_SetInterruptHandler@InterruptHandler 0502  
                    TMR0_SetInterruptHandler@InterruptHandler 0502  
                        __end_of_UART1_SetOverrunErrorHandler 3D42  
                       __size_of_UART1_SetOverrunErrorHandler 000E  
                                _UART1_SetOverrunErrorHandler 3D34  
                                             _CLC1_Initialize 3846  
                                   _UART1_DefaultErrorHandler 000000  
                                     ?_SST26VF064B_Initialize 0501  
                                     __end_of_TMR1_WriteTimer 39E0  
                                               _gpr_bufferRam 002500  
                                        _SST26VF064B_Read_Cmd 3E20  
                               __size_of_INTERRUPT_Initialize 0044  
                                            ?_TMR1_Initialize 0501  
                                           _SYSTEM_Initialize 32A4  
                                                  __accesstop 0560  
                                     __end_of__initialization 3B6E  
                                         ?_PingPong2BufferRam 0501  
                                    __size_of_DMA5_Initialize 004C  
                                         __end_of_ResetAllDMA 3A7E  
                                   __size_of_SST26VF064B_Hold 001C  
                                   __size_of_SST26VF064B_Busy 001E  
                             FLASH_WriteWord_ByWord@flashAddr 0502  
                                             _CMP1_Initialize 3CE6  
                                          ?_SYSTEM_Initialize 0501  
                                             _TMR6_StartTimer 3E5E  
                                      ?_PWM2_16BIT_Initialize 0501  
                                               ___rparam_used 000001  
                                        _AUDIO_UpdateMetaData 2E02  
                              __end_of_TMR1_StopAndStartTimer 3CA4  
                                           ??_DMA1_Initialize 0502  
                                              __pcstackCOMRAM 0501  
                                              ??_PingPong2SPI 0502  
                                         __end_of_WaitForTick 3CBA  
                                          __end_of_AUDIO_Idle 2D1C  
                                       ?_CLC2_OutputStatusGet 0501  
                                       __size_of_AUDIO_Record 02D2  
                                         ??_SYSTEM_Initialize 0507  
                                            ?_DAC1_Initialize 0501  
                                                   ?_TMR0_ISR 0501  
                                             _CLC2_Initialize 380E  
                                                   ?_TMR6_ISR 0501  
                                            _DATAEE_WriteByte 34DE  
                                              ivt0x8_undefint 0100  
                                           ??_SPI1_Initialize 0502  
                                            ?_TMR2_Initialize 0501  
                                     __end_of_TMR6_Initialize 391E  
                                        ??_PingPong2BufferRam 0502  
                                                 ResetDMA@dma 0502  
                                      __end_of_PMD_Initialize 3AA2  
                                    __size_of_DMA6_Initialize 004C  
                                       SPI1_ExchangeByte@data 0502  
                            __end_of_SST26VF064B_WriteAddress 3B94  
                                                ??_MEMORY_ISR 0502  
                                       __end_of_TMR6_CallBack 39B2  
                                              _AUDIO_Playback 2A38  
                                          _spi1_configuration 2501  
                                    __size_of_LED0_Blink_Stop 0008  
                               ??_SST26VF064B_PageProgram_Cmd 0504  
                                                  ??_CLC1_ISR 0502  
                                                  ??_CLC2_ISR 0502  
                                   _UART1_FramingErrorHandler 0557  
                                           ??_DMA2_Initialize 0502  
                              __end_of_SST26VF064B_Initialize 34DE  
                                          TimerTick_ISR@count 0534  
                                            ?_TMR0_StartTimer 0501  
                                   __end_of_SYSTEM_Initialize 3306  
                                       ?_SST26VF064B_Read_Cmd 0501  
                                           _AUDIO_Passthrough 3368  
                               ?_UART1_SetOverrunErrorHandler 0502  
                                     AUDIO_Playback@flashAddr 050A  
                                      ?_UART1_SetErrorHandler 0502  
                                     _SST26VF064B_JEDECID_Cmd 3E30  
                                      ??_CLC1_OutputStatusGet 0502  
                                    _SystemArbiter_Initialize 3D5E  
                                          ?_AUDIO_Passthrough 0501  
                                                  __pnvCOMRAM 0548  
                                                _AUDIO_Record 2508  
                                                     IVTBASEH 00045E  
                                                     IVTBASEL 00045D  
                                                  _gpr11_ping 000B00  
                                                     IVTBASEU 00045F  
                                                  _gpr12_pong 000C00  
                                                   ?_ResetDMA 0501  
                                       ?_AUDIO_UpdateMetaData 0501  
                                          __end_of_MEMORY_ISR 3E88  
                                           ??_DMA3_Initialize 0502  
                                         ??_AUDIO_Passthrough 0503  
                            __end_of_TMR0_SetInterruptHandler 3DB2  
                                     __size_of_TMR0_StopTimer 0006  
                                            ?_TMR1_StartTimer 0501  
                                                  ??_TMR0_ISR 0501  
                            __end_of_TMR6_SetInterruptHandler 3DA4  
                                     __end_of_ADCC_Initialize 3484  
                                                     _DAC1CON 00007F  
                                                  ??_TMR6_ISR 0502  
                                   ??_SST26VF064B_WriteEnable 0504  
                                                     _CM1CON0 000070  
                                                     _CM1CON1 000071  
                                                     _ADFLTRH 0003E2  
                                                     _ADFLTRL 0003E1  
                                      __end_of_AUDIO_Playback 2C0E  
                                                     _ADPREVH 0003E9  
                                                     _ADPREVL 0003E8  
                                                     _CLCDATA 0000D4  
                                            ?_TMR4_Initialize 0501  
                                                     _ADSTPTH 0003E0  
                                                     _ADSTPTL 0003DF  
                                             ?_PMD_Initialize 0501  
                                    _SST26VF064B_SPI_ReadByte 3DE4  
                                                     _CLCnCON 0000D6  
                                     __size_of_TMR1_StopTimer 0006  
                                                     _CLCnPOL 0000D7  
                       __end_of_DMA2_StartTransferWithTrigger 3DFA  
                      __size_of_DMA2_StartTransferWithTrigger 000A  
                               _DMA2_StartTransferWithTrigger 3DF0  
                                                     _DMAnDSA 0000F0  
                                            ?_DATAEE_ReadByte 0502  
                                                     _DMAnDSZ 0000EE  
                                                     _DMAnSSA 0000F9  
                                                     _U1ERRIE 0002B3  
                                                     _U1ERRIR 0002B2  
                                                     _DMAnSSZ 0000F7  
                                     __end_of_CLC1_Initialize 387E  
                                                     _T2INPPS 000248  
                                                     _T4INPPS 000249  
                                                ?_Default_ISR 0501  
                                        __size_of_UART1_Write 0018  
                                                _DMAnCON0bits 0000FC  
                                __size_of_SST26VF064B_CS_High 0004  
                                                _DMAnCON1bits 0000FD  
                                                     _U1RXPPS 000272  
                                                     _OSCCON1 0000AD  
                                                     _OSCCON3 0000AF  
                                                     _IVTLOCK 000459  
                                                     _TBLPTRH 0004F7  
                                                     _TBLPTRL 0004F6  
                                                     _SPI1CLK 00008C  
                                                     _TBLPTRU 0004F8  
                                                     i2u16_40 37EE  
                                                     i2u16_41 37EA  
                                                     i2u17_40 3806  
                                                     i2u17_41 3802  
                                                     i2u42_40 3966  
                                                     i2u42_41 3962  
                                                     i2u51_40 3CE2  
                                                     i2u19_40 3A40  
                                                     i2u51_41 3CDC  
                                                     i2u19_41 3A3A  
                                                     i2u51_46 3CE4  
                                                     i2u19_46 3A42  
                                                     _SPI1RXB 000080  
                                                     i2u44_40 3996  
                                                     i2u43_48 396C  
                                                     _NVMADRH 000044  
                                                     i2u44_41 3992  
                                                     i2u43_49 3980  
                                                     _NVMADRL 000043  
                                                     _SPI1TXB 000081  
                                           ??_DMA4_Initialize 0502  
                                                     _NVMADRU 000045  
                                                     i2u46_40 3CCC  
                                                     i2u45_48 399C  
                                                     i2u46_41 3CC6  
                                                     i2u45_49 39B0  
                                                     _OSCTUNE 0000B0  
                                                     _NVMDATL 000046  
                                                     i2u46_46 3CCE  
                                                     _PWM2CLK 000470  
                                                     _PWM2GIE 000477  
                                                     _PWM2CON 000478  
                                                     _PWM2GIR 000476  
                                                     _PWM2ERS 00046F  
                                                     _PWM2LDS 000471  
                                                 _ResetAllDMA 3A58  
                                                     i2u95_40 3ADE  
                                                     _PWM2PRH 000473  
                                                     i2u95_41 3ADA  
                                                     _PWM2PRL 000472  
                                                     _NVMLOCK 000042  
                                                     _SLRCONA 000403  
                                                     _SLRCONB 00040B  
                                   __end_of_AUDIO_Passthrough 33C8  
                                                     _SLRCONC 000413  
                                                     _SLRCOND 00041B  
                                                     _SLRCONE 000423  
                                                     _SLRCONF 00042B  
                                     __end_of_CMP1_Initialize 3CFA  
                                            _LED0_Blink_Start 3E58  
                                     __end_of_TMR6_StartTimer 3E64  
                                                ??_TMR6_Start 0502  
                                            ?_TMR1_WriteTimer 0502  
                                __size_of_SST26VF064B_WP_High 0004  
                                            _FLASH_EraseBlock 3306  
                                        DATAEE_WriteByte@bAdd 0502  
                                __size_of_SST26VF064B_Command 000A  
                                            _FLASH_ErasePages 323A  
                                                 _WaitForTick 3CA4  
                        __size_of_SST26VF064B_PageProgram_Cmd 0008  
                                     __end_of_CLC2_Initialize 3846  
                                   INTERRUPT_Initialize@state 0502  
                                                  ??_ResetDMA 0502  
                                                   _CLCIN0PPS 000261  
                                                     __Hparam 0000  
                                                 _SrcVarName3 0536  
                                                 _SrcVarName4 053A  
                                                     __Lparam 0000  
                                    __end_of_UART1_Initialize 323A  
                                                  _gpr_bank36 002400  
                                ??_SST26VF064B_SPI_ReadBuffer 0507  
                                      ??_CLC2_OutputStatusGet 0502  
                                                   _CLCSELECT 0000D5  
                                           ??_DMA5_Initialize 0502  
                                                   _DMASELECT 0000E8  
                                 __end_of_PWM2_16BIT_PWMI_ISR 3024  
                                                __psmallconst 2500  
                                        __size_of_TMR0_Reload 000E  
                                             ?_AUDIO_Playback 0501  
                                                     __pcinit 3B54  
                                            ?_TMR6_Initialize 0501  
                                                     __ramtop 2500  
                                          __end_of_TMR6_Start 3E6A  
                                                     __ptext0 30BA  
                                                     __ptext1 32A4  
                                                     __ptext2 31C6  
                                                     __ptext3 3D34  
                                                     __ptext4 3D42  
                                                     __ptext5 3D50  
                                                     __ptext6 38EC  
                                                     __ptext7 3B94  
                                                     __ptext8 3BB2  
                                                     __ptext9 38B6  
        __end_of_PWM2_16BIT_Slice1Output1_SetInterruptHandler 3D88  
       __size_of_PWM2_16BIT_Slice1Output1_SetInterruptHandler 000E  
              ??_PWM2_16BIT_Slice1Output1_SetInterruptHandler 0505  
               ?_PWM2_16BIT_Slice1Output1_SetInterruptHandler 0502  
                _PWM2_16BIT_Slice1Output1_SetInterruptHandler 3D7A  
                                                   _T1CONbits 00031E  
                                       _OSCILLATOR_Initialize 3BEE  
                                                   _T2CONbits 000324  
                                                   _T4CONbits 000330  
                                    ??_PIN_MANAGER_Initialize 0502  
                                                   _T2HLTbits 000325  
                                    _SST26VF064B_WriteAddress 3B74  
                                                   _T6CONbits 00033C  
                                      ??_SST26VF064B_Read_Cmd 0504  
                                                   _T4HLTbits 000331  
                                           ??_DMA6_Initialize 0502  
                                                   _PIE10bits 0004A8  
                                                   _PIE11bits 0004A9  
                                                   _IPR15bits 000371  
                                                   _PIE12bits 0004AA  
                                                   _PIE13bits 0004AB  
                                                   _PIE15bits 0004AD  
                                   ??_SST26VF064B_JEDECID_Cmd 0504  
                                     __size_of_TMR6_StopTimer 0006  
                                        __end_of_PingPong2SPI 30BA  
                                                   _T6HLTbits 00033D  
                                  __size_of_SYSTEM_Initialize 0062  
                                           ??_LED0_Blink_Stop 0502  
                                        end_of_initialization 3B6E  
                                              ResetAllDMA@dma 0502  
                                       _SST26VF064B_ChipErase 39E0  
         fp__PWM2_16BIT_Slice1Output2_DefaultInterruptHandler 0000  
    __end_of_PWM2_16BIT_Slice1Output2_DefaultInterruptHandler 3E90  
   __size_of_PWM2_16BIT_Slice1Output2_DefaultInterruptHandler 0002  
          ??_PWM2_16BIT_Slice1Output2_DefaultInterruptHandler 0502  
           ?_PWM2_16BIT_Slice1Output2_DefaultInterruptHandler 0501  
            _PWM2_16BIT_Slice1Output2_DefaultInterruptHandler 3E8E  
                                      __size_of_ResetSwitches 000A  
                                                   _T2RSTbits 000327  
                         __size_of_SST26VF064B_SPI_ReadBuffer 0038  
                                          _AUDIO_ReadMetaData 27DA  
                                                   _PIR10bits 0004B8  
                                                   _T4RSTbits 000333  
                                                   _PIR11bits 0004B9  
                                                   _PIR12bits 0004BA  
                                                   _PIR13bits 0004BB  
                                                   _PIR15bits 0004BD  
                                            _SST26VF064B_Hold 3C26  
                                            _SST26VF064B_Busy 3BD0  
                                                   _T6RSTbits 00033F  
                          __size_of_SST26VF064B_GetDeviceInfo 0022  
                                               ??_AUDIO_Erase 0513  
                                      ??_AUDIO_UpdateMetaData 0506  
                                  ?_SST26VF064B_GetDeviceInfo 0507  
                              ??_UART1_SetOverrunErrorHandler 0505  
                                         ?_AUDIO_ReadMetaData 0501  
                                                 _DAC1CONbits 00007F  
                                                   _SPI1TCNTL 000082  
                                                     postdec2 0004DD  
                                                   _PWM2S1CFG 000479  
                                                   _PWM2S1P1H 00047B  
                                                     postinc0 0004EE  
                                                   _PWM2S1P2H 00047D  
                                                     postinc2 0004DE  
                                                   _PWM2S1P1L 00047A  
                                                   _PWM2S1P2L 00047C  
                                            ?_ADCC_Initialize 0501  
                                                   _PWM2PIPOS 000475  
                                           UART1_Write@txData 0502  
                                            ??_BlinkTimer_ISR 0501  
                                    ??_FLASH_WriteWord_ByWord 0506  
                                                   _PWMIN0PPS 000257  
                                           _DMA1_StopTransfer 3DD8  
                                    _TMR0_SetInterruptHandler 3DA4  
                                    _TMR6_SetInterruptHandler 3D96  
                                                   _TMR6_Stop 3E52  
                                            ?_CLC1_Initialize 0501  
                                          ?_DMA1_StopTransfer 0501  
                                        ??_AUDIO_ReadMetaData 0504  
                                                   _TRISCbits 0004C8  
                              ?_DMA2_StartTransferWithTrigger 0501  
                                  __size_of_AUDIO_Passthrough 0060  
                                  __end_of_SST26VF064B_CS_Low 3E7E  
                                           __size_of_CLC1_ISR 0024  
                                           __size_of_CLC2_ISR 0024  
                                            ?_CMP1_Initialize 0501  
                                         ??_DMA1_StopTransfer 0502  
                                            ?_TMR6_StartTimer 0501  
                                    __end_of_DATAEE_WriteByte 3530  
                                             _DMA1_Initialize 36FC  
                                     ??_PWM2_16BIT_Initialize 0505  
                                                 _CM1CON0bits 000070  
                       __end_of_SST26VF064B_GlobalBlockUnlock 3A30  
                      __size_of_SST26VF064B_GlobalBlockUnlock 0028  
                               _SST26VF064B_GlobalBlockUnlock 3A08  
                               __size_of_PWM2_16BIT_PWMPI_ISR 0032  
                                             _SPI1_Initialize 3C5C  
                             ??_DMA1_StartTransferWithTrigger 0502  
                                            ?_CLC2_Initialize 0501  
                                        AUDIO_Playback@i_3992 0512  
                           __end_of_SST26VF064B_GetDeviceInfo 3B32  
                                        _timer0ReloadVal16bit 055C  
                                              _TMR0_StopTimer 3E70  
                                __end_of_INTERRUPT_Initialize 378C  
                                    FLASH_ErasePages@numPages 050F  
                                         __end_of_AUDIO_Erase 2F84  
                                               _ResetSwitches 3E0E  
                                   __end_of_DMA1_StopTransfer 3DE4  
                                             _DMA2_Initialize 36B0  
                                           __size_of_TMR0_ISR 0014  
                                           __size_of_TMR6_ISR 0008  
                                              _TMR1_StopTimer 3E6A  
                                      ?_OSCILLATOR_Initialize 0501  
                                                  ?_TMR6_Stop 0501  
                                               AUDIO_Record@i 0522  
                                    ?_TMR1_HasOverflowOccured 0501  
                                         start_initialization 3B54  
                                  ??_SystemArbiter_Initialize 0502  
                                    __size_of_TMR0_Initialize 0042  
                             __size_of_PIN_MANAGER_Initialize 00E6  
                                        __size_of_Default_ISR 0002  
                                     ??_UART1_SetErrorHandler 0505  
                                      ?_SST26VF064B_ChipErase 0501  
                                                  ivt0x8_base 0008  
                                             _DMA3_Initialize 3664  
                                                 _CLCDATAbits 0000D4  
                                      __size_of_TimerTick_ISR 0040  
                                            fp__TimerTick_ISR 0000  
                                  SST26VF064B_Command@command 0503  
                                         DATAEE_ReadByte@bAdd 0502  
                                      __end_of_TMR0_StopTimer 3E76  
                                         _SST26VF064B_CS_High 3E7E  
                          __end_of_SST26VF064B_SPI_ReadBuffer 38B6  
                                  _SST26VF064B_SPI_ReadBuffer 387E  
                                    __size_of_TMR1_Initialize 0036  
                                  ??_SST26VF064B_SPI_ReadByte 0503  
                                            ??_PMD_Initialize 0502  
                                           __size_of_ResetDMA 0024  
                                     __size_of_APP_Initialize 0060  
                                              ?_ResetSwitches 0501  
                                                _sw0_released 0545  
                                    __end_of_LED0_Blink_Start 3E5E  
                                      __size_of_TMR0_CallBack 0030  
                                      __end_of_TMR1_StopTimer 3E70  
                                             _DMA4_Initialize 3618  
                                         _SST26VF064B_WP_High 3E76  
                                 FLASH_EraseBlock@GIEBitValue 0506  
                                                _sw1_released 0543  
                                    __end_of_FLASH_EraseBlock 3368  
                                         _SST26VF064B_Command 3E04  
                             __size_of_FLASH_WriteWord_ByWord 0050  
                                    __end_of_FLASH_ErasePages 32A4  
                                 __size_of_PingPong2BufferRam 001C  
                                           _DMA2_StopTransfer 3DCC  
                                   FLASH_ErasePages@flashAddr 050B  
                                       __size_of_PingPong2SPI 0096  
                                        ?_SST26VF064B_CS_High 0501  
                                    __size_of_DAC1_Initialize 000C  
                                     __end_of_DMA1_Initialize 3748  
                                          ?_DMA2_StopTransfer 0501  
                                                 __pbssCOMRAM 0528  
                                          _UART1_ErrorHandler 0560  
                                    __size_of_TMR2_Initialize 001E  
                                                ?_ResetAllDMA 0501  
                                              _TMR6_StopTimer 3E4C  
                                     __end_of_SPI1_Initialize 3C74  
                                         ??_DMA2_StopTransfer 0502  
                                        ?_SST26VF064B_WP_High 0501  
                                             _DMA5_Initialize 35CC  
                                        ?_SST26VF064B_Command 0501  
                             SST26VF064B_WriteAddress@addr_hi 0507  
                             SST26VF064B_WriteAddress@addr_mi 0508  
                             SST26VF064B_WriteAddress@addr_lo 0509  
                                                ?_WaitForTick 0501  
                             SST26VF064B_WriteAddress@address 0503  
                                       _TMR0_InterruptHandler 0554  
                                       _TMR6_InterruptHandler 0551  
                               __size_of_CLC1_OutputStatusGet 0016  
                                                   __pnvBANK5 0560  
                                   FLASH_EraseBlock@flashAddr 0502  
                                                 _AUDIO_Erase 2ED8  
                                    __size_of_TMR0_StartTimer 0006  
                                      __size_of_TMR6_CallBack 0030  
                                             ?_TMR0_StopTimer 0501  
                                     __end_of_DMA2_Initialize 36FC  
                                      _PIN_MANAGER_Initialize 2D1C  
                              ?_SST26VF064B_GlobalBlockUnlock 0501  
                                            ??_AUDIO_Playback 050A  
                                           ?_UART1_Initialize 0501  
                        __end_of_UART1_SetFramingErrorHandler 3D50  
                       __size_of_UART1_SetFramingErrorHandler 000E  
                                _UART1_SetFramingErrorHandler 3D42  
                       __end_of_DMA1_StartTransferWithTrigger 3E04  
                      __size_of_DMA1_StartTransferWithTrigger 000A  
                               _DMA1_StartTransferWithTrigger 3DFA  
                                                   __ptext100 3E8C  
                                                   __ptext101 3E84  
                                                   __ptext102 2F84  
                                                   __ptext103 3E8E  
                                                   __ptext104 3E90  
                                                   __ptext105 3920  
                                                   __ptext106 3E92  
                                                   __ptext107 3AEC  
                                                   __ptext108 3CD0  
                                                   __ptext109 0000  
                                                _PingPong2SPI 3024  
                                          ??_UART1_Initialize 0505  
                                  __size_of_DMA1_StopTransfer 000C  
                             __end_of_TMR1_HasOverflowOccured 3D0E  
                                             ?_TMR1_StopTimer 0501  
                                   __end_of_DMA2_StopTransfer 3DD8  
                                             _DMA6_Initialize 3580  
                                  ??_SST26VF064B_WriteAddress 0507  
                                                   _bufferRAM 002500  
                                            _uart1RxLastError 0547  
                                               ??_UART1_Write 0502  
                                                    _DAC1DATL 00007D  
                                               _TimerTick_ISR 37CE  
                               SST26VF064B_GetDeviceInfo@info 0507  
                         __end_of_SST26VF064B_PageProgram_Cmd 3E20  
                                 _SST26VF064B_PageProgram_Cmd 3E18  
                                    __end_of_SST26VF064B_Hold 3C42  
                                    __end_of_SST26VF064B_Busy 3BEE  
                                             _LED0_Blink_Stop 3E28  
                                                 ??_TMR6_Stop 0502  
                                       ??_SST26VF064B_CS_High 0502  
                                                 __smallconst 2500  
                                    __size_of_TMR1_StartTimer 0006  
                            _UART1_DefaultOverrunErrorHandler 000000  
                                      __end_of_TMR6_StopTimer 3E52  
                                     __end_of_DMA3_Initialize 36B0  
                                                    _CLC1_ISR 3AC8  
                                                    _CLC2_ISR 3AEC  
                                    __size_of_TMR4_Initialize 001E  
                                               _TMR0_CallBack 3952  
                                                    _T2CLKCON 000326  
                                                    _CLCnGLS0 0000DC  
                                                    _CLCnGLS1 0000DD  
                                                    _CLCnGLS2 0000DE  
                                                    _CLCnGLS3 0000DF  
                                    __size_of_DATAEE_ReadByte 001A  
                                                    _CLCnSEL0 0000D8  
                                                    _CLCnSEL1 0000D9  
                                                    _CLCnSEL2 0000DA  
                                                    _CLCnSEL3 0000DB  
                                       ??_SST26VF064B_WP_High 0502  
                                                 _U1ERRIRbits 0002B2  
                                                    _DMAnCON0 0000FC  
                                                    _DMAnCON1 0000FD  
                                                    _DMAnAIRQ 0000FE  
                                                    _T4CLKCON 000332  
                                                    _DMAnDPTR 0000EC  
                                        _INTERRUPT_Initialize 3748  
                                                    _T6CLKCON 00033E  
                                                    _DMAnSIRQ 0000FF  
                                       ??_SST26VF064B_Command 0503  
                                                    _DMAnSPTR 0000F4  
                fp__PWM2_16BIT_Period_DefaultInterruptHandler 0000  
           __end_of_PWM2_16BIT_Period_DefaultInterruptHandler 3E94  
          __size_of_PWM2_16BIT_Period_DefaultInterruptHandler 0002  
                 ??_PWM2_16BIT_Period_DefaultInterruptHandler 0502  
                  ?_PWM2_16BIT_Period_DefaultInterruptHandler 0501  
                   _PWM2_16BIT_Period_DefaultInterruptHandler 3E92  
                                      _FLASH_WriteWord_ByWord 3530  
                                    ??_TMR1_StopAndStartTimer 0506  
                                           ??_TMR0_Initialize 0505  
                       UART1_SetErrorHandler@interruptHandler 0502  
                                                    _LATBbits 0004BF  
                                                    _LATCbits 0004C0  
                                                    _LATDbits 0004C1  
                                                    _LATFbits 0004C3  
                                                    _IPR0bits 000362  
                                                    _PIE0bits 00049E  
                          _PWM2_16BIT_Period_InterruptHandler 0548  
                                                    _IPR3bits 000365  
                                                    _PIE2bits 0004A0  
                                                    _PIE3bits 0004A1  
                                 ??_SST26VF064B_GetDeviceInfo 0509  
                                                    _IPR6bits 000368  
                                                    _PIE5bits 0004A3  
                                                    _PIE6bits 0004A4  
                                                _SPI1CON0bits 000084  
                                                    _IVTBASEH 00045E  
                                                    _IVTBASEL 00045D  
                                                    _IVTBASEU 00045F  
                                                _SPI1CON2bits 000086  
                                     __end_of_DMA4_Initialize 3664  
                                                    i2u110_40 2FB8  
                                                    i2u110_41 2FB4  
                                    __size_of_TMR1_WriteTimer 002E  
                                                    i2u112_40 2FE4  
                                                    i2u111_48 2FBE  
                                                    i2u112_41 2FE0  
                                                    i2u111_49 2FD2  
                                                    i2u113_40 2FF2  
                                                    i2u113_41 2FEE  
                                                    i2u114_40 3008  
                                                    i2u114_41 3004  
                                                    i2u116_40 3936  
                                                    i2u115_48 300E  
                                                    i2u108_40 2F94  
                                                    i2u116_41 3932  
                                                    i2u115_49 3022  
                                                    i2u108_41 2F90  
                                                    i2u109_40 2FA2  
                                                    i2u109_41 2F9E  
                                                    i2u118_40 3B02  
                                                    i2u117_48 393C  
                                                    i2u118_41 3AFE  
                                                    i2u117_49 3950  
                                    ?_SST26VF064B_WriteEnable 0501  
                                  ??_TMR0_SetInterruptHandler 0505  
                                                    _PIR0bits 0004AE  
                                                    _PIR2bits 0004B0  
                                                    _SPI1BAUD 000089  
                                             ??_ResetSwitches 0502  
                                                    _PIR3bits 0004B1  
                                                    _PIR4bits 0004B2  
                                                    _SPI1CON0 000084  
                                                    _SPI1CON1 000085  
                                                    _SPI1CON2 000086  
                                                    _PIR5bits 0004B3  
                                                    _PIR6bits 0004B4  
                                               ??_TMR0_Reload 0502  
                                  ??_TMR6_SetInterruptHandler 0505  
                                                    _SPI1TCNT 000082  
                                                    _PWM2CPRE 000474  
                                                    _TMR0_ISR 3D10  
                               __size_of_CLC2_OutputStatusGet 0016  
                                                    _TMR6_ISR 3E38  
                               ?_UART1_SetFramingErrorHandler 0502  
                                              ?_TimerTick_ISR 0501  
                                           ??_TMR1_Initialize 0502  
                                    ??_SST26VF064B_Initialize 0509  
                                                  _ADCON0bits 0003F3  
                                                  _ADCON1bits 0003F4  
                                                  _ADCON2bits 0003F5  
                                                  _ADCON3bits 0003F6  
                                 TMR1_StopAndStartTimer@delay 0504  
        __end_of_PWM2_16BIT_Slice1Output2_SetInterruptHandler 3D7A  
       __size_of_PWM2_16BIT_Slice1Output2_SetInterruptHandler 000E  
              ??_PWM2_16BIT_Slice1Output2_SetInterruptHandler 0505  
               ?_PWM2_16BIT_Slice1Output2_SetInterruptHandler 0502  
                _PWM2_16BIT_Slice1Output2_SetInterruptHandler 3D6C  
                                               _TMR6_CallBack 3982  
                                __size_of_PWM2_16BIT_PWMI_ISR 00A0  
                            __end_of_SystemArbiter_Initialize 3D6C  
                                            ?_DMA1_Initialize 0501  
                                             ?_TMR6_StopTimer 0501  
                                     __end_of_DMA5_Initialize 3618  
                                         __end_of_UART1_Write 3C8C  
                                       DATAEE_WriteByte@bData 0504  
                                    __size_of_TMR6_Initialize 0032  
                                              ?_TMR0_CallBack 0501  
                                            ?_SPI1_Initialize 0501  
                                                 _INTCON0bits 0004D6  
                   _PWM2_16BIT_Slice1Output1_InterruptHandler 054E  
                                       ?_INTERRUPT_Initialize 0501  
                               __size_of_SST26VF064B_Read_Cmd 0008  
                                           ??_DAC1_Initialize 0502  
                                           ?_DATAEE_WriteByte 0502  
                                           ??_TMR2_Initialize 0502  
                              __size_of_PWM2_16BIT_Initialize 007A  
                                          ??_DATAEE_WriteByte 0505  
                               __end_of_PWM2_16BIT_Initialize 31C6  
                                                  _ADSTATbits 0003F7  
                                                    _ResetDMA 3AA2  
                                                    __Hrparam 0000  
                                            ?_DMA2_Initialize 0501  
                                     __end_of_DMA6_Initialize 35CC  
                                          _SST26VF064B_CS_Low 3E7A  
                               __size_of_AUDIO_UpdateMetaData 00D6  
                                                    __Lrparam 0000  
                                              _APP_Initialize 33C8  
                                     __end_of_LED0_Blink_Stop 3E30  
                                                 _extMemAudio 0528  
                                     ??_OSCILLATOR_Initialize 0502  
                                                 _sw0_pressed 0546  
                                           ??_TMR0_StartTimer 0502  
                                  __size_of_DMA2_StopTransfer 000C  
                                                 _sw1_pressed 0544  
                                         ?_SST26VF064B_CS_Low 0501  
                                __end_of_PWM2_16BIT_PWMPI_ISR 3952  
                            SST26VF064B_Initialize@deviceInfo 0509  
                                         __end_of_TMR0_Reload 3DC0  
                                    AUDIO_Record@bufferRamPtr 051E  
                              ?_DMA1_StartTransferWithTrigger 0501  
                                              ?_TMR6_CallBack 0501  
                                   _SST26VF064B_GetDeviceInfo 3B10  
                                    ?_SST26VF064B_JEDECID_Cmd 0501  
                                     ??_SST26VF064B_ChipErase 0505  
                                                  _T0CON0bits 00031A  
                                                  _AUDIO_Idle 2C0E  
                                    __size_of_ADCC_Initialize 005C  
                                            ?_DMA3_Initialize 0501  
                                 __size_of_AUDIO_ReadMetaData 025E  
                                                    __pivt0x8 0008  
                                                    __ptext10 378C  
                                                    __ptext11 3D5E  
                                                    __ptext20 3748  
                                                    __ptext12 3C5C  
                                                    __ptext21 3580  
                                                    __ptext13 314C  
                                                  _T1GCONbits 00031F  
                                                    __ptext30 3846  
                                                    __ptext22 35CC  
                                                    __ptext14 3D6C  
                                                    __ptext31 3428  
                                                    __ptext23 3618  
                                                    __ptext15 3D7A  
                                                    __ptext40 2ED8  
                                                    __ptext32 2508  
                                                    __ptext24 3664  
                                                    __ptext16 3D88  
                                                    __ptext41 39E0  
                                                    __ptext33 3CA4  
                                                    __ptext25 36B0  
                                                    __ptext17 3A7E  
                                                    __ptext50 3C74  
                                                    __ptext42 323A  
                                                    __ptext34 3E18  
                                                    __ptext26 36FC  
                                                    __ptext18 2D1C  
                                                    __ptext51 3E40  
                                                    __ptext43 3306  
                                                    __ptext35 3024  
                                                    __ptext27 3DC0  
                                                    __ptext19 3BEE  
                                                    __ptext60 3E28  
                                                    __ptext52 3AA2  
                                                    __ptext44 2E02  
                                                    __ptext36 3C0A  
                                                    __ptext28 3CE6  
                                                    __ptext61 3E4C  
                                                    __ptext53 3DD8  
                                                    __ptext45 34DE  
                                                    __ptext37 3530  
                                                    __ptext29 380E  
                                                    __ptext70 3DA4  
                                                    __ptext62 3E52  
                                                    __ptext54 3DFA  
                                                    __ptext46 2A38  
                                                    __ptext38 3DCC  
                                                    __ptext71 3DB2  
                                                    __ptext63 3E58  
                                                    __ptext55 2C0E  
                                                    __ptext47 3B74  
                                                    __ptext39 3DF0  
                                                    __ptext80 3BD0  
                                                    __ptext72 3484  
                                                    __ptext64 3E5E  
                                                    __ptext56 3C8C  
                                                    __ptext48 3E20  
                                                    __ptext81 3DE4  
                                                    __ptext73 3E76  
                                                    __ptext65 3E64  
                                                    __ptext57 39B2  
                                                    __ptext49 3368  
                                                    __ptext90 3D10  
                                                    __ptext82 3E04  
                                                    __ptext74 3C26  
                                                    __ptext66 33C8  
                                                    __ptext58 3E46  
                                                    __ptext91 3952  
                                                    __ptext83 3B32  
                                                    __ptext75 3B10  
                                                    __ptext67 3D96  
                                                    __ptext59 3CFA  
                                                    __ptext92 3E88  
                                                    __ptext84 3E7A  
                                                    __ptext76 387E  
                                                    __ptext68 3E6A  
                                                    __ptext93 37CE  
                                                    __ptext85 3E7E  
                                                    __ptext77 3E30  
                                                    __ptext69 3E70  
                                                    __ptext94 3E38  
                                                    __ptext86 3E0E  
                                                    __ptext78 3A08  
                                                    __ptext95 3982  
                                                    __ptext87 3A58  
                                                    __ptext79 3D24  
                                                    __ptext96 3A30  
                                                    __ptext88 27DA  
                                                    __ptext97 3E8A  
                                                    __ptext89 3C42  
                                                    __ptext98 3AC8  
                                                    __ptext99 3CBA  
                                                  _U1CON0bits 0002AB  
                              __size_of_UART1_SetErrorHandler 000E  
                                           ??_TMR1_StartTimer 0502  
                               __end_of_UART1_SetErrorHandler 3D5E  
                                        __size_of_ResetAllDMA 0026  
                                    __size_of_CLC1_Initialize 0038  
                                        ??_SST26VF064B_CS_Low 0502  
                                 DATAEE_WriteByte@GIEBitValue 0505  
                                 AUDIO_Record@numPagesWritten 0520  
                                                    _pfmAudio 052E  
                             __end_of_SST26VF064B_WriteEnable 3D34  
                            __size_of_TMR1_HasOverflowOccured 0014  
                                           ??_TMR4_Initialize 0502  
                             __size_of_TMR1_StopAndStartTimer 0018  
                                               ?_AUDIO_Record 0501  
                                               __size_of_main 0092  
                                           FLASH_ErasePages@i 0511  
                        __end_of_TMR0_DefaultInterruptHandler 3E8A  
                       __size_of_TMR0_DefaultInterruptHandler 0002  
                                _TMR0_DefaultInterruptHandler 3E88  
                                           ??_DATAEE_ReadByte 0504  
                                    __size_of_CMP1_Initialize 0014  
                                      __end_of_APP_Initialize 3428  
                                                 _IVTLOCKbits 000459  
                                    __size_of_TMR6_StartTimer 0006  
                                        __size_of_WaitForTick 0016  
                                 ?_SST26VF064B_SPI_ReadBuffer 0503  
                                            ?_DMA4_Initialize 0501  
                                   _UART1_OverrunErrorHandler 0563  
                UART1_SetOverrunErrorHandler@interruptHandler 0502  
                                             ??_TimerTick_ISR 0501  
                                             PingPong2SPI@src 053E  
                                           ?_LED0_Blink_Start 0501  
                                    __size_of_CLC2_Initialize 0038  
                                           ??_TMR1_WriteTimer 0504  
                                    AUDIO_Record@maxFlashAddr 051A  
                               SST26VF064B_SPI_ReadByte@value 0503  
                                                 _UART1_Write 3C74  
                                          ??_LED0_Blink_Start 0502  
                                           ?_FLASH_EraseBlock 0502  
                             __size_of_SST26VF064B_Initialize 005A  
                                           ?_FLASH_ErasePages 050B  
                                                  _MEMORY_ISR 3E84  
                                               ??_Default_ISR 0502  
                              ??_UART1_SetFramingErrorHandler 0505  
                                          ??_FLASH_EraseBlock 0506  
                                          ??_FLASH_ErasePages 0511  
                                             ??_TMR0_CallBack 0501  
                                                 _NVMCON0bits 000040  
                                                 _NVMCON1bits 000041  
                                                 _PWM2GIEbits 000477  
                                            ?_DMA5_Initialize 0501  
                                                 _PWM2CONbits 000478  
                                                 _PWM2GIRbits 000476  
                                      ??_INTERRUPT_Initialize 0502  
                                     __size_of_BlinkTimer_ISR 0028  
                                                 _tickOccured 0540  
                                           fp__BlinkTimer_ISR 0000  
                        __end_of_TMR6_DefaultInterruptHandler 3E8C  
                       __size_of_TMR6_DefaultInterruptHandler 0002  
                                _TMR6_DefaultInterruptHandler 3E8A  
                                                    intlevel2 0000  
                                            ??_TMR0_StopTimer 0502  
                                              ??_AUDIO_Record 0513  
                                     ?_PIN_MANAGER_Initialize 0501  
                                           ??_TMR6_Initialize 0505  
                                                ?_AUDIO_Erase 0501  
                           __size_of_SystemArbiter_Initialize 000E  
                                             ?_APP_Initialize 0501  
                                            ??_TMR1_StopTimer 0502  
                                   ?_SystemArbiter_Initialize 0501  
                                            ?_DMA6_Initialize 0501  
                             fp__TMR0_DefaultInterruptHandler 0000  
                               ?_TMR0_DefaultInterruptHandler 0501  
                            SST26VF064B_SPI_ReadBuffer@buffer 0503  
                                                 _TMR0_Reload 3DB2  
                                                  _SPI1SCKPPS 00026A  
                                                  _SPI1SDIPPS 00026B  
                                            ?_LED0_Blink_Stop 0501  
                   _PWM2_16BIT_Slice1Output2_InterruptHandler 054B  
                UART1_SetFramingErrorHandler@interruptHandler 0502  
                                  __end_of_PingPong2BufferRam 3C26  
                             __end_of_SST26VF064B_JEDECID_Cmd 3E38  
                                             ??_TMR6_CallBack 0502  
                                                  _PWM2ERSPPS 000254  
                                      _TMR1_StopAndStartTimer 3C8C  
                                __end_of_CLC1_OutputStatusGet 3CD0  
                                           ?_SST26VF064B_Hold 0501  
                                           ?_SST26VF064B_Busy 0501  
                                                  _PRLOCKbits 0000B4  
                             ??_SST26VF064B_GlobalBlockUnlock 0505  
                                             _TMR0_Initialize 378C  
                                                 ?_AUDIO_Idle 0501  
                                          ??_SST26VF064B_Hold 0502  
                                          ??_SST26VF064B_Busy 0504  
                           __size_of_SST26VF064B_SPI_ReadByte 000C  
                                   __size_of_UART1_Initialize 0074  
                                   ?_SST26VF064B_SPI_ReadByte 0501  
                                     ?_FLASH_WriteWord_ByWord 0502  
                                         __end_of_Default_ISR 3E8E  
                                                  _TMR6_Start 3E64  
                              __end_of_PIN_MANAGER_Initialize 2E02  
                                           ??_ADCC_Initialize 0502  
                             fp__TMR6_DefaultInterruptHandler 0000  
                               ?_TMR6_DefaultInterruptHandler 0501  
                                        _PWM2_16BIT_PWMPI_ISR 3920  
                                      _SST26VF064B_Initialize 3484  
                                         _PWM2_16BIT_PWMI_ISR 2F84  
                                             _TMR1_Initialize 38B6  
                                           ??_CLC1_Initialize 0502  
                                  __end_of_spi1_configuration 2506  
